ARM GAS  C:\Users\86188\AppData\Local\Temp\cccggEfL.s 			page 1


   1              		.cpu cortex-m4
   2              		.arch armv7e-m
   3              		.fpu fpv4-sp-d16
   4              		.eabi_attribute 27, 1
   5              		.eabi_attribute 28, 1
   6              		.eabi_attribute 20, 1
   7              		.eabi_attribute 21, 1
   8              		.eabi_attribute 23, 3
   9              		.eabi_attribute 24, 1
  10              		.eabi_attribute 25, 1
  11              		.eabi_attribute 26, 1
  12              		.eabi_attribute 30, 1
  13              		.eabi_attribute 34, 1
  14              		.eabi_attribute 18, 4
  15              		.file	"api_msg.c"
  16              		.text
  17              	.Ltext0:
  18              		.cfi_sections	.debug_frame
  19              		.section	.rodata.lwip_netconn_err_to_msg.str1.4,"aMS",%progbits,1
  20              		.align	2
  21              	.LC0:
  22 0000 54686972 		.ascii	"ThirdPackage/lwip220/api/api_msg.c\000"
  22      64506163 
  22      6B616765 
  22      2F6C7769 
  22      70323230 
  23 0023 00       		.align	2
  24              	.LC1:
  25 0024 756E6861 		.ascii	"unhandled error\000"
  25      6E646C65 
  25      64206572 
  25      726F7200 
  26              		.align	2
  27              	.LC2:
  28 0034 41737365 		.ascii	"Assertion \"%s\" failed at line %d in %s\012\000"
  28      7274696F 
  28      6E202225 
  28      73222066 
  28      61696C65 
  29              		.section	.text.lwip_netconn_err_to_msg,"ax",%progbits
  30              		.align	1
  31              		.syntax unified
  32              		.thumb
  33              		.thumb_func
  35              	lwip_netconn_err_to_msg:
  36              	.LVL0:
  37              	.LFB160:
  38              		.file 1 "ThirdPackage/lwip220/api/api_msg.c"
   1:ThirdPackage/lwip220/api/api_msg.c **** /**
   2:ThirdPackage/lwip220/api/api_msg.c ****  * @file
   3:ThirdPackage/lwip220/api/api_msg.c ****  * Sequential API Internal module
   4:ThirdPackage/lwip220/api/api_msg.c ****  *
   5:ThirdPackage/lwip220/api/api_msg.c ****  */
   6:ThirdPackage/lwip220/api/api_msg.c **** 
   7:ThirdPackage/lwip220/api/api_msg.c **** /*
   8:ThirdPackage/lwip220/api/api_msg.c ****  * Copyright (c) 2001-2004 Swedish Institute of Computer Science.
   9:ThirdPackage/lwip220/api/api_msg.c ****  * All rights reserved.
ARM GAS  C:\Users\86188\AppData\Local\Temp\cccggEfL.s 			page 2


  10:ThirdPackage/lwip220/api/api_msg.c ****  *
  11:ThirdPackage/lwip220/api/api_msg.c ****  * Redistribution and use in source and binary forms, with or without modification,
  12:ThirdPackage/lwip220/api/api_msg.c ****  * are permitted provided that the following conditions are met:
  13:ThirdPackage/lwip220/api/api_msg.c ****  *
  14:ThirdPackage/lwip220/api/api_msg.c ****  * 1. Redistributions of source code must retain the above copyright notice,
  15:ThirdPackage/lwip220/api/api_msg.c ****  *    this list of conditions and the following disclaimer.
  16:ThirdPackage/lwip220/api/api_msg.c ****  * 2. Redistributions in binary form must reproduce the above copyright notice,
  17:ThirdPackage/lwip220/api/api_msg.c ****  *    this list of conditions and the following disclaimer in the documentation
  18:ThirdPackage/lwip220/api/api_msg.c ****  *    and/or other materials provided with the distribution.
  19:ThirdPackage/lwip220/api/api_msg.c ****  * 3. The name of the author may not be used to endorse or promote products
  20:ThirdPackage/lwip220/api/api_msg.c ****  *    derived from this software without specific prior written permission.
  21:ThirdPackage/lwip220/api/api_msg.c ****  *
  22:ThirdPackage/lwip220/api/api_msg.c ****  * THIS SOFTWARE IS PROVIDED BY THE AUTHOR ``AS IS'' AND ANY EXPRESS OR IMPLIED
  23:ThirdPackage/lwip220/api/api_msg.c ****  * WARRANTIES, INCLUDING, BUT NOT LIMITED TO, THE IMPLIED WARRANTIES OF
  24:ThirdPackage/lwip220/api/api_msg.c ****  * MERCHANTABILITY AND FITNESS FOR A PARTICULAR PURPOSE ARE DISCLAIMED. IN NO EVENT
  25:ThirdPackage/lwip220/api/api_msg.c ****  * SHALL THE AUTHOR BE LIABLE FOR ANY DIRECT, INDIRECT, INCIDENTAL, SPECIAL,
  26:ThirdPackage/lwip220/api/api_msg.c ****  * EXEMPLARY, OR CONSEQUENTIAL DAMAGES (INCLUDING, BUT NOT LIMITED TO, PROCUREMENT
  27:ThirdPackage/lwip220/api/api_msg.c ****  * OF SUBSTITUTE GOODS OR SERVICES; LOSS OF USE, DATA, OR PROFITS; OR BUSINESS
  28:ThirdPackage/lwip220/api/api_msg.c ****  * INTERRUPTION) HOWEVER CAUSED AND ON ANY THEORY OF LIABILITY, WHETHER IN
  29:ThirdPackage/lwip220/api/api_msg.c ****  * CONTRACT, STRICT LIABILITY, OR TORT (INCLUDING NEGLIGENCE OR OTHERWISE) ARISING
  30:ThirdPackage/lwip220/api/api_msg.c ****  * IN ANY WAY OUT OF THE USE OF THIS SOFTWARE, EVEN IF ADVISED OF THE POSSIBILITY
  31:ThirdPackage/lwip220/api/api_msg.c ****  * OF SUCH DAMAGE.
  32:ThirdPackage/lwip220/api/api_msg.c ****  *
  33:ThirdPackage/lwip220/api/api_msg.c ****  * This file is part of the lwIP TCP/IP stack.
  34:ThirdPackage/lwip220/api/api_msg.c ****  *
  35:ThirdPackage/lwip220/api/api_msg.c ****  * Author: Adam Dunkels <adam@sics.se>
  36:ThirdPackage/lwip220/api/api_msg.c ****  *
  37:ThirdPackage/lwip220/api/api_msg.c ****  */
  38:ThirdPackage/lwip220/api/api_msg.c **** 
  39:ThirdPackage/lwip220/api/api_msg.c **** #include "lwip/opt.h"
  40:ThirdPackage/lwip220/api/api_msg.c **** 
  41:ThirdPackage/lwip220/api/api_msg.c **** #if LWIP_NETCONN /* don't build if not configured for use in lwipopts.h */
  42:ThirdPackage/lwip220/api/api_msg.c **** 
  43:ThirdPackage/lwip220/api/api_msg.c **** #include "lwip/priv/api_msg.h"
  44:ThirdPackage/lwip220/api/api_msg.c **** 
  45:ThirdPackage/lwip220/api/api_msg.c **** #include "lwip/ip.h"
  46:ThirdPackage/lwip220/api/api_msg.c **** #include "lwip/ip_addr.h"
  47:ThirdPackage/lwip220/api/api_msg.c **** #include "lwip/udp.h"
  48:ThirdPackage/lwip220/api/api_msg.c **** #include "lwip/tcp.h"
  49:ThirdPackage/lwip220/api/api_msg.c **** #include "lwip/raw.h"
  50:ThirdPackage/lwip220/api/api_msg.c **** 
  51:ThirdPackage/lwip220/api/api_msg.c **** #include "lwip/memp.h"
  52:ThirdPackage/lwip220/api/api_msg.c **** #include "lwip/igmp.h"
  53:ThirdPackage/lwip220/api/api_msg.c **** #include "lwip/dns.h"
  54:ThirdPackage/lwip220/api/api_msg.c **** #include "lwip/mld6.h"
  55:ThirdPackage/lwip220/api/api_msg.c **** #include "lwip/priv/tcpip_priv.h"
  56:ThirdPackage/lwip220/api/api_msg.c **** 
  57:ThirdPackage/lwip220/api/api_msg.c **** #include <string.h>
  58:ThirdPackage/lwip220/api/api_msg.c **** 
  59:ThirdPackage/lwip220/api/api_msg.c **** /* netconns are polled once per second (e.g. continue write on memory error) */
  60:ThirdPackage/lwip220/api/api_msg.c **** #define NETCONN_TCP_POLL_INTERVAL 2
  61:ThirdPackage/lwip220/api/api_msg.c **** 
  62:ThirdPackage/lwip220/api/api_msg.c **** #define SET_NONBLOCKING_CONNECT(conn, val)  do { if (val) { \
  63:ThirdPackage/lwip220/api/api_msg.c ****   netconn_set_flags(conn, NETCONN_FLAG_IN_NONBLOCKING_CONNECT); \
  64:ThirdPackage/lwip220/api/api_msg.c **** } else { \
  65:ThirdPackage/lwip220/api/api_msg.c ****   netconn_clear_flags(conn, NETCONN_FLAG_IN_NONBLOCKING_CONNECT); }} while(0)
  66:ThirdPackage/lwip220/api/api_msg.c **** #define IN_NONBLOCKING_CONNECT(conn) netconn_is_flag_set(conn, NETCONN_FLAG_IN_NONBLOCKING_CONNECT)
ARM GAS  C:\Users\86188\AppData\Local\Temp\cccggEfL.s 			page 3


  67:ThirdPackage/lwip220/api/api_msg.c **** 
  68:ThirdPackage/lwip220/api/api_msg.c **** #if LWIP_NETCONN_FULLDUPLEX
  69:ThirdPackage/lwip220/api/api_msg.c **** #define NETCONN_MBOX_VALID(conn, mbox) (sys_mbox_valid(mbox) && ((conn->flags & NETCONN_FLAG_MBOXIN
  70:ThirdPackage/lwip220/api/api_msg.c **** #else
  71:ThirdPackage/lwip220/api/api_msg.c **** #define NETCONN_MBOX_VALID(conn, mbox) sys_mbox_valid(mbox)
  72:ThirdPackage/lwip220/api/api_msg.c **** #endif
  73:ThirdPackage/lwip220/api/api_msg.c **** 
  74:ThirdPackage/lwip220/api/api_msg.c **** /* forward declarations */
  75:ThirdPackage/lwip220/api/api_msg.c **** #if LWIP_TCP
  76:ThirdPackage/lwip220/api/api_msg.c **** #if LWIP_TCPIP_CORE_LOCKING
  77:ThirdPackage/lwip220/api/api_msg.c **** #define WRITE_DELAYED         , 1
  78:ThirdPackage/lwip220/api/api_msg.c **** #define WRITE_DELAYED_PARAM   , u8_t delayed
  79:ThirdPackage/lwip220/api/api_msg.c **** #else /* LWIP_TCPIP_CORE_LOCKING */
  80:ThirdPackage/lwip220/api/api_msg.c **** #define WRITE_DELAYED
  81:ThirdPackage/lwip220/api/api_msg.c **** #define WRITE_DELAYED_PARAM
  82:ThirdPackage/lwip220/api/api_msg.c **** #endif /* LWIP_TCPIP_CORE_LOCKING */
  83:ThirdPackage/lwip220/api/api_msg.c **** static err_t lwip_netconn_do_writemore(struct netconn *conn  WRITE_DELAYED_PARAM);
  84:ThirdPackage/lwip220/api/api_msg.c **** static err_t lwip_netconn_do_close_internal(struct netconn *conn  WRITE_DELAYED_PARAM);
  85:ThirdPackage/lwip220/api/api_msg.c **** #endif
  86:ThirdPackage/lwip220/api/api_msg.c **** 
  87:ThirdPackage/lwip220/api/api_msg.c **** static void netconn_drain(struct netconn *conn);
  88:ThirdPackage/lwip220/api/api_msg.c **** 
  89:ThirdPackage/lwip220/api/api_msg.c **** #if LWIP_TCPIP_CORE_LOCKING
  90:ThirdPackage/lwip220/api/api_msg.c **** #define TCPIP_APIMSG_ACK(m)
  91:ThirdPackage/lwip220/api/api_msg.c **** #else /* LWIP_TCPIP_CORE_LOCKING */
  92:ThirdPackage/lwip220/api/api_msg.c **** #define TCPIP_APIMSG_ACK(m)   do { sys_sem_signal(LWIP_API_MSG_SEM(m)); } while(0)
  93:ThirdPackage/lwip220/api/api_msg.c **** #endif /* LWIP_TCPIP_CORE_LOCKING */
  94:ThirdPackage/lwip220/api/api_msg.c **** 
  95:ThirdPackage/lwip220/api/api_msg.c **** #if LWIP_NETCONN_FULLDUPLEX
  96:ThirdPackage/lwip220/api/api_msg.c **** static const u8_t netconn_deleted = 0;
  97:ThirdPackage/lwip220/api/api_msg.c **** 
  98:ThirdPackage/lwip220/api/api_msg.c **** int
  99:ThirdPackage/lwip220/api/api_msg.c **** lwip_netconn_is_deallocated_msg(void *msg)
 100:ThirdPackage/lwip220/api/api_msg.c **** {
 101:ThirdPackage/lwip220/api/api_msg.c ****   if (msg == &netconn_deleted) {
 102:ThirdPackage/lwip220/api/api_msg.c ****     return 1;
 103:ThirdPackage/lwip220/api/api_msg.c ****   }
 104:ThirdPackage/lwip220/api/api_msg.c ****   return 0;
 105:ThirdPackage/lwip220/api/api_msg.c **** }
 106:ThirdPackage/lwip220/api/api_msg.c **** #endif /* LWIP_NETCONN_FULLDUPLEX */
 107:ThirdPackage/lwip220/api/api_msg.c **** 
 108:ThirdPackage/lwip220/api/api_msg.c **** #if LWIP_TCP
 109:ThirdPackage/lwip220/api/api_msg.c **** static const u8_t netconn_aborted = 0;
 110:ThirdPackage/lwip220/api/api_msg.c **** static const u8_t netconn_reset = 0;
 111:ThirdPackage/lwip220/api/api_msg.c **** static const u8_t netconn_closed = 0;
 112:ThirdPackage/lwip220/api/api_msg.c **** 
 113:ThirdPackage/lwip220/api/api_msg.c **** /** Translate an error to a unique void* passed via an mbox */
 114:ThirdPackage/lwip220/api/api_msg.c **** static void *
 115:ThirdPackage/lwip220/api/api_msg.c **** lwip_netconn_err_to_msg(err_t err)
 116:ThirdPackage/lwip220/api/api_msg.c **** {
  39              		.loc 1 116 1 view -0
  40              		.cfi_startproc
  41              		@ args = 0, pretend = 0, frame = 0
  42              		@ frame_needed = 0, uses_anonymous_args = 0
 117:ThirdPackage/lwip220/api/api_msg.c ****   switch (err) {
  43              		.loc 1 117 3 view .LVU1
  44 0000 10F10E0F 		cmn	r0, #14
ARM GAS  C:\Users\86188\AppData\Local\Temp\cccggEfL.s 			page 4


  45 0004 11D0     		beq	.L3
  46 0006 10F10D0F 		cmn	r0, #13
  47 000a 10D0     		beq	.L4
  48 000c 10F10F0F 		cmn	r0, #15
  49 0010 0FD0     		beq	.L5
 118:ThirdPackage/lwip220/api/api_msg.c ****     case ERR_ABRT:
 119:ThirdPackage/lwip220/api/api_msg.c ****       return LWIP_CONST_CAST(void *, &netconn_aborted);
 120:ThirdPackage/lwip220/api/api_msg.c ****     case ERR_RST:
 121:ThirdPackage/lwip220/api/api_msg.c ****       return LWIP_CONST_CAST(void *, &netconn_reset);
 122:ThirdPackage/lwip220/api/api_msg.c ****     case ERR_CLSD:
 123:ThirdPackage/lwip220/api/api_msg.c ****       return LWIP_CONST_CAST(void *, &netconn_closed);
 124:ThirdPackage/lwip220/api/api_msg.c ****     default:
 125:ThirdPackage/lwip220/api/api_msg.c ****       LWIP_ASSERT("unhandled error", err == ERR_OK);
  50              		.loc 1 125 7 view .LVU2
  51              		.loc 1 125 7 view .LVU3
  52 0012 08B9     		cbnz	r0, .L11
 126:ThirdPackage/lwip220/api/api_msg.c ****       return NULL;
  53              		.loc 1 126 14 is_stmt 0 view .LVU4
  54 0014 0020     		movs	r0, #0
  55              	.LVL1:
 127:ThirdPackage/lwip220/api/api_msg.c ****   }
 128:ThirdPackage/lwip220/api/api_msg.c **** }
  56              		.loc 1 128 1 view .LVU5
  57 0016 7047     		bx	lr
  58              	.LVL2:
  59              	.L11:
 116:ThirdPackage/lwip220/api/api_msg.c ****   switch (err) {
  60              		.loc 1 116 1 discriminator 1 view .LVU6
  61 0018 08B5     		push	{r3, lr}
  62              	.LCFI0:
  63              		.cfi_def_cfa_offset 8
  64              		.cfi_offset 3, -8
  65              		.cfi_offset 14, -4
 125:ThirdPackage/lwip220/api/api_msg.c ****       return NULL;
  66              		.loc 1 125 7 is_stmt 1 discriminator 1 view .LVU7
 125:ThirdPackage/lwip220/api/api_msg.c ****       return NULL;
  67              		.loc 1 125 7 discriminator 1 view .LVU8
  68 001a 074B     		ldr	r3, .L12
  69 001c 7D22     		movs	r2, #125
  70 001e 0749     		ldr	r1, .L12+4
  71 0020 0748     		ldr	r0, .L12+8
  72              	.LVL3:
 125:ThirdPackage/lwip220/api/api_msg.c ****       return NULL;
  73              		.loc 1 125 7 is_stmt 0 discriminator 1 view .LVU9
  74 0022 FFF7FEFF 		bl	printf
  75              	.LVL4:
 126:ThirdPackage/lwip220/api/api_msg.c ****   }
  76              		.loc 1 126 14 discriminator 1 view .LVU10
  77 0026 0020     		movs	r0, #0
  78              		.loc 1 128 1 discriminator 1 view .LVU11
  79 0028 08BD     		pop	{r3, pc}
  80              	.LVL5:
  81              	.L3:
  82              	.LCFI1:
  83              		.cfi_def_cfa_offset 0
  84              		.cfi_restore 3
  85              		.cfi_restore 14
ARM GAS  C:\Users\86188\AppData\Local\Temp\cccggEfL.s 			page 5


 121:ThirdPackage/lwip220/api/api_msg.c ****     case ERR_CLSD:
  86              		.loc 1 121 14 view .LVU12
  87 002a 0648     		ldr	r0, .L12+12
  88              	.LVL6:
 121:ThirdPackage/lwip220/api/api_msg.c ****     case ERR_CLSD:
  89              		.loc 1 121 14 view .LVU13
  90 002c 7047     		bx	lr
  91              	.LVL7:
  92              	.L4:
 117:ThirdPackage/lwip220/api/api_msg.c ****     case ERR_ABRT:
  93              		.loc 1 117 3 view .LVU14
  94 002e 0648     		ldr	r0, .L12+16
  95              	.LVL8:
 117:ThirdPackage/lwip220/api/api_msg.c ****     case ERR_ABRT:
  96              		.loc 1 117 3 view .LVU15
  97 0030 7047     		bx	lr
  98              	.LVL9:
  99              	.L5:
 123:ThirdPackage/lwip220/api/api_msg.c ****     default:
 100              		.loc 1 123 14 view .LVU16
 101 0032 0648     		ldr	r0, .L12+20
 102              	.LVL10:
 123:ThirdPackage/lwip220/api/api_msg.c ****     default:
 103              		.loc 1 123 14 view .LVU17
 104 0034 7047     		bx	lr
 105              	.L13:
 106 0036 00BF     		.align	2
 107              	.L12:
 108 0038 00000000 		.word	.LC0
 109 003c 24000000 		.word	.LC1
 110 0040 34000000 		.word	.LC2
 111 0044 00000000 		.word	.LANCHOR0
 112 0048 00000000 		.word	.LANCHOR2
 113 004c 00000000 		.word	.LANCHOR1
 114              		.cfi_endproc
 115              	.LFE160:
 117              		.section	.rodata.recv_udp.str1.4,"aMS",%progbits,1
 118              		.align	2
 119              	.LC3:
 120 0000 72656376 		.ascii	"recv_udp must have a pcb argument\000"
 120      5F756470 
 120      206D7573 
 120      74206861 
 120      76652061 
 121 0022 0000     		.align	2
 122              	.LC4:
 123 0024 72656376 		.ascii	"recv_udp must have an argument\000"
 123      5F756470 
 123      206D7573 
 123      74206861 
 123      76652061 
 124 0043 00       		.align	2
 125              	.LC5:
 126 0044 72656376 		.ascii	"recv_udp: recv for wrong pcb!\000"
 126      5F756470 
 126      3A207265 
 126      63762066 
ARM GAS  C:\Users\86188\AppData\Local\Temp\cccggEfL.s 			page 6


 126      6F722077 
 127              		.section	.text.recv_udp,"ax",%progbits
 128              		.align	1
 129              		.syntax unified
 130              		.thumb
 131              		.thumb_func
 133              	recv_udp:
 134              	.LVL11:
 135              	.LFB162:
 129:ThirdPackage/lwip220/api/api_msg.c **** 
 130:ThirdPackage/lwip220/api/api_msg.c **** int
 131:ThirdPackage/lwip220/api/api_msg.c **** lwip_netconn_is_err_msg(void *msg, err_t *err)
 132:ThirdPackage/lwip220/api/api_msg.c **** {
 133:ThirdPackage/lwip220/api/api_msg.c ****   LWIP_ASSERT("err != NULL", err != NULL);
 134:ThirdPackage/lwip220/api/api_msg.c **** 
 135:ThirdPackage/lwip220/api/api_msg.c ****   if (msg == &netconn_aborted) {
 136:ThirdPackage/lwip220/api/api_msg.c ****     *err = ERR_ABRT;
 137:ThirdPackage/lwip220/api/api_msg.c ****     return 1;
 138:ThirdPackage/lwip220/api/api_msg.c ****   } else if (msg == &netconn_reset) {
 139:ThirdPackage/lwip220/api/api_msg.c ****     *err = ERR_RST;
 140:ThirdPackage/lwip220/api/api_msg.c ****     return 1;
 141:ThirdPackage/lwip220/api/api_msg.c ****   } else if (msg == &netconn_closed) {
 142:ThirdPackage/lwip220/api/api_msg.c ****     *err = ERR_CLSD;
 143:ThirdPackage/lwip220/api/api_msg.c ****     return 1;
 144:ThirdPackage/lwip220/api/api_msg.c ****   }
 145:ThirdPackage/lwip220/api/api_msg.c ****   return 0;
 146:ThirdPackage/lwip220/api/api_msg.c **** }
 147:ThirdPackage/lwip220/api/api_msg.c **** #endif /* LWIP_TCP */
 148:ThirdPackage/lwip220/api/api_msg.c **** 
 149:ThirdPackage/lwip220/api/api_msg.c **** 
 150:ThirdPackage/lwip220/api/api_msg.c **** #if LWIP_RAW
 151:ThirdPackage/lwip220/api/api_msg.c **** /**
 152:ThirdPackage/lwip220/api/api_msg.c ****  * Receive callback function for RAW netconns.
 153:ThirdPackage/lwip220/api/api_msg.c ****  * Doesn't 'eat' the packet, only copies it and sends it to
 154:ThirdPackage/lwip220/api/api_msg.c ****  * conn->recvmbox
 155:ThirdPackage/lwip220/api/api_msg.c ****  *
 156:ThirdPackage/lwip220/api/api_msg.c ****  * @see raw.h (struct raw_pcb.recv) for parameters and return value
 157:ThirdPackage/lwip220/api/api_msg.c ****  */
 158:ThirdPackage/lwip220/api/api_msg.c **** static u8_t
 159:ThirdPackage/lwip220/api/api_msg.c **** recv_raw(void *arg, struct raw_pcb *pcb, struct pbuf *p,
 160:ThirdPackage/lwip220/api/api_msg.c ****          const ip_addr_t *addr)
 161:ThirdPackage/lwip220/api/api_msg.c **** {
 162:ThirdPackage/lwip220/api/api_msg.c ****   struct pbuf *q;
 163:ThirdPackage/lwip220/api/api_msg.c ****   struct netbuf *buf;
 164:ThirdPackage/lwip220/api/api_msg.c ****   struct netconn *conn;
 165:ThirdPackage/lwip220/api/api_msg.c **** 
 166:ThirdPackage/lwip220/api/api_msg.c ****   LWIP_UNUSED_ARG(addr);
 167:ThirdPackage/lwip220/api/api_msg.c ****   conn = (struct netconn *)arg;
 168:ThirdPackage/lwip220/api/api_msg.c **** 
 169:ThirdPackage/lwip220/api/api_msg.c ****   if ((conn != NULL) && NETCONN_MBOX_VALID(conn, &conn->recvmbox)) {
 170:ThirdPackage/lwip220/api/api_msg.c **** #if LWIP_SO_RCVBUF
 171:ThirdPackage/lwip220/api/api_msg.c ****     int recv_avail;
 172:ThirdPackage/lwip220/api/api_msg.c ****     SYS_ARCH_GET(conn->recv_avail, recv_avail);
 173:ThirdPackage/lwip220/api/api_msg.c ****     if ((recv_avail + (int)(p->tot_len)) > conn->recv_bufsize) {
 174:ThirdPackage/lwip220/api/api_msg.c ****       return 0;
 175:ThirdPackage/lwip220/api/api_msg.c ****     }
 176:ThirdPackage/lwip220/api/api_msg.c **** #endif /* LWIP_SO_RCVBUF */
ARM GAS  C:\Users\86188\AppData\Local\Temp\cccggEfL.s 			page 7


 177:ThirdPackage/lwip220/api/api_msg.c ****     /* copy the whole packet into new pbufs */
 178:ThirdPackage/lwip220/api/api_msg.c ****     q = pbuf_clone(PBUF_RAW, PBUF_RAM, p);
 179:ThirdPackage/lwip220/api/api_msg.c ****     if (q != NULL) {
 180:ThirdPackage/lwip220/api/api_msg.c ****       u16_t len;
 181:ThirdPackage/lwip220/api/api_msg.c ****       buf = (struct netbuf *)memp_malloc(MEMP_NETBUF);
 182:ThirdPackage/lwip220/api/api_msg.c ****       if (buf == NULL) {
 183:ThirdPackage/lwip220/api/api_msg.c ****         pbuf_free(q);
 184:ThirdPackage/lwip220/api/api_msg.c ****         return 0;
 185:ThirdPackage/lwip220/api/api_msg.c ****       }
 186:ThirdPackage/lwip220/api/api_msg.c **** 
 187:ThirdPackage/lwip220/api/api_msg.c ****       buf->p = q;
 188:ThirdPackage/lwip220/api/api_msg.c ****       buf->ptr = q;
 189:ThirdPackage/lwip220/api/api_msg.c ****       ip_addr_copy(buf->addr, *ip_current_src_addr());
 190:ThirdPackage/lwip220/api/api_msg.c ****       buf->port = pcb->protocol;
 191:ThirdPackage/lwip220/api/api_msg.c **** 
 192:ThirdPackage/lwip220/api/api_msg.c ****       len = q->tot_len;
 193:ThirdPackage/lwip220/api/api_msg.c ****       if (sys_mbox_trypost(&conn->recvmbox, buf) != ERR_OK) {
 194:ThirdPackage/lwip220/api/api_msg.c ****         netbuf_delete(buf);
 195:ThirdPackage/lwip220/api/api_msg.c ****         return 0;
 196:ThirdPackage/lwip220/api/api_msg.c ****       } else {
 197:ThirdPackage/lwip220/api/api_msg.c **** #if LWIP_SO_RCVBUF
 198:ThirdPackage/lwip220/api/api_msg.c ****         SYS_ARCH_INC(conn->recv_avail, len);
 199:ThirdPackage/lwip220/api/api_msg.c **** #endif /* LWIP_SO_RCVBUF */
 200:ThirdPackage/lwip220/api/api_msg.c ****         /* Register event with callback */
 201:ThirdPackage/lwip220/api/api_msg.c ****         API_EVENT(conn, NETCONN_EVT_RCVPLUS, len);
 202:ThirdPackage/lwip220/api/api_msg.c ****       }
 203:ThirdPackage/lwip220/api/api_msg.c ****     }
 204:ThirdPackage/lwip220/api/api_msg.c ****   }
 205:ThirdPackage/lwip220/api/api_msg.c **** 
 206:ThirdPackage/lwip220/api/api_msg.c ****   return 0; /* do not eat the packet */
 207:ThirdPackage/lwip220/api/api_msg.c **** }
 208:ThirdPackage/lwip220/api/api_msg.c **** #endif /* LWIP_RAW*/
 209:ThirdPackage/lwip220/api/api_msg.c **** 
 210:ThirdPackage/lwip220/api/api_msg.c **** #if LWIP_UDP
 211:ThirdPackage/lwip220/api/api_msg.c **** /**
 212:ThirdPackage/lwip220/api/api_msg.c ****  * Receive callback function for UDP netconns.
 213:ThirdPackage/lwip220/api/api_msg.c ****  * Posts the packet to conn->recvmbox or deletes it on memory error.
 214:ThirdPackage/lwip220/api/api_msg.c ****  *
 215:ThirdPackage/lwip220/api/api_msg.c ****  * @see udp.h (struct udp_pcb.recv) for parameters
 216:ThirdPackage/lwip220/api/api_msg.c ****  */
 217:ThirdPackage/lwip220/api/api_msg.c **** static void
 218:ThirdPackage/lwip220/api/api_msg.c **** recv_udp(void *arg, struct udp_pcb *pcb, struct pbuf *p,
 219:ThirdPackage/lwip220/api/api_msg.c ****          const ip_addr_t *addr, u16_t port)
 220:ThirdPackage/lwip220/api/api_msg.c **** {
 136              		.loc 1 220 1 is_stmt 1 view -0
 137              		.cfi_startproc
 138              		@ args = 4, pretend = 0, frame = 0
 139              		@ frame_needed = 0, uses_anonymous_args = 0
 140              		.loc 1 220 1 is_stmt 0 view .LVU19
 141 0000 2DE9F041 		push	{r4, r5, r6, r7, r8, lr}
 142              	.LCFI2:
 143              		.cfi_def_cfa_offset 24
 144              		.cfi_offset 4, -24
 145              		.cfi_offset 5, -20
 146              		.cfi_offset 6, -16
 147              		.cfi_offset 7, -12
 148              		.cfi_offset 8, -8
ARM GAS  C:\Users\86188\AppData\Local\Temp\cccggEfL.s 			page 8


 149              		.cfi_offset 14, -4
 150 0004 0446     		mov	r4, r0
 151 0006 1546     		mov	r5, r2
 152 0008 9846     		mov	r8, r3
 221:ThirdPackage/lwip220/api/api_msg.c ****   struct netbuf *buf;
 153              		.loc 1 221 3 is_stmt 1 view .LVU20
 222:ThirdPackage/lwip220/api/api_msg.c ****   struct netconn *conn;
 154              		.loc 1 222 3 view .LVU21
 223:ThirdPackage/lwip220/api/api_msg.c ****   u16_t len;
 155              		.loc 1 223 3 view .LVU22
 224:ThirdPackage/lwip220/api/api_msg.c ****   err_t err;
 156              		.loc 1 224 3 view .LVU23
 225:ThirdPackage/lwip220/api/api_msg.c **** #if LWIP_SO_RCVBUF
 226:ThirdPackage/lwip220/api/api_msg.c ****   int recv_avail;
 227:ThirdPackage/lwip220/api/api_msg.c **** #endif /* LWIP_SO_RCVBUF */
 228:ThirdPackage/lwip220/api/api_msg.c **** 
 229:ThirdPackage/lwip220/api/api_msg.c ****   LWIP_UNUSED_ARG(pcb); /* only used for asserts... */
 157              		.loc 1 229 3 view .LVU24
 230:ThirdPackage/lwip220/api/api_msg.c ****   LWIP_ASSERT("recv_udp must have a pcb argument", pcb != NULL);
 158              		.loc 1 230 3 view .LVU25
 159              		.loc 1 230 3 view .LVU26
 160 000a 0E46     		mov	r6, r1
 161 000c 79B3     		cbz	r1, .L26
 162              	.LVL12:
 163              	.L15:
 164              		.loc 1 230 3 discriminator 3 view .LVU27
 165              		.loc 1 230 3 discriminator 3 view .LVU28
 231:ThirdPackage/lwip220/api/api_msg.c ****   LWIP_ASSERT("recv_udp must have an argument", arg != NULL);
 166              		.loc 1 231 3 discriminator 3 view .LVU29
 167              		.loc 1 231 3 discriminator 3 view .LVU30
 168 000e 002C     		cmp	r4, #0
 169 0010 34D0     		beq	.L27
 170              	.L16:
 171              		.loc 1 231 3 discriminator 3 view .LVU31
 172              		.loc 1 231 3 discriminator 3 view .LVU32
 232:ThirdPackage/lwip220/api/api_msg.c ****   conn = (struct netconn *)arg;
 173              		.loc 1 232 3 discriminator 3 view .LVU33
 174              	.LVL13:
 233:ThirdPackage/lwip220/api/api_msg.c **** 
 234:ThirdPackage/lwip220/api/api_msg.c ****   if (conn == NULL) {
 175              		.loc 1 234 3 discriminator 3 view .LVU34
 176              		.loc 1 234 6 is_stmt 0 discriminator 3 view .LVU35
 177 0012 002C     		cmp	r4, #0
 178 0014 39D0     		beq	.L28
 235:ThirdPackage/lwip220/api/api_msg.c ****     pbuf_free(p);
 236:ThirdPackage/lwip220/api/api_msg.c ****     return;
 237:ThirdPackage/lwip220/api/api_msg.c ****   }
 238:ThirdPackage/lwip220/api/api_msg.c **** 
 239:ThirdPackage/lwip220/api/api_msg.c ****   LWIP_ASSERT("recv_udp: recv for wrong pcb!", conn->pcb.udp == pcb);
 179              		.loc 1 239 3 is_stmt 1 view .LVU36
 180              		.loc 1 239 3 view .LVU37
 181 0016 6368     		ldr	r3, [r4, #4]
 182 0018 B342     		cmp	r3, r6
 183 001a 05D0     		beq	.L19
 184              		.loc 1 239 3 discriminator 1 view .LVU38
 185              		.loc 1 239 3 discriminator 1 view .LVU39
 186 001c 244B     		ldr	r3, .L32
ARM GAS  C:\Users\86188\AppData\Local\Temp\cccggEfL.s 			page 9


 187 001e EF22     		movs	r2, #239
 188 0020 2449     		ldr	r1, .L32+4
 189 0022 2548     		ldr	r0, .L32+8
 190 0024 FFF7FEFF 		bl	printf
 191              	.LVL14:
 192              	.L19:
 193              		.loc 1 239 3 discriminator 3 view .LVU40
 194              		.loc 1 239 3 discriminator 3 view .LVU41
 240:ThirdPackage/lwip220/api/api_msg.c **** 
 241:ThirdPackage/lwip220/api/api_msg.c **** #if LWIP_SO_RCVBUF
 242:ThirdPackage/lwip220/api/api_msg.c ****   SYS_ARCH_GET(conn->recv_avail, recv_avail);
 243:ThirdPackage/lwip220/api/api_msg.c ****   if (!NETCONN_MBOX_VALID(conn, &conn->recvmbox) ||
 244:ThirdPackage/lwip220/api/api_msg.c ****       ((recv_avail + (int)(p->tot_len)) > conn->recv_bufsize)) {
 245:ThirdPackage/lwip220/api/api_msg.c **** #else  /* LWIP_SO_RCVBUF */
 246:ThirdPackage/lwip220/api/api_msg.c ****   if (!NETCONN_MBOX_VALID(conn, &conn->recvmbox)) {
 195              		.loc 1 246 3 discriminator 3 view .LVU42
 196              		.loc 1 246 8 is_stmt 0 discriminator 3 view .LVU43
 197 0028 04F11007 		add	r7, r4, #16
 198 002c 3846     		mov	r0, r7
 199 002e FFF7FEFF 		bl	sys_mbox_valid
 200              	.LVL15:
 201              		.loc 1 246 6 discriminator 3 view .LVU44
 202 0032 70B3     		cbz	r0, .L29
 247:ThirdPackage/lwip220/api/api_msg.c **** #endif /* LWIP_SO_RCVBUF */
 248:ThirdPackage/lwip220/api/api_msg.c ****     pbuf_free(p);
 249:ThirdPackage/lwip220/api/api_msg.c ****     return;
 250:ThirdPackage/lwip220/api/api_msg.c ****   }
 251:ThirdPackage/lwip220/api/api_msg.c **** 
 252:ThirdPackage/lwip220/api/api_msg.c ****   buf = (struct netbuf *)memp_malloc(MEMP_NETBUF);
 203              		.loc 1 252 3 is_stmt 1 view .LVU45
 204              		.loc 1 252 26 is_stmt 0 view .LVU46
 205 0034 0620     		movs	r0, #6
 206 0036 FFF7FEFF 		bl	memp_malloc
 207              	.LVL16:
 253:ThirdPackage/lwip220/api/api_msg.c ****   if (buf == NULL) {
 208              		.loc 1 253 3 is_stmt 1 view .LVU47
 209              		.loc 1 253 6 is_stmt 0 view .LVU48
 210 003a 0646     		mov	r6, r0
 211              	.LVL17:
 212              		.loc 1 253 6 view .LVU49
 213 003c 70B3     		cbz	r0, .L30
 254:ThirdPackage/lwip220/api/api_msg.c ****     pbuf_free(p);
 255:ThirdPackage/lwip220/api/api_msg.c ****     return;
 256:ThirdPackage/lwip220/api/api_msg.c ****   } else {
 257:ThirdPackage/lwip220/api/api_msg.c ****     buf->p = p;
 214              		.loc 1 257 5 is_stmt 1 view .LVU50
 215              		.loc 1 257 12 is_stmt 0 view .LVU51
 216 003e 0560     		str	r5, [r0]
 258:ThirdPackage/lwip220/api/api_msg.c ****     buf->ptr = p;
 217              		.loc 1 258 5 is_stmt 1 view .LVU52
 218              		.loc 1 258 14 is_stmt 0 view .LVU53
 219 0040 4560     		str	r5, [r0, #4]
 259:ThirdPackage/lwip220/api/api_msg.c ****     ip_addr_set(&buf->addr, addr);
 220              		.loc 1 259 5 is_stmt 1 view .LVU54
 221 0042 B8F1000F 		cmp	r8, #0
 222 0046 2DD0     		beq	.L24
 223              		.loc 1 259 5 is_stmt 0 discriminator 1 view .LVU55
ARM GAS  C:\Users\86188\AppData\Local\Temp\cccggEfL.s 			page 10


 224 0048 D8F80030 		ldr	r3, [r8]
 225              	.L22:
 226              		.loc 1 259 5 discriminator 4 view .LVU56
 227 004c B360     		str	r3, [r6, #8]
 260:ThirdPackage/lwip220/api/api_msg.c ****     buf->port = port;
 228              		.loc 1 260 5 is_stmt 1 discriminator 4 view .LVU57
 229              		.loc 1 260 15 is_stmt 0 discriminator 4 view .LVU58
 230 004e BDF81830 		ldrh	r3, [sp, #24]
 231 0052 B381     		strh	r3, [r6, #12]	@ movhi
 261:ThirdPackage/lwip220/api/api_msg.c **** #if LWIP_NETBUF_RECVINFO
 262:ThirdPackage/lwip220/api/api_msg.c ****     if (conn->flags & NETCONN_FLAG_PKTINFO) {
 263:ThirdPackage/lwip220/api/api_msg.c ****       /* get the UDP header - always in the first pbuf, ensured by udp_input */
 264:ThirdPackage/lwip220/api/api_msg.c ****       const struct udp_hdr *udphdr = (const struct udp_hdr *)ip_next_header_ptr();
 265:ThirdPackage/lwip220/api/api_msg.c ****       buf->flags = NETBUF_FLAG_DESTADDR;
 266:ThirdPackage/lwip220/api/api_msg.c ****       ip_addr_set(&buf->toaddr, ip_current_dest_addr());
 267:ThirdPackage/lwip220/api/api_msg.c ****       buf->toport_chksum = udphdr->dest;
 268:ThirdPackage/lwip220/api/api_msg.c ****     }
 269:ThirdPackage/lwip220/api/api_msg.c **** #endif /* LWIP_NETBUF_RECVINFO */
 270:ThirdPackage/lwip220/api/api_msg.c ****   }
 271:ThirdPackage/lwip220/api/api_msg.c **** 
 272:ThirdPackage/lwip220/api/api_msg.c ****   len = p->tot_len;
 232              		.loc 1 272 3 is_stmt 1 discriminator 4 view .LVU59
 233              		.loc 1 272 7 is_stmt 0 discriminator 4 view .LVU60
 234 0054 2D89     		ldrh	r5, [r5, #8]
 235              	.LVL18:
 273:ThirdPackage/lwip220/api/api_msg.c ****   err = sys_mbox_trypost(&conn->recvmbox, buf);
 236              		.loc 1 273 3 is_stmt 1 discriminator 4 view .LVU61
 237              		.loc 1 273 9 is_stmt 0 discriminator 4 view .LVU62
 238 0056 3146     		mov	r1, r6
 239 0058 3846     		mov	r0, r7
 240              	.LVL19:
 241              		.loc 1 273 9 discriminator 4 view .LVU63
 242 005a FFF7FEFF 		bl	sys_mbox_trypost
 243              	.LVL20:
 274:ThirdPackage/lwip220/api/api_msg.c ****   if (err != ERR_OK) {
 244              		.loc 1 274 3 is_stmt 1 discriminator 4 view .LVU64
 245              		.loc 1 274 6 is_stmt 0 discriminator 4 view .LVU65
 246 005e 18BB     		cbnz	r0, .L31
 275:ThirdPackage/lwip220/api/api_msg.c ****     netbuf_delete(buf);
 276:ThirdPackage/lwip220/api/api_msg.c ****     LWIP_DEBUGF(API_MSG_DEBUG, ("recv_udp: sys_mbox_trypost failed, err=%d\n", err));
 277:ThirdPackage/lwip220/api/api_msg.c ****     return;
 278:ThirdPackage/lwip220/api/api_msg.c ****   } else {
 279:ThirdPackage/lwip220/api/api_msg.c **** #if LWIP_SO_RCVBUF
 280:ThirdPackage/lwip220/api/api_msg.c ****     SYS_ARCH_INC(conn->recv_avail, len);
 281:ThirdPackage/lwip220/api/api_msg.c **** #endif /* LWIP_SO_RCVBUF */
 282:ThirdPackage/lwip220/api/api_msg.c ****     /* Register event with callback */
 283:ThirdPackage/lwip220/api/api_msg.c ****     API_EVENT(conn, NETCONN_EVT_RCVPLUS, len);
 247              		.loc 1 283 5 is_stmt 1 view .LVU66
 248 0060 636A     		ldr	r3, [r4, #36]
 249 0062 CBB1     		cbz	r3, .L14
 250              		.loc 1 283 5 discriminator 1 view .LVU67
 251 0064 2A46     		mov	r2, r5
 252 0066 0021     		movs	r1, #0
 253 0068 2046     		mov	r0, r4
 254              	.LVL21:
 255              		.loc 1 283 5 is_stmt 0 discriminator 1 view .LVU68
 256 006a 9847     		blx	r3
ARM GAS  C:\Users\86188\AppData\Local\Temp\cccggEfL.s 			page 11


 257              	.LVL22:
 258              		.loc 1 283 46 is_stmt 1 discriminator 1 view .LVU69
 259 006c 14E0     		b	.L14
 260              	.LVL23:
 261              	.L26:
 230:ThirdPackage/lwip220/api/api_msg.c ****   LWIP_ASSERT("recv_udp must have an argument", arg != NULL);
 262              		.loc 1 230 3 discriminator 1 view .LVU70
 230:ThirdPackage/lwip220/api/api_msg.c ****   LWIP_ASSERT("recv_udp must have an argument", arg != NULL);
 263              		.loc 1 230 3 discriminator 1 view .LVU71
 264 006e 104B     		ldr	r3, .L32
 265              	.LVL24:
 230:ThirdPackage/lwip220/api/api_msg.c ****   LWIP_ASSERT("recv_udp must have an argument", arg != NULL);
 266              		.loc 1 230 3 is_stmt 0 discriminator 1 view .LVU72
 267 0070 E622     		movs	r2, #230
 268              	.LVL25:
 230:ThirdPackage/lwip220/api/api_msg.c ****   LWIP_ASSERT("recv_udp must have an argument", arg != NULL);
 269              		.loc 1 230 3 discriminator 1 view .LVU73
 270 0072 1249     		ldr	r1, .L32+12
 271              	.LVL26:
 230:ThirdPackage/lwip220/api/api_msg.c ****   LWIP_ASSERT("recv_udp must have an argument", arg != NULL);
 272              		.loc 1 230 3 discriminator 1 view .LVU74
 273 0074 1048     		ldr	r0, .L32+8
 274              	.LVL27:
 230:ThirdPackage/lwip220/api/api_msg.c ****   LWIP_ASSERT("recv_udp must have an argument", arg != NULL);
 275              		.loc 1 230 3 discriminator 1 view .LVU75
 276 0076 FFF7FEFF 		bl	printf
 277              	.LVL28:
 278 007a C8E7     		b	.L15
 279              	.L27:
 231:ThirdPackage/lwip220/api/api_msg.c ****   conn = (struct netconn *)arg;
 280              		.loc 1 231 3 is_stmt 1 discriminator 1 view .LVU76
 231:ThirdPackage/lwip220/api/api_msg.c ****   conn = (struct netconn *)arg;
 281              		.loc 1 231 3 discriminator 1 view .LVU77
 282 007c 0C4B     		ldr	r3, .L32
 283 007e E722     		movs	r2, #231
 284 0080 0F49     		ldr	r1, .L32+16
 285 0082 0D48     		ldr	r0, .L32+8
 286 0084 FFF7FEFF 		bl	printf
 287              	.LVL29:
 288 0088 C3E7     		b	.L16
 289              	.LVL30:
 290              	.L28:
 235:ThirdPackage/lwip220/api/api_msg.c ****     return;
 291              		.loc 1 235 5 view .LVU78
 292 008a 2846     		mov	r0, r5
 293 008c FFF7FEFF 		bl	pbuf_free
 294              	.LVL31:
 236:ThirdPackage/lwip220/api/api_msg.c ****   }
 295              		.loc 1 236 5 view .LVU79
 296 0090 02E0     		b	.L14
 297              	.L29:
 248:ThirdPackage/lwip220/api/api_msg.c ****     return;
 298              		.loc 1 248 5 view .LVU80
 299 0092 2846     		mov	r0, r5
 300 0094 FFF7FEFF 		bl	pbuf_free
 301              	.LVL32:
 249:ThirdPackage/lwip220/api/api_msg.c ****   }
ARM GAS  C:\Users\86188\AppData\Local\Temp\cccggEfL.s 			page 12


 302              		.loc 1 249 5 view .LVU81
 303              	.L14:
 284:ThirdPackage/lwip220/api/api_msg.c ****   }
 285:ThirdPackage/lwip220/api/api_msg.c **** }
 304              		.loc 1 285 1 is_stmt 0 view .LVU82
 305 0098 BDE8F081 		pop	{r4, r5, r6, r7, r8, pc}
 306              	.LVL33:
 307              	.L30:
 254:ThirdPackage/lwip220/api/api_msg.c ****     return;
 308              		.loc 1 254 5 is_stmt 1 view .LVU83
 309 009c 2846     		mov	r0, r5
 310              	.LVL34:
 254:ThirdPackage/lwip220/api/api_msg.c ****     return;
 311              		.loc 1 254 5 is_stmt 0 view .LVU84
 312 009e FFF7FEFF 		bl	pbuf_free
 313              	.LVL35:
 255:ThirdPackage/lwip220/api/api_msg.c ****   } else {
 314              		.loc 1 255 5 is_stmt 1 view .LVU85
 315 00a2 F9E7     		b	.L14
 316              	.LVL36:
 317              	.L24:
 259:ThirdPackage/lwip220/api/api_msg.c ****     buf->port = port;
 318              		.loc 1 259 5 is_stmt 0 view .LVU86
 319 00a4 0023     		movs	r3, #0
 320 00a6 D1E7     		b	.L22
 321              	.LVL37:
 322              	.L31:
 275:ThirdPackage/lwip220/api/api_msg.c ****     LWIP_DEBUGF(API_MSG_DEBUG, ("recv_udp: sys_mbox_trypost failed, err=%d\n", err));
 323              		.loc 1 275 5 is_stmt 1 view .LVU87
 324 00a8 3046     		mov	r0, r6
 325              	.LVL38:
 275:ThirdPackage/lwip220/api/api_msg.c ****     LWIP_DEBUGF(API_MSG_DEBUG, ("recv_udp: sys_mbox_trypost failed, err=%d\n", err));
 326              		.loc 1 275 5 is_stmt 0 view .LVU88
 327 00aa FFF7FEFF 		bl	netbuf_delete
 328              	.LVL39:
 276:ThirdPackage/lwip220/api/api_msg.c ****     return;
 329              		.loc 1 276 85 is_stmt 1 view .LVU89
 277:ThirdPackage/lwip220/api/api_msg.c ****   } else {
 330              		.loc 1 277 5 view .LVU90
 331 00ae F3E7     		b	.L14
 332              	.L33:
 333              		.align	2
 334              	.L32:
 335 00b0 00000000 		.word	.LC0
 336 00b4 44000000 		.word	.LC5
 337 00b8 34000000 		.word	.LC2
 338 00bc 00000000 		.word	.LC3
 339 00c0 24000000 		.word	.LC4
 340              		.cfi_endproc
 341              	.LFE162:
 343              		.section	.text.setup_tcp,"ax",%progbits
 344              		.align	1
 345              		.syntax unified
 346              		.thumb
 347              		.thumb_func
 349              	setup_tcp:
 350              	.LVL40:
ARM GAS  C:\Users\86188\AppData\Local\Temp\cccggEfL.s 			page 13


 351              	.LFB167:
 286:ThirdPackage/lwip220/api/api_msg.c **** #endif /* LWIP_UDP */
 287:ThirdPackage/lwip220/api/api_msg.c **** 
 288:ThirdPackage/lwip220/api/api_msg.c **** #if LWIP_TCP
 289:ThirdPackage/lwip220/api/api_msg.c **** /**
 290:ThirdPackage/lwip220/api/api_msg.c ****  * Receive callback function for TCP netconns.
 291:ThirdPackage/lwip220/api/api_msg.c ****  * Posts the packet to conn->recvmbox, but doesn't delete it on errors.
 292:ThirdPackage/lwip220/api/api_msg.c ****  *
 293:ThirdPackage/lwip220/api/api_msg.c ****  * @see tcp.h (struct tcp_pcb.recv) for parameters and return value
 294:ThirdPackage/lwip220/api/api_msg.c ****  */
 295:ThirdPackage/lwip220/api/api_msg.c **** static err_t
 296:ThirdPackage/lwip220/api/api_msg.c **** recv_tcp(void *arg, struct tcp_pcb *pcb, struct pbuf *p, err_t err)
 297:ThirdPackage/lwip220/api/api_msg.c **** {
 298:ThirdPackage/lwip220/api/api_msg.c ****   struct netconn *conn;
 299:ThirdPackage/lwip220/api/api_msg.c ****   u16_t len;
 300:ThirdPackage/lwip220/api/api_msg.c ****   void *msg;
 301:ThirdPackage/lwip220/api/api_msg.c **** 
 302:ThirdPackage/lwip220/api/api_msg.c ****   LWIP_UNUSED_ARG(pcb);
 303:ThirdPackage/lwip220/api/api_msg.c ****   LWIP_ASSERT("recv_tcp must have a pcb argument", pcb != NULL);
 304:ThirdPackage/lwip220/api/api_msg.c ****   LWIP_ASSERT("recv_tcp must have an argument", arg != NULL);
 305:ThirdPackage/lwip220/api/api_msg.c ****   LWIP_ASSERT("err != ERR_OK unhandled", err == ERR_OK);
 306:ThirdPackage/lwip220/api/api_msg.c ****   LWIP_UNUSED_ARG(err); /* for LWIP_NOASSERT */
 307:ThirdPackage/lwip220/api/api_msg.c ****   conn = (struct netconn *)arg;
 308:ThirdPackage/lwip220/api/api_msg.c **** 
 309:ThirdPackage/lwip220/api/api_msg.c ****   if (conn == NULL) {
 310:ThirdPackage/lwip220/api/api_msg.c ****     return ERR_VAL;
 311:ThirdPackage/lwip220/api/api_msg.c ****   }
 312:ThirdPackage/lwip220/api/api_msg.c ****   LWIP_ASSERT("recv_tcp: recv for wrong pcb!", conn->pcb.tcp == pcb);
 313:ThirdPackage/lwip220/api/api_msg.c **** 
 314:ThirdPackage/lwip220/api/api_msg.c ****   if (!NETCONN_MBOX_VALID(conn, &conn->recvmbox)) {
 315:ThirdPackage/lwip220/api/api_msg.c ****     /* recvmbox already deleted */
 316:ThirdPackage/lwip220/api/api_msg.c ****     if (p != NULL) {
 317:ThirdPackage/lwip220/api/api_msg.c ****       tcp_recved(pcb, p->tot_len);
 318:ThirdPackage/lwip220/api/api_msg.c ****       pbuf_free(p);
 319:ThirdPackage/lwip220/api/api_msg.c ****     }
 320:ThirdPackage/lwip220/api/api_msg.c ****     return ERR_OK;
 321:ThirdPackage/lwip220/api/api_msg.c ****   }
 322:ThirdPackage/lwip220/api/api_msg.c ****   /* Unlike for UDP or RAW pcbs, don't check for available space
 323:ThirdPackage/lwip220/api/api_msg.c ****      using recv_avail since that could break the connection
 324:ThirdPackage/lwip220/api/api_msg.c ****      (data is already ACKed) */
 325:ThirdPackage/lwip220/api/api_msg.c **** 
 326:ThirdPackage/lwip220/api/api_msg.c ****   if (p != NULL) {
 327:ThirdPackage/lwip220/api/api_msg.c ****     msg = p;
 328:ThirdPackage/lwip220/api/api_msg.c ****     len = p->tot_len;
 329:ThirdPackage/lwip220/api/api_msg.c ****   } else {
 330:ThirdPackage/lwip220/api/api_msg.c ****     msg = LWIP_CONST_CAST(void *, &netconn_closed);
 331:ThirdPackage/lwip220/api/api_msg.c ****     len = 0;
 332:ThirdPackage/lwip220/api/api_msg.c ****   }
 333:ThirdPackage/lwip220/api/api_msg.c **** 
 334:ThirdPackage/lwip220/api/api_msg.c ****   if (sys_mbox_trypost(&conn->recvmbox, msg) != ERR_OK) {
 335:ThirdPackage/lwip220/api/api_msg.c ****     /* don't deallocate p: it is presented to us later again from tcp_fasttmr! */
 336:ThirdPackage/lwip220/api/api_msg.c ****     return ERR_MEM;
 337:ThirdPackage/lwip220/api/api_msg.c ****   } else {
 338:ThirdPackage/lwip220/api/api_msg.c **** #if LWIP_SO_RCVBUF
 339:ThirdPackage/lwip220/api/api_msg.c ****     SYS_ARCH_INC(conn->recv_avail, len);
 340:ThirdPackage/lwip220/api/api_msg.c **** #endif /* LWIP_SO_RCVBUF */
 341:ThirdPackage/lwip220/api/api_msg.c ****     /* Register event with callback */
ARM GAS  C:\Users\86188\AppData\Local\Temp\cccggEfL.s 			page 14


 342:ThirdPackage/lwip220/api/api_msg.c ****     API_EVENT(conn, NETCONN_EVT_RCVPLUS, len);
 343:ThirdPackage/lwip220/api/api_msg.c ****   }
 344:ThirdPackage/lwip220/api/api_msg.c **** 
 345:ThirdPackage/lwip220/api/api_msg.c ****   return ERR_OK;
 346:ThirdPackage/lwip220/api/api_msg.c **** }
 347:ThirdPackage/lwip220/api/api_msg.c **** 
 348:ThirdPackage/lwip220/api/api_msg.c **** /**
 349:ThirdPackage/lwip220/api/api_msg.c ****  * Poll callback function for TCP netconns.
 350:ThirdPackage/lwip220/api/api_msg.c ****  * Wakes up an application thread that waits for a connection to close
 351:ThirdPackage/lwip220/api/api_msg.c ****  * or data to be sent. The application thread then takes the
 352:ThirdPackage/lwip220/api/api_msg.c ****  * appropriate action to go on.
 353:ThirdPackage/lwip220/api/api_msg.c ****  *
 354:ThirdPackage/lwip220/api/api_msg.c ****  * Signals the conn->sem.
 355:ThirdPackage/lwip220/api/api_msg.c ****  * netconn_close waits for conn->sem if closing failed.
 356:ThirdPackage/lwip220/api/api_msg.c ****  *
 357:ThirdPackage/lwip220/api/api_msg.c ****  * @see tcp.h (struct tcp_pcb.poll) for parameters and return value
 358:ThirdPackage/lwip220/api/api_msg.c ****  */
 359:ThirdPackage/lwip220/api/api_msg.c **** static err_t
 360:ThirdPackage/lwip220/api/api_msg.c **** poll_tcp(void *arg, struct tcp_pcb *pcb)
 361:ThirdPackage/lwip220/api/api_msg.c **** {
 362:ThirdPackage/lwip220/api/api_msg.c ****   struct netconn *conn = (struct netconn *)arg;
 363:ThirdPackage/lwip220/api/api_msg.c **** 
 364:ThirdPackage/lwip220/api/api_msg.c ****   LWIP_UNUSED_ARG(pcb);
 365:ThirdPackage/lwip220/api/api_msg.c ****   LWIP_ASSERT("conn != NULL", (conn != NULL));
 366:ThirdPackage/lwip220/api/api_msg.c **** 
 367:ThirdPackage/lwip220/api/api_msg.c ****   if (conn->state == NETCONN_WRITE) {
 368:ThirdPackage/lwip220/api/api_msg.c ****     lwip_netconn_do_writemore(conn  WRITE_DELAYED);
 369:ThirdPackage/lwip220/api/api_msg.c ****   } else if (conn->state == NETCONN_CLOSE) {
 370:ThirdPackage/lwip220/api/api_msg.c **** #if !LWIP_SO_SNDTIMEO && !LWIP_SO_LINGER
 371:ThirdPackage/lwip220/api/api_msg.c ****     if (conn->current_msg && conn->current_msg->msg.sd.polls_left) {
 372:ThirdPackage/lwip220/api/api_msg.c ****       conn->current_msg->msg.sd.polls_left--;
 373:ThirdPackage/lwip220/api/api_msg.c ****     }
 374:ThirdPackage/lwip220/api/api_msg.c **** #endif /* !LWIP_SO_SNDTIMEO && !LWIP_SO_LINGER */
 375:ThirdPackage/lwip220/api/api_msg.c ****     lwip_netconn_do_close_internal(conn  WRITE_DELAYED);
 376:ThirdPackage/lwip220/api/api_msg.c ****   }
 377:ThirdPackage/lwip220/api/api_msg.c ****   /* @todo: implement connect timeout here? */
 378:ThirdPackage/lwip220/api/api_msg.c **** 
 379:ThirdPackage/lwip220/api/api_msg.c ****   /* Did a nonblocking write fail before? Then check available write-space. */
 380:ThirdPackage/lwip220/api/api_msg.c ****   if (conn->flags & NETCONN_FLAG_CHECK_WRITESPACE) {
 381:ThirdPackage/lwip220/api/api_msg.c ****     /* If the queued byte- or pbuf-count drops below the configured low-water limit,
 382:ThirdPackage/lwip220/api/api_msg.c ****        let select mark this pcb as writable again. */
 383:ThirdPackage/lwip220/api/api_msg.c ****     if ((conn->pcb.tcp != NULL) && (tcp_sndbuf(conn->pcb.tcp) > TCP_SNDLOWAT) &&
 384:ThirdPackage/lwip220/api/api_msg.c ****         (tcp_sndqueuelen(conn->pcb.tcp) < TCP_SNDQUEUELOWAT)) {
 385:ThirdPackage/lwip220/api/api_msg.c ****       netconn_clear_flags(conn, NETCONN_FLAG_CHECK_WRITESPACE);
 386:ThirdPackage/lwip220/api/api_msg.c ****       API_EVENT(conn, NETCONN_EVT_SENDPLUS, 0);
 387:ThirdPackage/lwip220/api/api_msg.c ****     }
 388:ThirdPackage/lwip220/api/api_msg.c ****   }
 389:ThirdPackage/lwip220/api/api_msg.c **** 
 390:ThirdPackage/lwip220/api/api_msg.c ****   return ERR_OK;
 391:ThirdPackage/lwip220/api/api_msg.c **** }
 392:ThirdPackage/lwip220/api/api_msg.c **** 
 393:ThirdPackage/lwip220/api/api_msg.c **** /**
 394:ThirdPackage/lwip220/api/api_msg.c ****  * Sent callback function for TCP netconns.
 395:ThirdPackage/lwip220/api/api_msg.c ****  * Signals the conn->sem and calls API_EVENT.
 396:ThirdPackage/lwip220/api/api_msg.c ****  * netconn_write waits for conn->sem if send buffer is low.
 397:ThirdPackage/lwip220/api/api_msg.c ****  *
 398:ThirdPackage/lwip220/api/api_msg.c ****  * @see tcp.h (struct tcp_pcb.sent) for parameters and return value
ARM GAS  C:\Users\86188\AppData\Local\Temp\cccggEfL.s 			page 15


 399:ThirdPackage/lwip220/api/api_msg.c ****  */
 400:ThirdPackage/lwip220/api/api_msg.c **** static err_t
 401:ThirdPackage/lwip220/api/api_msg.c **** sent_tcp(void *arg, struct tcp_pcb *pcb, u16_t len)
 402:ThirdPackage/lwip220/api/api_msg.c **** {
 403:ThirdPackage/lwip220/api/api_msg.c ****   struct netconn *conn = (struct netconn *)arg;
 404:ThirdPackage/lwip220/api/api_msg.c **** 
 405:ThirdPackage/lwip220/api/api_msg.c ****   LWIP_UNUSED_ARG(pcb);
 406:ThirdPackage/lwip220/api/api_msg.c ****   LWIP_ASSERT("conn != NULL", (conn != NULL));
 407:ThirdPackage/lwip220/api/api_msg.c **** 
 408:ThirdPackage/lwip220/api/api_msg.c ****   if (conn) {
 409:ThirdPackage/lwip220/api/api_msg.c ****     if (conn->state == NETCONN_WRITE) {
 410:ThirdPackage/lwip220/api/api_msg.c ****       lwip_netconn_do_writemore(conn  WRITE_DELAYED);
 411:ThirdPackage/lwip220/api/api_msg.c ****     } else if (conn->state == NETCONN_CLOSE) {
 412:ThirdPackage/lwip220/api/api_msg.c ****       lwip_netconn_do_close_internal(conn  WRITE_DELAYED);
 413:ThirdPackage/lwip220/api/api_msg.c ****     }
 414:ThirdPackage/lwip220/api/api_msg.c **** 
 415:ThirdPackage/lwip220/api/api_msg.c ****     /* If the queued byte- or pbuf-count drops below the configured low-water limit,
 416:ThirdPackage/lwip220/api/api_msg.c ****        let select mark this pcb as writable again. */
 417:ThirdPackage/lwip220/api/api_msg.c ****     if ((conn->pcb.tcp != NULL) && (tcp_sndbuf(conn->pcb.tcp) > TCP_SNDLOWAT) &&
 418:ThirdPackage/lwip220/api/api_msg.c ****         (tcp_sndqueuelen(conn->pcb.tcp) < TCP_SNDQUEUELOWAT)) {
 419:ThirdPackage/lwip220/api/api_msg.c ****       netconn_clear_flags(conn, NETCONN_FLAG_CHECK_WRITESPACE);
 420:ThirdPackage/lwip220/api/api_msg.c ****       API_EVENT(conn, NETCONN_EVT_SENDPLUS, len);
 421:ThirdPackage/lwip220/api/api_msg.c ****     }
 422:ThirdPackage/lwip220/api/api_msg.c ****   }
 423:ThirdPackage/lwip220/api/api_msg.c **** 
 424:ThirdPackage/lwip220/api/api_msg.c ****   return ERR_OK;
 425:ThirdPackage/lwip220/api/api_msg.c **** }
 426:ThirdPackage/lwip220/api/api_msg.c **** 
 427:ThirdPackage/lwip220/api/api_msg.c **** /**
 428:ThirdPackage/lwip220/api/api_msg.c ****  * Error callback function for TCP netconns.
 429:ThirdPackage/lwip220/api/api_msg.c ****  * Signals conn->sem, posts to all conn mboxes and calls API_EVENT.
 430:ThirdPackage/lwip220/api/api_msg.c ****  * The application thread has then to decide what to do.
 431:ThirdPackage/lwip220/api/api_msg.c ****  *
 432:ThirdPackage/lwip220/api/api_msg.c ****  * @see tcp.h (struct tcp_pcb.err) for parameters
 433:ThirdPackage/lwip220/api/api_msg.c ****  */
 434:ThirdPackage/lwip220/api/api_msg.c **** static void
 435:ThirdPackage/lwip220/api/api_msg.c **** err_tcp(void *arg, err_t err)
 436:ThirdPackage/lwip220/api/api_msg.c **** {
 437:ThirdPackage/lwip220/api/api_msg.c ****   struct netconn *conn;
 438:ThirdPackage/lwip220/api/api_msg.c ****   enum netconn_state old_state;
 439:ThirdPackage/lwip220/api/api_msg.c ****   void *mbox_msg;
 440:ThirdPackage/lwip220/api/api_msg.c ****   SYS_ARCH_DECL_PROTECT(lev);
 441:ThirdPackage/lwip220/api/api_msg.c **** 
 442:ThirdPackage/lwip220/api/api_msg.c ****   conn = (struct netconn *)arg;
 443:ThirdPackage/lwip220/api/api_msg.c ****   LWIP_ASSERT("conn != NULL", (conn != NULL));
 444:ThirdPackage/lwip220/api/api_msg.c **** 
 445:ThirdPackage/lwip220/api/api_msg.c ****   SYS_ARCH_PROTECT(lev);
 446:ThirdPackage/lwip220/api/api_msg.c **** 
 447:ThirdPackage/lwip220/api/api_msg.c ****   /* when err is called, the pcb is deallocated, so delete the reference */
 448:ThirdPackage/lwip220/api/api_msg.c ****   conn->pcb.tcp = NULL;
 449:ThirdPackage/lwip220/api/api_msg.c ****   /* store pending error */
 450:ThirdPackage/lwip220/api/api_msg.c ****   conn->pending_err = err;
 451:ThirdPackage/lwip220/api/api_msg.c ****   /* prevent application threads from blocking on 'recvmbox'/'acceptmbox' */
 452:ThirdPackage/lwip220/api/api_msg.c ****   conn->flags |= NETCONN_FLAG_MBOXCLOSED;
 453:ThirdPackage/lwip220/api/api_msg.c **** 
 454:ThirdPackage/lwip220/api/api_msg.c ****   /* reset conn->state now before waking up other threads */
 455:ThirdPackage/lwip220/api/api_msg.c ****   old_state = conn->state;
ARM GAS  C:\Users\86188\AppData\Local\Temp\cccggEfL.s 			page 16


 456:ThirdPackage/lwip220/api/api_msg.c ****   conn->state = NETCONN_NONE;
 457:ThirdPackage/lwip220/api/api_msg.c **** 
 458:ThirdPackage/lwip220/api/api_msg.c ****   SYS_ARCH_UNPROTECT(lev);
 459:ThirdPackage/lwip220/api/api_msg.c **** 
 460:ThirdPackage/lwip220/api/api_msg.c ****   /* Notify the user layer about a connection error. Used to signal select. */
 461:ThirdPackage/lwip220/api/api_msg.c ****   API_EVENT(conn, NETCONN_EVT_ERROR, 0);
 462:ThirdPackage/lwip220/api/api_msg.c ****   /* Try to release selects pending on 'read' or 'write', too.
 463:ThirdPackage/lwip220/api/api_msg.c ****      They will get an error if they actually try to read or write. */
 464:ThirdPackage/lwip220/api/api_msg.c ****   API_EVENT(conn, NETCONN_EVT_RCVPLUS, 0);
 465:ThirdPackage/lwip220/api/api_msg.c ****   API_EVENT(conn, NETCONN_EVT_SENDPLUS, 0);
 466:ThirdPackage/lwip220/api/api_msg.c **** 
 467:ThirdPackage/lwip220/api/api_msg.c ****   mbox_msg = lwip_netconn_err_to_msg(err);
 468:ThirdPackage/lwip220/api/api_msg.c ****   /* pass error message to recvmbox to wake up pending recv */
 469:ThirdPackage/lwip220/api/api_msg.c ****   if (NETCONN_MBOX_VALID(conn, &conn->recvmbox)) {
 470:ThirdPackage/lwip220/api/api_msg.c ****     /* use trypost to prevent deadlock */
 471:ThirdPackage/lwip220/api/api_msg.c ****     sys_mbox_trypost(&conn->recvmbox, mbox_msg);
 472:ThirdPackage/lwip220/api/api_msg.c ****   }
 473:ThirdPackage/lwip220/api/api_msg.c ****   /* pass error message to acceptmbox to wake up pending accept */
 474:ThirdPackage/lwip220/api/api_msg.c ****   if (NETCONN_MBOX_VALID(conn, &conn->acceptmbox)) {
 475:ThirdPackage/lwip220/api/api_msg.c ****     /* use trypost to prevent deadlock */
 476:ThirdPackage/lwip220/api/api_msg.c ****     sys_mbox_trypost(&conn->acceptmbox, mbox_msg);
 477:ThirdPackage/lwip220/api/api_msg.c ****   }
 478:ThirdPackage/lwip220/api/api_msg.c **** 
 479:ThirdPackage/lwip220/api/api_msg.c ****   if ((old_state == NETCONN_WRITE) || (old_state == NETCONN_CLOSE) ||
 480:ThirdPackage/lwip220/api/api_msg.c ****       (old_state == NETCONN_CONNECT)) {
 481:ThirdPackage/lwip220/api/api_msg.c ****     /* calling lwip_netconn_do_writemore/lwip_netconn_do_close_internal is not necessary
 482:ThirdPackage/lwip220/api/api_msg.c ****        since the pcb has already been deleted! */
 483:ThirdPackage/lwip220/api/api_msg.c ****     int was_nonblocking_connect = IN_NONBLOCKING_CONNECT(conn);
 484:ThirdPackage/lwip220/api/api_msg.c ****     SET_NONBLOCKING_CONNECT(conn, 0);
 485:ThirdPackage/lwip220/api/api_msg.c **** 
 486:ThirdPackage/lwip220/api/api_msg.c ****     if (!was_nonblocking_connect) {
 487:ThirdPackage/lwip220/api/api_msg.c ****       sys_sem_t *op_completed_sem;
 488:ThirdPackage/lwip220/api/api_msg.c ****       /* set error return code */
 489:ThirdPackage/lwip220/api/api_msg.c ****       LWIP_ASSERT("conn->current_msg != NULL", conn->current_msg != NULL);
 490:ThirdPackage/lwip220/api/api_msg.c ****       if (old_state == NETCONN_CLOSE) {
 491:ThirdPackage/lwip220/api/api_msg.c ****         /* let close succeed: the connection is closed after all... */
 492:ThirdPackage/lwip220/api/api_msg.c ****         conn->current_msg->err = ERR_OK;
 493:ThirdPackage/lwip220/api/api_msg.c ****       } else {
 494:ThirdPackage/lwip220/api/api_msg.c ****         /* Write and connect fail */
 495:ThirdPackage/lwip220/api/api_msg.c ****         conn->current_msg->err = err;
 496:ThirdPackage/lwip220/api/api_msg.c ****       }
 497:ThirdPackage/lwip220/api/api_msg.c ****       op_completed_sem = LWIP_API_MSG_SEM(conn->current_msg);
 498:ThirdPackage/lwip220/api/api_msg.c ****       LWIP_ASSERT("invalid op_completed_sem", sys_sem_valid(op_completed_sem));
 499:ThirdPackage/lwip220/api/api_msg.c ****       conn->current_msg = NULL;
 500:ThirdPackage/lwip220/api/api_msg.c ****       /* wake up the waiting task */
 501:ThirdPackage/lwip220/api/api_msg.c ****       sys_sem_signal(op_completed_sem);
 502:ThirdPackage/lwip220/api/api_msg.c ****     } else {
 503:ThirdPackage/lwip220/api/api_msg.c ****       /* @todo: test what happens for error on nonblocking connect */
 504:ThirdPackage/lwip220/api/api_msg.c ****     }
 505:ThirdPackage/lwip220/api/api_msg.c ****   } else {
 506:ThirdPackage/lwip220/api/api_msg.c ****     LWIP_ASSERT("conn->current_msg == NULL", conn->current_msg == NULL);
 507:ThirdPackage/lwip220/api/api_msg.c ****   }
 508:ThirdPackage/lwip220/api/api_msg.c **** }
 509:ThirdPackage/lwip220/api/api_msg.c **** 
 510:ThirdPackage/lwip220/api/api_msg.c **** /**
 511:ThirdPackage/lwip220/api/api_msg.c ****  * Setup a tcp_pcb with the correct callback function pointers
 512:ThirdPackage/lwip220/api/api_msg.c ****  * and their arguments.
ARM GAS  C:\Users\86188\AppData\Local\Temp\cccggEfL.s 			page 17


 513:ThirdPackage/lwip220/api/api_msg.c ****  *
 514:ThirdPackage/lwip220/api/api_msg.c ****  * @param conn the TCP netconn to setup
 515:ThirdPackage/lwip220/api/api_msg.c ****  */
 516:ThirdPackage/lwip220/api/api_msg.c **** static void
 517:ThirdPackage/lwip220/api/api_msg.c **** setup_tcp(struct netconn *conn)
 518:ThirdPackage/lwip220/api/api_msg.c **** {
 352              		.loc 1 518 1 view -0
 353              		.cfi_startproc
 354              		@ args = 0, pretend = 0, frame = 0
 355              		@ frame_needed = 0, uses_anonymous_args = 0
 356              		.loc 1 518 1 is_stmt 0 view .LVU92
 357 0000 10B5     		push	{r4, lr}
 358              	.LCFI3:
 359              		.cfi_def_cfa_offset 8
 360              		.cfi_offset 4, -8
 361              		.cfi_offset 14, -4
 362 0002 0146     		mov	r1, r0
 519:ThirdPackage/lwip220/api/api_msg.c ****   struct tcp_pcb *pcb;
 363              		.loc 1 519 3 is_stmt 1 view .LVU93
 520:ThirdPackage/lwip220/api/api_msg.c **** 
 521:ThirdPackage/lwip220/api/api_msg.c ****   pcb = conn->pcb.tcp;
 364              		.loc 1 521 3 view .LVU94
 365              		.loc 1 521 7 is_stmt 0 view .LVU95
 366 0004 4468     		ldr	r4, [r0, #4]
 367              	.LVL41:
 522:ThirdPackage/lwip220/api/api_msg.c ****   tcp_arg(pcb, conn);
 368              		.loc 1 522 3 is_stmt 1 view .LVU96
 369 0006 2046     		mov	r0, r4
 370              	.LVL42:
 371              		.loc 1 522 3 is_stmt 0 view .LVU97
 372 0008 FFF7FEFF 		bl	tcp_arg
 373              	.LVL43:
 523:ThirdPackage/lwip220/api/api_msg.c ****   tcp_recv(pcb, recv_tcp);
 374              		.loc 1 523 3 is_stmt 1 view .LVU98
 375 000c 0849     		ldr	r1, .L36
 376 000e 2046     		mov	r0, r4
 377 0010 FFF7FEFF 		bl	tcp_recv
 378              	.LVL44:
 524:ThirdPackage/lwip220/api/api_msg.c ****   tcp_sent(pcb, sent_tcp);
 379              		.loc 1 524 3 view .LVU99
 380 0014 0749     		ldr	r1, .L36+4
 381 0016 2046     		mov	r0, r4
 382 0018 FFF7FEFF 		bl	tcp_sent
 383              	.LVL45:
 525:ThirdPackage/lwip220/api/api_msg.c ****   tcp_poll(pcb, poll_tcp, NETCONN_TCP_POLL_INTERVAL);
 384              		.loc 1 525 3 view .LVU100
 385 001c 0222     		movs	r2, #2
 386 001e 0649     		ldr	r1, .L36+8
 387 0020 2046     		mov	r0, r4
 388 0022 FFF7FEFF 		bl	tcp_poll
 389              	.LVL46:
 526:ThirdPackage/lwip220/api/api_msg.c ****   tcp_err(pcb, err_tcp);
 390              		.loc 1 526 3 view .LVU101
 391 0026 0549     		ldr	r1, .L36+12
 392 0028 2046     		mov	r0, r4
 393 002a FFF7FEFF 		bl	tcp_err
 394              	.LVL47:
ARM GAS  C:\Users\86188\AppData\Local\Temp\cccggEfL.s 			page 18


 527:ThirdPackage/lwip220/api/api_msg.c **** }
 395              		.loc 1 527 1 is_stmt 0 view .LVU102
 396 002e 10BD     		pop	{r4, pc}
 397              	.LVL48:
 398              	.L37:
 399              		.loc 1 527 1 view .LVU103
 400              		.align	2
 401              	.L36:
 402 0030 00000000 		.word	recv_tcp
 403 0034 00000000 		.word	sent_tcp
 404 0038 00000000 		.word	poll_tcp
 405 003c 00000000 		.word	err_tcp
 406              		.cfi_endproc
 407              	.LFE167:
 409              		.section	.rodata.pcb_new.str1.4,"aMS",%progbits,1
 410              		.align	2
 411              	.LC6:
 412 0000 7063625F 		.ascii	"pcb_new: pcb already allocated\000"
 412      6E65773A 
 412      20706362 
 412      20616C72 
 412      65616479 
 413              		.section	.text.pcb_new,"ax",%progbits
 414              		.align	1
 415              		.syntax unified
 416              		.thumb
 417              		.thumb_func
 419              	pcb_new:
 420              	.LVL49:
 421              	.LFB169:
 528:ThirdPackage/lwip220/api/api_msg.c **** 
 529:ThirdPackage/lwip220/api/api_msg.c **** /**
 530:ThirdPackage/lwip220/api/api_msg.c ****  * Accept callback function for TCP netconns.
 531:ThirdPackage/lwip220/api/api_msg.c ****  * Allocates a new netconn and posts that to conn->acceptmbox.
 532:ThirdPackage/lwip220/api/api_msg.c ****  *
 533:ThirdPackage/lwip220/api/api_msg.c ****  * @see tcp.h (struct tcp_pcb_listen.accept) for parameters and return value
 534:ThirdPackage/lwip220/api/api_msg.c ****  */
 535:ThirdPackage/lwip220/api/api_msg.c **** static err_t
 536:ThirdPackage/lwip220/api/api_msg.c **** accept_function(void *arg, struct tcp_pcb *newpcb, err_t err)
 537:ThirdPackage/lwip220/api/api_msg.c **** {
 538:ThirdPackage/lwip220/api/api_msg.c ****   struct netconn *newconn;
 539:ThirdPackage/lwip220/api/api_msg.c ****   struct netconn *conn = (struct netconn *)arg;
 540:ThirdPackage/lwip220/api/api_msg.c **** 
 541:ThirdPackage/lwip220/api/api_msg.c ****   if (conn == NULL) {
 542:ThirdPackage/lwip220/api/api_msg.c ****     return ERR_VAL;
 543:ThirdPackage/lwip220/api/api_msg.c ****   }
 544:ThirdPackage/lwip220/api/api_msg.c ****   if (!NETCONN_MBOX_VALID(conn, &conn->acceptmbox)) {
 545:ThirdPackage/lwip220/api/api_msg.c ****     LWIP_DEBUGF(API_MSG_DEBUG, ("accept_function: acceptmbox already deleted\n"));
 546:ThirdPackage/lwip220/api/api_msg.c ****     return ERR_VAL;
 547:ThirdPackage/lwip220/api/api_msg.c ****   }
 548:ThirdPackage/lwip220/api/api_msg.c **** 
 549:ThirdPackage/lwip220/api/api_msg.c ****   if (newpcb == NULL) {
 550:ThirdPackage/lwip220/api/api_msg.c ****     /* out-of-pcbs during connect: pass on this error to the application */
 551:ThirdPackage/lwip220/api/api_msg.c ****     if (sys_mbox_trypost(&conn->acceptmbox, lwip_netconn_err_to_msg(ERR_ABRT)) == ERR_OK) {
 552:ThirdPackage/lwip220/api/api_msg.c ****       /* Register event with callback */
 553:ThirdPackage/lwip220/api/api_msg.c ****       API_EVENT(conn, NETCONN_EVT_RCVPLUS, 0);
 554:ThirdPackage/lwip220/api/api_msg.c ****     }
ARM GAS  C:\Users\86188\AppData\Local\Temp\cccggEfL.s 			page 19


 555:ThirdPackage/lwip220/api/api_msg.c ****     return ERR_VAL;
 556:ThirdPackage/lwip220/api/api_msg.c ****   }
 557:ThirdPackage/lwip220/api/api_msg.c ****   LWIP_ASSERT("expect newpcb == NULL or err == ERR_OK", err == ERR_OK);
 558:ThirdPackage/lwip220/api/api_msg.c ****   LWIP_UNUSED_ARG(err); /* for LWIP_NOASSERT */
 559:ThirdPackage/lwip220/api/api_msg.c **** 
 560:ThirdPackage/lwip220/api/api_msg.c ****   LWIP_DEBUGF(API_MSG_DEBUG, ("accept_function: newpcb->state: %s\n", tcp_debug_state_str(newpcb->s
 561:ThirdPackage/lwip220/api/api_msg.c **** 
 562:ThirdPackage/lwip220/api/api_msg.c ****   /* We have to set the callback here even though
 563:ThirdPackage/lwip220/api/api_msg.c ****    * the new socket is unknown. newconn->socket is marked as -1. */
 564:ThirdPackage/lwip220/api/api_msg.c ****   newconn = netconn_alloc(conn->type, conn->callback);
 565:ThirdPackage/lwip220/api/api_msg.c ****   if (newconn == NULL) {
 566:ThirdPackage/lwip220/api/api_msg.c ****     /* outof netconns: pass on this error to the application */
 567:ThirdPackage/lwip220/api/api_msg.c ****     if (sys_mbox_trypost(&conn->acceptmbox, lwip_netconn_err_to_msg(ERR_ABRT)) == ERR_OK) {
 568:ThirdPackage/lwip220/api/api_msg.c ****       /* Register event with callback */
 569:ThirdPackage/lwip220/api/api_msg.c ****       API_EVENT(conn, NETCONN_EVT_RCVPLUS, 0);
 570:ThirdPackage/lwip220/api/api_msg.c ****     }
 571:ThirdPackage/lwip220/api/api_msg.c ****     return ERR_MEM;
 572:ThirdPackage/lwip220/api/api_msg.c ****   }
 573:ThirdPackage/lwip220/api/api_msg.c ****   newconn->pcb.tcp = newpcb;
 574:ThirdPackage/lwip220/api/api_msg.c ****   setup_tcp(newconn);
 575:ThirdPackage/lwip220/api/api_msg.c **** 
 576:ThirdPackage/lwip220/api/api_msg.c ****   /* handle backlog counter */
 577:ThirdPackage/lwip220/api/api_msg.c ****   tcp_backlog_delayed(newpcb);
 578:ThirdPackage/lwip220/api/api_msg.c **** 
 579:ThirdPackage/lwip220/api/api_msg.c ****   if (sys_mbox_trypost(&conn->acceptmbox, newconn) != ERR_OK) {
 580:ThirdPackage/lwip220/api/api_msg.c ****     /* When returning != ERR_OK, the pcb is aborted in tcp_process(),
 581:ThirdPackage/lwip220/api/api_msg.c ****        so do nothing here! */
 582:ThirdPackage/lwip220/api/api_msg.c ****     /* remove all references to this netconn from the pcb */
 583:ThirdPackage/lwip220/api/api_msg.c ****     struct tcp_pcb *pcb = newconn->pcb.tcp;
 584:ThirdPackage/lwip220/api/api_msg.c ****     tcp_arg(pcb, NULL);
 585:ThirdPackage/lwip220/api/api_msg.c ****     tcp_recv(pcb, NULL);
 586:ThirdPackage/lwip220/api/api_msg.c ****     tcp_sent(pcb, NULL);
 587:ThirdPackage/lwip220/api/api_msg.c ****     tcp_poll(pcb, NULL, 0);
 588:ThirdPackage/lwip220/api/api_msg.c ****     tcp_err(pcb, NULL);
 589:ThirdPackage/lwip220/api/api_msg.c ****     /* remove reference from to the pcb from this netconn */
 590:ThirdPackage/lwip220/api/api_msg.c ****     newconn->pcb.tcp = NULL;
 591:ThirdPackage/lwip220/api/api_msg.c ****     /* no need to drain since we know the recvmbox is empty. */
 592:ThirdPackage/lwip220/api/api_msg.c ****     sys_mbox_free(&newconn->recvmbox);
 593:ThirdPackage/lwip220/api/api_msg.c ****     sys_mbox_set_invalid(&newconn->recvmbox);
 594:ThirdPackage/lwip220/api/api_msg.c ****     netconn_free(newconn);
 595:ThirdPackage/lwip220/api/api_msg.c ****     return ERR_MEM;
 596:ThirdPackage/lwip220/api/api_msg.c ****   } else {
 597:ThirdPackage/lwip220/api/api_msg.c ****     /* Register event with callback */
 598:ThirdPackage/lwip220/api/api_msg.c ****     API_EVENT(conn, NETCONN_EVT_RCVPLUS, 0);
 599:ThirdPackage/lwip220/api/api_msg.c ****   }
 600:ThirdPackage/lwip220/api/api_msg.c **** 
 601:ThirdPackage/lwip220/api/api_msg.c ****   return ERR_OK;
 602:ThirdPackage/lwip220/api/api_msg.c **** }
 603:ThirdPackage/lwip220/api/api_msg.c **** #endif /* LWIP_TCP */
 604:ThirdPackage/lwip220/api/api_msg.c **** 
 605:ThirdPackage/lwip220/api/api_msg.c **** /**
 606:ThirdPackage/lwip220/api/api_msg.c ****  * Create a new pcb of a specific type.
 607:ThirdPackage/lwip220/api/api_msg.c ****  * Called from lwip_netconn_do_newconn().
 608:ThirdPackage/lwip220/api/api_msg.c ****  *
 609:ThirdPackage/lwip220/api/api_msg.c ****  * @param msg the api_msg describing the connection type
 610:ThirdPackage/lwip220/api/api_msg.c ****  */
 611:ThirdPackage/lwip220/api/api_msg.c **** static void
ARM GAS  C:\Users\86188\AppData\Local\Temp\cccggEfL.s 			page 20


 612:ThirdPackage/lwip220/api/api_msg.c **** pcb_new(struct api_msg *msg)
 613:ThirdPackage/lwip220/api/api_msg.c **** {
 422              		.loc 1 613 1 is_stmt 1 view -0
 423              		.cfi_startproc
 424              		@ args = 0, pretend = 0, frame = 0
 425              		@ frame_needed = 0, uses_anonymous_args = 0
 426              		.loc 1 613 1 is_stmt 0 view .LVU105
 427 0000 38B5     		push	{r3, r4, r5, lr}
 428              	.LCFI4:
 429              		.cfi_def_cfa_offset 16
 430              		.cfi_offset 3, -16
 431              		.cfi_offset 4, -12
 432              		.cfi_offset 5, -8
 433              		.cfi_offset 14, -4
 434 0002 0446     		mov	r4, r0
 614:ThirdPackage/lwip220/api/api_msg.c ****   enum lwip_ip_addr_type iptype = IPADDR_TYPE_V4;
 435              		.loc 1 614 3 is_stmt 1 view .LVU106
 436              	.LVL50:
 615:ThirdPackage/lwip220/api/api_msg.c **** 
 616:ThirdPackage/lwip220/api/api_msg.c ****   LWIP_ASSERT("pcb_new: pcb already allocated", msg->conn->pcb.tcp == NULL);
 437              		.loc 1 616 3 view .LVU107
 438              		.loc 1 616 3 view .LVU108
 439 0004 0368     		ldr	r3, [r0]
 440 0006 5B68     		ldr	r3, [r3, #4]
 441 0008 33B1     		cbz	r3, .L39
 442              		.loc 1 616 3 discriminator 1 view .LVU109
 443              		.loc 1 616 3 discriminator 1 view .LVU110
 444 000a 1B4B     		ldr	r3, .L48
 445 000c 4FF41A72 		mov	r2, #616
 446 0010 1A49     		ldr	r1, .L48+4
 447 0012 1B48     		ldr	r0, .L48+8
 448              	.LVL51:
 449              		.loc 1 616 3 is_stmt 0 discriminator 1 view .LVU111
 450 0014 FFF7FEFF 		bl	printf
 451              	.LVL52:
 452              	.L39:
 453              		.loc 1 616 3 is_stmt 1 discriminator 3 view .LVU112
 454              		.loc 1 616 3 discriminator 3 view .LVU113
 617:ThirdPackage/lwip220/api/api_msg.c **** 
 618:ThirdPackage/lwip220/api/api_msg.c **** #if LWIP_IPV6 && LWIP_IPV4
 619:ThirdPackage/lwip220/api/api_msg.c ****   /* IPv6: Dual-stack by default, unless netconn_set_ipv6only() is called */
 620:ThirdPackage/lwip220/api/api_msg.c ****   if (NETCONNTYPE_ISIPV6(netconn_type(msg->conn))) {
 621:ThirdPackage/lwip220/api/api_msg.c ****     iptype = IPADDR_TYPE_ANY;
 622:ThirdPackage/lwip220/api/api_msg.c ****   }
 623:ThirdPackage/lwip220/api/api_msg.c **** #endif
 624:ThirdPackage/lwip220/api/api_msg.c **** 
 625:ThirdPackage/lwip220/api/api_msg.c ****   /* Allocate a PCB for this connection */
 626:ThirdPackage/lwip220/api/api_msg.c ****   switch (NETCONNTYPE_GROUP(msg->conn->type)) {
 455              		.loc 1 626 3 discriminator 3 view .LVU114
 456              		.loc 1 626 11 is_stmt 0 discriminator 3 view .LVU115
 457 0018 2568     		ldr	r5, [r4]
 458 001a 2B78     		ldrb	r3, [r5]	@ zero_extendqisi2
 459 001c 03F0F003 		and	r3, r3, #240
 460              		.loc 1 626 3 discriminator 3 view .LVU116
 461 0020 102B     		cmp	r3, #16
 462 0022 17D0     		beq	.L40
 463              		.loc 1 626 3 view .LVU117
ARM GAS  C:\Users\86188\AppData\Local\Temp\cccggEfL.s 			page 21


 464 0024 202B     		cmp	r3, #32
 465 0026 20D1     		bne	.L41
 627:ThirdPackage/lwip220/api/api_msg.c **** #if LWIP_RAW
 628:ThirdPackage/lwip220/api/api_msg.c ****     case NETCONN_RAW:
 629:ThirdPackage/lwip220/api/api_msg.c ****       msg->conn->pcb.raw = raw_new_ip_type(iptype, msg->msg.n.proto);
 630:ThirdPackage/lwip220/api/api_msg.c ****       if (msg->conn->pcb.raw != NULL) {
 631:ThirdPackage/lwip220/api/api_msg.c **** #if LWIP_IPV6
 632:ThirdPackage/lwip220/api/api_msg.c ****         /* ICMPv6 packets should always have checksum calculated by the stack as per RFC 3542 chapt
 633:ThirdPackage/lwip220/api/api_msg.c ****         if (NETCONNTYPE_ISIPV6(msg->conn->type) && msg->conn->pcb.raw->protocol == IP6_NEXTH_ICMP6)
 634:ThirdPackage/lwip220/api/api_msg.c ****           msg->conn->pcb.raw->chksum_reqd = 1;
 635:ThirdPackage/lwip220/api/api_msg.c ****           msg->conn->pcb.raw->chksum_offset = 2;
 636:ThirdPackage/lwip220/api/api_msg.c ****         }
 637:ThirdPackage/lwip220/api/api_msg.c **** #endif /* LWIP_IPV6 */
 638:ThirdPackage/lwip220/api/api_msg.c ****         raw_recv(msg->conn->pcb.raw, recv_raw, msg->conn);
 639:ThirdPackage/lwip220/api/api_msg.c ****       }
 640:ThirdPackage/lwip220/api/api_msg.c ****       break;
 641:ThirdPackage/lwip220/api/api_msg.c **** #endif /* LWIP_RAW */
 642:ThirdPackage/lwip220/api/api_msg.c **** #if LWIP_UDP
 643:ThirdPackage/lwip220/api/api_msg.c ****     case NETCONN_UDP:
 644:ThirdPackage/lwip220/api/api_msg.c ****       msg->conn->pcb.udp = udp_new_ip_type(iptype);
 466              		.loc 1 644 7 is_stmt 1 view .LVU118
 467              		.loc 1 644 28 is_stmt 0 view .LVU119
 468 0028 0020     		movs	r0, #0
 469 002a FFF7FEFF 		bl	udp_new_ip_type
 470              	.LVL53:
 471              		.loc 1 644 26 view .LVU120
 472 002e 6860     		str	r0, [r5, #4]
 645:ThirdPackage/lwip220/api/api_msg.c ****       if (msg->conn->pcb.udp != NULL) {
 473              		.loc 1 645 7 is_stmt 1 view .LVU121
 474              		.loc 1 645 14 is_stmt 0 view .LVU122
 475 0030 2368     		ldr	r3, [r4]
 476              		.loc 1 645 25 view .LVU123
 477 0032 5A68     		ldr	r2, [r3, #4]
 478              		.loc 1 645 10 view .LVU124
 479 0034 3AB1     		cbz	r2, .L42
 646:ThirdPackage/lwip220/api/api_msg.c **** #if LWIP_UDPLITE
 647:ThirdPackage/lwip220/api/api_msg.c ****         if (NETCONNTYPE_ISUDPLITE(msg->conn->type)) {
 648:ThirdPackage/lwip220/api/api_msg.c ****           udp_setflags(msg->conn->pcb.udp, UDP_FLAGS_UDPLITE);
 649:ThirdPackage/lwip220/api/api_msg.c ****         }
 650:ThirdPackage/lwip220/api/api_msg.c **** #endif /* LWIP_UDPLITE */
 651:ThirdPackage/lwip220/api/api_msg.c ****         if (NETCONNTYPE_ISUDPNOCHKSUM(msg->conn->type)) {
 480              		.loc 1 651 9 is_stmt 1 view .LVU125
 481              		.loc 1 651 13 is_stmt 0 view .LVU126
 482 0036 1B78     		ldrb	r3, [r3]	@ zero_extendqisi2
 483              		.loc 1 651 12 view .LVU127
 484 0038 222B     		cmp	r3, #34
 485 003a 08D0     		beq	.L46
 486              	.L43:
 652:ThirdPackage/lwip220/api/api_msg.c ****           udp_setflags(msg->conn->pcb.udp, UDP_FLAGS_NOCHKSUM);
 653:ThirdPackage/lwip220/api/api_msg.c ****         }
 654:ThirdPackage/lwip220/api/api_msg.c ****         udp_recv(msg->conn->pcb.udp, recv_udp, msg->conn);
 487              		.loc 1 654 9 is_stmt 1 view .LVU128
 488              		.loc 1 654 21 is_stmt 0 view .LVU129
 489 003c 2268     		ldr	r2, [r4]
 490              		.loc 1 654 9 view .LVU130
 491 003e 1149     		ldr	r1, .L48+12
 492 0040 5068     		ldr	r0, [r2, #4]
ARM GAS  C:\Users\86188\AppData\Local\Temp\cccggEfL.s 			page 22


 493 0042 FFF7FEFF 		bl	udp_recv
 494              	.LVL54:
 495              	.L42:
 655:ThirdPackage/lwip220/api/api_msg.c ****       }
 656:ThirdPackage/lwip220/api/api_msg.c ****       break;
 657:ThirdPackage/lwip220/api/api_msg.c **** #endif /* LWIP_UDP */
 658:ThirdPackage/lwip220/api/api_msg.c **** #if LWIP_TCP
 659:ThirdPackage/lwip220/api/api_msg.c ****     case NETCONN_TCP:
 660:ThirdPackage/lwip220/api/api_msg.c ****       msg->conn->pcb.tcp = tcp_new_ip_type(iptype);
 661:ThirdPackage/lwip220/api/api_msg.c ****       if (msg->conn->pcb.tcp != NULL) {
 662:ThirdPackage/lwip220/api/api_msg.c ****         setup_tcp(msg->conn);
 663:ThirdPackage/lwip220/api/api_msg.c ****       }
 664:ThirdPackage/lwip220/api/api_msg.c ****       break;
 665:ThirdPackage/lwip220/api/api_msg.c **** #endif /* LWIP_TCP */
 666:ThirdPackage/lwip220/api/api_msg.c ****     default:
 667:ThirdPackage/lwip220/api/api_msg.c ****       /* Unsupported netconn type, e.g. protocol disabled */
 668:ThirdPackage/lwip220/api/api_msg.c ****       msg->err = ERR_VAL;
 669:ThirdPackage/lwip220/api/api_msg.c ****       return;
 670:ThirdPackage/lwip220/api/api_msg.c ****   }
 671:ThirdPackage/lwip220/api/api_msg.c ****   if (msg->conn->pcb.ip == NULL) {
 496              		.loc 1 671 3 is_stmt 1 view .LVU131
 497              		.loc 1 671 10 is_stmt 0 view .LVU132
 498 0046 2368     		ldr	r3, [r4]
 499              		.loc 1 671 21 view .LVU133
 500 0048 5B68     		ldr	r3, [r3, #4]
 501              		.loc 1 671 6 view .LVU134
 502 004a 8BB1     		cbz	r3, .L47
 503              	.L38:
 672:ThirdPackage/lwip220/api/api_msg.c ****     msg->err = ERR_MEM;
 673:ThirdPackage/lwip220/api/api_msg.c ****   }
 674:ThirdPackage/lwip220/api/api_msg.c **** }
 504              		.loc 1 674 1 view .LVU135
 505 004c 38BD     		pop	{r3, r4, r5, pc}
 506              	.LVL55:
 507              	.L46:
 652:ThirdPackage/lwip220/api/api_msg.c ****         }
 508              		.loc 1 652 11 is_stmt 1 view .LVU136
 509 004e 0123     		movs	r3, #1
 510 0050 1374     		strb	r3, [r2, #16]
 511 0052 F3E7     		b	.L43
 512              	.L40:
 660:ThirdPackage/lwip220/api/api_msg.c ****       if (msg->conn->pcb.tcp != NULL) {
 513              		.loc 1 660 7 view .LVU137
 660:ThirdPackage/lwip220/api/api_msg.c ****       if (msg->conn->pcb.tcp != NULL) {
 514              		.loc 1 660 28 is_stmt 0 view .LVU138
 515 0054 0020     		movs	r0, #0
 516 0056 FFF7FEFF 		bl	tcp_new_ip_type
 517              	.LVL56:
 660:ThirdPackage/lwip220/api/api_msg.c ****       if (msg->conn->pcb.tcp != NULL) {
 518              		.loc 1 660 26 view .LVU139
 519 005a 6860     		str	r0, [r5, #4]
 661:ThirdPackage/lwip220/api/api_msg.c ****         setup_tcp(msg->conn);
 520              		.loc 1 661 7 is_stmt 1 view .LVU140
 661:ThirdPackage/lwip220/api/api_msg.c ****         setup_tcp(msg->conn);
 521              		.loc 1 661 14 is_stmt 0 view .LVU141
 522 005c 2068     		ldr	r0, [r4]
 661:ThirdPackage/lwip220/api/api_msg.c ****         setup_tcp(msg->conn);
ARM GAS  C:\Users\86188\AppData\Local\Temp\cccggEfL.s 			page 23


 523              		.loc 1 661 25 view .LVU142
 524 005e 4368     		ldr	r3, [r0, #4]
 661:ThirdPackage/lwip220/api/api_msg.c ****         setup_tcp(msg->conn);
 525              		.loc 1 661 10 view .LVU143
 526 0060 002B     		cmp	r3, #0
 527 0062 F0D0     		beq	.L42
 662:ThirdPackage/lwip220/api/api_msg.c ****       }
 528              		.loc 1 662 9 is_stmt 1 view .LVU144
 529 0064 FFF7FEFF 		bl	setup_tcp
 530              	.LVL57:
 531 0068 EDE7     		b	.L42
 532              	.L41:
 668:ThirdPackage/lwip220/api/api_msg.c ****       return;
 533              		.loc 1 668 7 view .LVU145
 668:ThirdPackage/lwip220/api/api_msg.c ****       return;
 534              		.loc 1 668 16 is_stmt 0 view .LVU146
 535 006a FA23     		movs	r3, #250
 536 006c 2371     		strb	r3, [r4, #4]
 669:ThirdPackage/lwip220/api/api_msg.c ****   }
 537              		.loc 1 669 7 is_stmt 1 view .LVU147
 538 006e EDE7     		b	.L38
 539              	.L47:
 672:ThirdPackage/lwip220/api/api_msg.c ****   }
 540              		.loc 1 672 5 view .LVU148
 672:ThirdPackage/lwip220/api/api_msg.c ****   }
 541              		.loc 1 672 14 is_stmt 0 view .LVU149
 542 0070 FF23     		movs	r3, #255
 543 0072 2371     		strb	r3, [r4, #4]
 544 0074 EAE7     		b	.L38
 545              	.L49:
 546 0076 00BF     		.align	2
 547              	.L48:
 548 0078 00000000 		.word	.LC0
 549 007c 00000000 		.word	.LC6
 550 0080 34000000 		.word	.LC2
 551 0084 00000000 		.word	recv_udp
 552              		.cfi_endproc
 553              	.LFE169:
 555              		.section	.rodata.err_tcp.str1.4,"aMS",%progbits,1
 556              		.align	2
 557              	.LC7:
 558 0000 636F6E6E 		.ascii	"conn != NULL\000"
 558      20213D20 
 558      4E554C4C 
 558      00
 559 000d 000000   		.align	2
 560              	.LC8:
 561 0010 636F6E6E 		.ascii	"conn->current_msg != NULL\000"
 561      2D3E6375 
 561      7272656E 
 561      745F6D73 
 561      6720213D 
 562 002a 0000     		.align	2
 563              	.LC9:
 564 002c 696E7661 		.ascii	"invalid op_completed_sem\000"
 564      6C696420 
 564      6F705F63 
ARM GAS  C:\Users\86188\AppData\Local\Temp\cccggEfL.s 			page 24


 564      6F6D706C 
 564      65746564 
 565 0045 000000   		.align	2
 566              	.LC10:
 567 0048 636F6E6E 		.ascii	"conn->current_msg == NULL\000"
 567      2D3E6375 
 567      7272656E 
 567      745F6D73 
 567      67203D3D 
 568              		.section	.text.err_tcp,"ax",%progbits
 569              		.align	1
 570              		.syntax unified
 571              		.thumb
 572              		.thumb_func
 574              	err_tcp:
 575              	.LVL58:
 576              	.LFB166:
 436:ThirdPackage/lwip220/api/api_msg.c ****   struct netconn *conn;
 577              		.loc 1 436 1 is_stmt 1 view -0
 578              		.cfi_startproc
 579              		@ args = 0, pretend = 0, frame = 0
 580              		@ frame_needed = 0, uses_anonymous_args = 0
 436:ThirdPackage/lwip220/api/api_msg.c ****   struct netconn *conn;
 581              		.loc 1 436 1 is_stmt 0 view .LVU151
 582 0000 2DE9F041 		push	{r4, r5, r6, r7, r8, lr}
 583              	.LCFI5:
 584              		.cfi_def_cfa_offset 24
 585              		.cfi_offset 4, -24
 586              		.cfi_offset 5, -20
 587              		.cfi_offset 6, -16
 588              		.cfi_offset 7, -12
 589              		.cfi_offset 8, -8
 590              		.cfi_offset 14, -4
 591 0004 0D46     		mov	r5, r1
 437:ThirdPackage/lwip220/api/api_msg.c ****   enum netconn_state old_state;
 592              		.loc 1 437 3 is_stmt 1 view .LVU152
 438:ThirdPackage/lwip220/api/api_msg.c ****   void *mbox_msg;
 593              		.loc 1 438 3 view .LVU153
 439:ThirdPackage/lwip220/api/api_msg.c ****   SYS_ARCH_DECL_PROTECT(lev);
 594              		.loc 1 439 3 view .LVU154
 440:ThirdPackage/lwip220/api/api_msg.c **** 
 595              		.loc 1 440 3 view .LVU155
 442:ThirdPackage/lwip220/api/api_msg.c ****   LWIP_ASSERT("conn != NULL", (conn != NULL));
 596              		.loc 1 442 3 view .LVU156
 597              	.LVL59:
 443:ThirdPackage/lwip220/api/api_msg.c **** 
 598              		.loc 1 443 3 view .LVU157
 443:ThirdPackage/lwip220/api/api_msg.c **** 
 599              		.loc 1 443 3 view .LVU158
 600 0006 0446     		mov	r4, r0
 601 0008 0028     		cmp	r0, #0
 602 000a 3ED0     		beq	.L65
 603              	.LVL60:
 604              	.L51:
 443:ThirdPackage/lwip220/api/api_msg.c **** 
 605              		.loc 1 443 3 discriminator 3 view .LVU159
 443:ThirdPackage/lwip220/api/api_msg.c **** 
ARM GAS  C:\Users\86188\AppData\Local\Temp\cccggEfL.s 			page 25


 606              		.loc 1 443 3 discriminator 3 view .LVU160
 445:ThirdPackage/lwip220/api/api_msg.c **** 
 607              		.loc 1 445 3 discriminator 3 view .LVU161
 608 000c FFF7FEFF 		bl	sys_arch_protect
 609              	.LVL61:
 448:ThirdPackage/lwip220/api/api_msg.c ****   /* store pending error */
 610              		.loc 1 448 3 discriminator 3 view .LVU162
 448:ThirdPackage/lwip220/api/api_msg.c ****   /* store pending error */
 611              		.loc 1 448 17 is_stmt 0 discriminator 3 view .LVU163
 612 0010 0022     		movs	r2, #0
 613 0012 6260     		str	r2, [r4, #4]
 450:ThirdPackage/lwip220/api/api_msg.c ****   /* prevent application threads from blocking on 'recvmbox'/'acceptmbox' */
 614              		.loc 1 450 3 is_stmt 1 discriminator 3 view .LVU164
 450:ThirdPackage/lwip220/api/api_msg.c ****   /* prevent application threads from blocking on 'recvmbox'/'acceptmbox' */
 615              		.loc 1 450 21 is_stmt 0 discriminator 3 view .LVU165
 616 0014 2572     		strb	r5, [r4, #8]
 452:ThirdPackage/lwip220/api/api_msg.c **** 
 617              		.loc 1 452 3 is_stmt 1 discriminator 3 view .LVU166
 452:ThirdPackage/lwip220/api/api_msg.c **** 
 618              		.loc 1 452 15 is_stmt 0 discriminator 3 view .LVU167
 619 0016 237F     		ldrb	r3, [r4, #28]	@ zero_extendqisi2
 620 0018 43F00103 		orr	r3, r3, #1
 621 001c 2377     		strb	r3, [r4, #28]
 455:ThirdPackage/lwip220/api/api_msg.c ****   conn->state = NETCONN_NONE;
 622              		.loc 1 455 3 is_stmt 1 discriminator 3 view .LVU168
 455:ThirdPackage/lwip220/api/api_msg.c ****   conn->state = NETCONN_NONE;
 623              		.loc 1 455 13 is_stmt 0 discriminator 3 view .LVU169
 624 001e 6778     		ldrb	r7, [r4, #1]	@ zero_extendqisi2
 625              	.LVL62:
 456:ThirdPackage/lwip220/api/api_msg.c **** 
 626              		.loc 1 456 3 is_stmt 1 discriminator 3 view .LVU170
 456:ThirdPackage/lwip220/api/api_msg.c **** 
 627              		.loc 1 456 15 is_stmt 0 discriminator 3 view .LVU171
 628 0020 6270     		strb	r2, [r4, #1]
 458:ThirdPackage/lwip220/api/api_msg.c **** 
 629              		.loc 1 458 3 is_stmt 1 discriminator 3 view .LVU172
 630 0022 FFF7FEFF 		bl	sys_arch_unprotect
 631              	.LVL63:
 461:ThirdPackage/lwip220/api/api_msg.c ****   /* Try to release selects pending on 'read' or 'write', too.
 632              		.loc 1 461 3 discriminator 3 view .LVU173
 633 0026 636A     		ldr	r3, [r4, #36]
 634 0028 1BB1     		cbz	r3, .L52
 461:ThirdPackage/lwip220/api/api_msg.c ****   /* Try to release selects pending on 'read' or 'write', too.
 635              		.loc 1 461 3 discriminator 1 view .LVU174
 636 002a 0022     		movs	r2, #0
 637 002c 0421     		movs	r1, #4
 638 002e 2046     		mov	r0, r4
 639 0030 9847     		blx	r3
 640              	.LVL64:
 641              	.L52:
 461:ThirdPackage/lwip220/api/api_msg.c ****   /* Try to release selects pending on 'read' or 'write', too.
 642              		.loc 1 461 40 discriminator 3 view .LVU175
 464:ThirdPackage/lwip220/api/api_msg.c ****   API_EVENT(conn, NETCONN_EVT_SENDPLUS, 0);
 643              		.loc 1 464 3 discriminator 3 view .LVU176
 644 0032 636A     		ldr	r3, [r4, #36]
 645 0034 1BB1     		cbz	r3, .L53
 464:ThirdPackage/lwip220/api/api_msg.c ****   API_EVENT(conn, NETCONN_EVT_SENDPLUS, 0);
ARM GAS  C:\Users\86188\AppData\Local\Temp\cccggEfL.s 			page 26


 646              		.loc 1 464 3 discriminator 1 view .LVU177
 647 0036 0022     		movs	r2, #0
 648 0038 1146     		mov	r1, r2
 649 003a 2046     		mov	r0, r4
 650 003c 9847     		blx	r3
 651              	.LVL65:
 652              	.L53:
 464:ThirdPackage/lwip220/api/api_msg.c ****   API_EVENT(conn, NETCONN_EVT_SENDPLUS, 0);
 653              		.loc 1 464 42 discriminator 3 view .LVU178
 465:ThirdPackage/lwip220/api/api_msg.c **** 
 654              		.loc 1 465 3 discriminator 3 view .LVU179
 655 003e 636A     		ldr	r3, [r4, #36]
 656 0040 1BB1     		cbz	r3, .L54
 465:ThirdPackage/lwip220/api/api_msg.c **** 
 657              		.loc 1 465 3 discriminator 1 view .LVU180
 658 0042 0022     		movs	r2, #0
 659 0044 0221     		movs	r1, #2
 660 0046 2046     		mov	r0, r4
 661 0048 9847     		blx	r3
 662              	.LVL66:
 663              	.L54:
 465:ThirdPackage/lwip220/api/api_msg.c **** 
 664              		.loc 1 465 43 discriminator 3 view .LVU181
 467:ThirdPackage/lwip220/api/api_msg.c ****   /* pass error message to recvmbox to wake up pending recv */
 665              		.loc 1 467 3 discriminator 3 view .LVU182
 467:ThirdPackage/lwip220/api/api_msg.c ****   /* pass error message to recvmbox to wake up pending recv */
 666              		.loc 1 467 14 is_stmt 0 discriminator 3 view .LVU183
 667 004a 2846     		mov	r0, r5
 668 004c FFF7FEFF 		bl	lwip_netconn_err_to_msg
 669              	.LVL67:
 670 0050 0646     		mov	r6, r0
 671              	.LVL68:
 469:ThirdPackage/lwip220/api/api_msg.c ****     /* use trypost to prevent deadlock */
 672              		.loc 1 469 3 is_stmt 1 discriminator 3 view .LVU184
 469:ThirdPackage/lwip220/api/api_msg.c ****     /* use trypost to prevent deadlock */
 673              		.loc 1 469 7 is_stmt 0 discriminator 3 view .LVU185
 674 0052 04F11008 		add	r8, r4, #16
 675 0056 4046     		mov	r0, r8
 676              	.LVL69:
 469:ThirdPackage/lwip220/api/api_msg.c ****     /* use trypost to prevent deadlock */
 677              		.loc 1 469 7 discriminator 3 view .LVU186
 678 0058 FFF7FEFF 		bl	sys_mbox_valid
 679              	.LVL70:
 469:ThirdPackage/lwip220/api/api_msg.c ****     /* use trypost to prevent deadlock */
 680              		.loc 1 469 6 discriminator 3 view .LVU187
 681 005c E8B9     		cbnz	r0, .L66
 682              	.L55:
 474:ThirdPackage/lwip220/api/api_msg.c ****     /* use trypost to prevent deadlock */
 683              		.loc 1 474 3 is_stmt 1 view .LVU188
 474:ThirdPackage/lwip220/api/api_msg.c ****     /* use trypost to prevent deadlock */
 684              		.loc 1 474 7 is_stmt 0 view .LVU189
 685 005e 04F11408 		add	r8, r4, #20
 686 0062 4046     		mov	r0, r8
 687 0064 FFF7FEFF 		bl	sys_mbox_valid
 688              	.LVL71:
 474:ThirdPackage/lwip220/api/api_msg.c ****     /* use trypost to prevent deadlock */
 689              		.loc 1 474 6 view .LVU190
ARM GAS  C:\Users\86188\AppData\Local\Temp\cccggEfL.s 			page 27


 690 0068 E0B9     		cbnz	r0, .L67
 691              	.L56:
 479:ThirdPackage/lwip220/api/api_msg.c ****       (old_state == NETCONN_CONNECT)) {
 692              		.loc 1 479 3 is_stmt 1 view .LVU191
 479:ThirdPackage/lwip220/api/api_msg.c ****       (old_state == NETCONN_CONNECT)) {
 693              		.loc 1 479 6 is_stmt 0 view .LVU192
 694 006a 012F     		cmp	r7, #1
 695 006c 1FD0     		beq	.L57
 479:ThirdPackage/lwip220/api/api_msg.c ****       (old_state == NETCONN_CONNECT)) {
 696              		.loc 1 479 36 discriminator 1 view .LVU193
 697 006e 042F     		cmp	r7, #4
 698 0070 1DD0     		beq	.L57
 479:ThirdPackage/lwip220/api/api_msg.c ****       (old_state == NETCONN_CONNECT)) {
 699              		.loc 1 479 68 discriminator 2 view .LVU194
 700 0072 032F     		cmp	r7, #3
 701 0074 1BD0     		beq	.L57
 506:ThirdPackage/lwip220/api/api_msg.c ****   }
 702              		.loc 1 506 5 is_stmt 1 view .LVU195
 506:ThirdPackage/lwip220/api/api_msg.c ****   }
 703              		.loc 1 506 5 view .LVU196
 704 0076 236A     		ldr	r3, [r4, #32]
 705 0078 93B3     		cbz	r3, .L50
 506:ThirdPackage/lwip220/api/api_msg.c ****   }
 706              		.loc 1 506 5 discriminator 1 view .LVU197
 506:ThirdPackage/lwip220/api/api_msg.c ****   }
 707              		.loc 1 506 5 discriminator 1 view .LVU198
 708 007a 244B     		ldr	r3, .L71
 709 007c 4FF4FD72 		mov	r2, #506
 710 0080 2349     		ldr	r1, .L71+4
 711 0082 2448     		ldr	r0, .L71+8
 712 0084 FFF7FEFF 		bl	printf
 713              	.LVL72:
 506:ThirdPackage/lwip220/api/api_msg.c ****   }
 714              		.loc 1 506 5 discriminator 1 view .LVU199
 506:ThirdPackage/lwip220/api/api_msg.c ****   }
 715              		.loc 1 506 5 discriminator 1 view .LVU200
 508:ThirdPackage/lwip220/api/api_msg.c **** 
 716              		.loc 1 508 1 is_stmt 0 discriminator 1 view .LVU201
 717 0088 2AE0     		b	.L50
 718              	.LVL73:
 719              	.L65:
 443:ThirdPackage/lwip220/api/api_msg.c **** 
 720              		.loc 1 443 3 is_stmt 1 discriminator 1 view .LVU202
 443:ThirdPackage/lwip220/api/api_msg.c **** 
 721              		.loc 1 443 3 discriminator 1 view .LVU203
 722 008a 204B     		ldr	r3, .L71
 723 008c 40F2BB12 		movw	r2, #443
 724 0090 2149     		ldr	r1, .L71+12
 725              	.LVL74:
 443:ThirdPackage/lwip220/api/api_msg.c **** 
 726              		.loc 1 443 3 is_stmt 0 discriminator 1 view .LVU204
 727 0092 2048     		ldr	r0, .L71+8
 728              	.LVL75:
 443:ThirdPackage/lwip220/api/api_msg.c **** 
 729              		.loc 1 443 3 discriminator 1 view .LVU205
 730 0094 FFF7FEFF 		bl	printf
 731              	.LVL76:
ARM GAS  C:\Users\86188\AppData\Local\Temp\cccggEfL.s 			page 28


 732 0098 B8E7     		b	.L51
 733              	.LVL77:
 734              	.L66:
 471:ThirdPackage/lwip220/api/api_msg.c ****   }
 735              		.loc 1 471 5 is_stmt 1 view .LVU206
 736 009a 3146     		mov	r1, r6
 737 009c 4046     		mov	r0, r8
 738 009e FFF7FEFF 		bl	sys_mbox_trypost
 739              	.LVL78:
 740 00a2 DCE7     		b	.L55
 741              	.L67:
 476:ThirdPackage/lwip220/api/api_msg.c ****   }
 742              		.loc 1 476 5 view .LVU207
 743 00a4 3146     		mov	r1, r6
 744 00a6 4046     		mov	r0, r8
 745 00a8 FFF7FEFF 		bl	sys_mbox_trypost
 746              	.LVL79:
 747 00ac DDE7     		b	.L56
 748              	.L57:
 749              	.LBB2:
 483:ThirdPackage/lwip220/api/api_msg.c ****     SET_NONBLOCKING_CONNECT(conn, 0);
 750              		.loc 1 483 5 view .LVU208
 483:ThirdPackage/lwip220/api/api_msg.c ****     SET_NONBLOCKING_CONNECT(conn, 0);
 751              		.loc 1 483 35 is_stmt 0 view .LVU209
 752 00ae 237F     		ldrb	r3, [r4, #28]	@ zero_extendqisi2
 753              	.LVL80:
 484:ThirdPackage/lwip220/api/api_msg.c **** 
 754              		.loc 1 484 5 is_stmt 1 view .LVU210
 484:ThirdPackage/lwip220/api/api_msg.c **** 
 755              		.loc 1 484 5 view .LVU211
 484:ThirdPackage/lwip220/api/api_msg.c **** 
 756              		.loc 1 484 5 view .LVU212
 484:ThirdPackage/lwip220/api/api_msg.c **** 
 757              		.loc 1 484 5 view .LVU213
 758 00b0 03F0FB02 		and	r2, r3, #251
 759 00b4 2277     		strb	r2, [r4, #28]
 484:ThirdPackage/lwip220/api/api_msg.c **** 
 760              		.loc 1 484 5 view .LVU214
 484:ThirdPackage/lwip220/api/api_msg.c **** 
 761              		.loc 1 484 5 view .LVU215
 486:ThirdPackage/lwip220/api/api_msg.c ****       sys_sem_t *op_completed_sem;
 762              		.loc 1 486 5 view .LVU216
 486:ThirdPackage/lwip220/api/api_msg.c ****       sys_sem_t *op_completed_sem;
 763              		.loc 1 486 8 is_stmt 0 view .LVU217
 764 00b6 13F0040F 		tst	r3, #4
 765 00ba 11D1     		bne	.L50
 766              	.LBB3:
 487:ThirdPackage/lwip220/api/api_msg.c ****       /* set error return code */
 767              		.loc 1 487 7 is_stmt 1 view .LVU218
 489:ThirdPackage/lwip220/api/api_msg.c ****       if (old_state == NETCONN_CLOSE) {
 768              		.loc 1 489 7 view .LVU219
 489:ThirdPackage/lwip220/api/api_msg.c ****       if (old_state == NETCONN_CLOSE) {
 769              		.loc 1 489 7 view .LVU220
 770 00bc 236A     		ldr	r3, [r4, #32]
 771              	.LVL81:
 489:ThirdPackage/lwip220/api/api_msg.c ****       if (old_state == NETCONN_CLOSE) {
 772              		.loc 1 489 7 is_stmt 0 view .LVU221
ARM GAS  C:\Users\86188\AppData\Local\Temp\cccggEfL.s 			page 29


 773 00be 8BB1     		cbz	r3, .L68
 774              	.L60:
 489:ThirdPackage/lwip220/api/api_msg.c ****       if (old_state == NETCONN_CLOSE) {
 775              		.loc 1 489 7 is_stmt 1 discriminator 3 view .LVU222
 489:ThirdPackage/lwip220/api/api_msg.c ****       if (old_state == NETCONN_CLOSE) {
 776              		.loc 1 489 7 discriminator 3 view .LVU223
 490:ThirdPackage/lwip220/api/api_msg.c ****         /* let close succeed: the connection is closed after all... */
 777              		.loc 1 490 7 discriminator 3 view .LVU224
 490:ThirdPackage/lwip220/api/api_msg.c ****         /* let close succeed: the connection is closed after all... */
 778              		.loc 1 490 10 is_stmt 0 discriminator 3 view .LVU225
 779 00c0 042F     		cmp	r7, #4
 780 00c2 17D0     		beq	.L69
 495:ThirdPackage/lwip220/api/api_msg.c ****       }
 781              		.loc 1 495 9 is_stmt 1 view .LVU226
 495:ThirdPackage/lwip220/api/api_msg.c ****       }
 782              		.loc 1 495 13 is_stmt 0 view .LVU227
 783 00c4 236A     		ldr	r3, [r4, #32]
 495:ThirdPackage/lwip220/api/api_msg.c ****       }
 784              		.loc 1 495 32 view .LVU228
 785 00c6 1D71     		strb	r5, [r3, #4]
 786              	.L62:
 497:ThirdPackage/lwip220/api/api_msg.c ****       LWIP_ASSERT("invalid op_completed_sem", sys_sem_valid(op_completed_sem));
 787              		.loc 1 497 7 is_stmt 1 view .LVU229
 497:ThirdPackage/lwip220/api/api_msg.c ****       LWIP_ASSERT("invalid op_completed_sem", sys_sem_valid(op_completed_sem));
 788              		.loc 1 497 26 is_stmt 0 view .LVU230
 789 00c8 236A     		ldr	r3, [r4, #32]
 790 00ca 1D68     		ldr	r5, [r3]
 497:ThirdPackage/lwip220/api/api_msg.c ****       LWIP_ASSERT("invalid op_completed_sem", sys_sem_valid(op_completed_sem));
 791              		.loc 1 497 24 view .LVU231
 792 00cc 0C35     		adds	r5, r5, #12
 793              	.LVL82:
 498:ThirdPackage/lwip220/api/api_msg.c ****       conn->current_msg = NULL;
 794              		.loc 1 498 7 is_stmt 1 view .LVU232
 498:ThirdPackage/lwip220/api/api_msg.c ****       conn->current_msg = NULL;
 795              		.loc 1 498 7 view .LVU233
 796 00ce 2846     		mov	r0, r5
 797 00d0 FFF7FEFF 		bl	sys_sem_valid
 798              	.LVL83:
 799 00d4 90B1     		cbz	r0, .L70
 800              	.L63:
 498:ThirdPackage/lwip220/api/api_msg.c ****       conn->current_msg = NULL;
 801              		.loc 1 498 7 discriminator 3 view .LVU234
 498:ThirdPackage/lwip220/api/api_msg.c ****       conn->current_msg = NULL;
 802              		.loc 1 498 7 discriminator 3 view .LVU235
 499:ThirdPackage/lwip220/api/api_msg.c ****       /* wake up the waiting task */
 803              		.loc 1 499 7 discriminator 3 view .LVU236
 499:ThirdPackage/lwip220/api/api_msg.c ****       /* wake up the waiting task */
 804              		.loc 1 499 25 is_stmt 0 discriminator 3 view .LVU237
 805 00d6 0023     		movs	r3, #0
 806 00d8 2362     		str	r3, [r4, #32]
 501:ThirdPackage/lwip220/api/api_msg.c ****     } else {
 807              		.loc 1 501 7 is_stmt 1 discriminator 3 view .LVU238
 808 00da 2846     		mov	r0, r5
 809 00dc FFF7FEFF 		bl	sys_sem_signal
 810              	.LVL84:
 811              	.L50:
 501:ThirdPackage/lwip220/api/api_msg.c ****     } else {
ARM GAS  C:\Users\86188\AppData\Local\Temp\cccggEfL.s 			page 30


 812              		.loc 1 501 7 is_stmt 0 discriminator 3 view .LVU239
 813              	.LBE3:
 814              	.LBE2:
 508:ThirdPackage/lwip220/api/api_msg.c **** 
 815              		.loc 1 508 1 view .LVU240
 816 00e0 BDE8F081 		pop	{r4, r5, r6, r7, r8, pc}
 817              	.LVL85:
 818              	.L68:
 819              	.LBB5:
 820              	.LBB4:
 489:ThirdPackage/lwip220/api/api_msg.c ****       if (old_state == NETCONN_CLOSE) {
 821              		.loc 1 489 7 is_stmt 1 discriminator 1 view .LVU241
 489:ThirdPackage/lwip220/api/api_msg.c ****       if (old_state == NETCONN_CLOSE) {
 822              		.loc 1 489 7 discriminator 1 view .LVU242
 823 00e4 094B     		ldr	r3, .L71
 824 00e6 40F2E912 		movw	r2, #489
 825 00ea 0C49     		ldr	r1, .L71+16
 826 00ec 0948     		ldr	r0, .L71+8
 827 00ee FFF7FEFF 		bl	printf
 828              	.LVL86:
 829 00f2 E5E7     		b	.L60
 830              	.L69:
 492:ThirdPackage/lwip220/api/api_msg.c ****       } else {
 831              		.loc 1 492 9 view .LVU243
 492:ThirdPackage/lwip220/api/api_msg.c ****       } else {
 832              		.loc 1 492 13 is_stmt 0 view .LVU244
 833 00f4 236A     		ldr	r3, [r4, #32]
 492:ThirdPackage/lwip220/api/api_msg.c ****       } else {
 834              		.loc 1 492 32 view .LVU245
 835 00f6 0022     		movs	r2, #0
 836 00f8 1A71     		strb	r2, [r3, #4]
 837 00fa E5E7     		b	.L62
 838              	.LVL87:
 839              	.L70:
 498:ThirdPackage/lwip220/api/api_msg.c ****       conn->current_msg = NULL;
 840              		.loc 1 498 7 is_stmt 1 discriminator 1 view .LVU246
 498:ThirdPackage/lwip220/api/api_msg.c ****       conn->current_msg = NULL;
 841              		.loc 1 498 7 discriminator 1 view .LVU247
 842 00fc 034B     		ldr	r3, .L71
 843 00fe 4FF4F972 		mov	r2, #498
 844 0102 0749     		ldr	r1, .L71+20
 845 0104 0348     		ldr	r0, .L71+8
 846 0106 FFF7FEFF 		bl	printf
 847              	.LVL88:
 848 010a E4E7     		b	.L63
 849              	.L72:
 850              		.align	2
 851              	.L71:
 852 010c 00000000 		.word	.LC0
 853 0110 48000000 		.word	.LC10
 854 0114 34000000 		.word	.LC2
 855 0118 00000000 		.word	.LC7
 856 011c 10000000 		.word	.LC8
 857 0120 2C000000 		.word	.LC9
 858              	.LBE4:
 859              	.LBE5:
 860              		.cfi_endproc
ARM GAS  C:\Users\86188\AppData\Local\Temp\cccggEfL.s 			page 31


 861              	.LFE166:
 863              		.section	.rodata.lwip_netconn_do_connected.str1.4,"aMS",%progbits,1
 864              		.align	2
 865              	.LC11:
 866 0000 636F6E6E 		.ascii	"conn->state == NETCONN_CONNECT\000"
 866      2D3E7374 
 866      61746520 
 866      3D3D204E 
 866      4554434F 
 867 001f 00       		.align	2
 868              	.LC12:
 869 0020 28636F6E 		.ascii	"(conn->current_msg != NULL) || conn->in_non_blockin"
 869      6E2D3E63 
 869      75727265 
 869      6E745F6D 
 869      73672021 
 870 0053 675F636F 		.ascii	"g_connect\000"
 870      6E6E6563 
 870      7400
 871 005d 000000   		.align	2
 872              	.LC13:
 873 0060 626C6F63 		.ascii	"blocking connect state error\000"
 873      6B696E67 
 873      20636F6E 
 873      6E656374 
 873      20737461 
 874              		.section	.text.lwip_netconn_do_connected,"ax",%progbits
 875              		.align	1
 876              		.syntax unified
 877              		.thumb
 878              		.thumb_func
 880              	lwip_netconn_do_connected:
 881              	.LVL89:
 882              	.LFB178:
 675:ThirdPackage/lwip220/api/api_msg.c **** 
 676:ThirdPackage/lwip220/api/api_msg.c **** /**
 677:ThirdPackage/lwip220/api/api_msg.c ****  * Create a new pcb of a specific type inside a netconn.
 678:ThirdPackage/lwip220/api/api_msg.c ****  * Called from netconn_new_with_proto_and_callback.
 679:ThirdPackage/lwip220/api/api_msg.c ****  *
 680:ThirdPackage/lwip220/api/api_msg.c ****  * @param m the api_msg describing the connection type
 681:ThirdPackage/lwip220/api/api_msg.c ****  */
 682:ThirdPackage/lwip220/api/api_msg.c **** void
 683:ThirdPackage/lwip220/api/api_msg.c **** lwip_netconn_do_newconn(void *m)
 684:ThirdPackage/lwip220/api/api_msg.c **** {
 685:ThirdPackage/lwip220/api/api_msg.c ****   struct api_msg *msg = (struct api_msg *)m;
 686:ThirdPackage/lwip220/api/api_msg.c **** 
 687:ThirdPackage/lwip220/api/api_msg.c ****   msg->err = ERR_OK;
 688:ThirdPackage/lwip220/api/api_msg.c ****   if (msg->conn->pcb.tcp == NULL) {
 689:ThirdPackage/lwip220/api/api_msg.c ****     pcb_new(msg);
 690:ThirdPackage/lwip220/api/api_msg.c ****   }
 691:ThirdPackage/lwip220/api/api_msg.c ****   /* Else? This "new" connection already has a PCB allocated. */
 692:ThirdPackage/lwip220/api/api_msg.c ****   /* Is this an error condition? Should it be deleted? */
 693:ThirdPackage/lwip220/api/api_msg.c ****   /* We currently just are happy and return. */
 694:ThirdPackage/lwip220/api/api_msg.c **** 
 695:ThirdPackage/lwip220/api/api_msg.c ****   TCPIP_APIMSG_ACK(msg);
 696:ThirdPackage/lwip220/api/api_msg.c **** }
 697:ThirdPackage/lwip220/api/api_msg.c **** 
ARM GAS  C:\Users\86188\AppData\Local\Temp\cccggEfL.s 			page 32


 698:ThirdPackage/lwip220/api/api_msg.c **** /**
 699:ThirdPackage/lwip220/api/api_msg.c ****  * Create a new netconn (of a specific type) that has a callback function.
 700:ThirdPackage/lwip220/api/api_msg.c ****  * The corresponding pcb is NOT created!
 701:ThirdPackage/lwip220/api/api_msg.c ****  *
 702:ThirdPackage/lwip220/api/api_msg.c ****  * @param t the type of 'connection' to create (@see enum netconn_type)
 703:ThirdPackage/lwip220/api/api_msg.c ****  * @param callback a function to call on status changes (RX available, TX'ed)
 704:ThirdPackage/lwip220/api/api_msg.c ****  * @return a newly allocated struct netconn or
 705:ThirdPackage/lwip220/api/api_msg.c ****  *         NULL on memory error
 706:ThirdPackage/lwip220/api/api_msg.c ****  */
 707:ThirdPackage/lwip220/api/api_msg.c **** struct netconn *
 708:ThirdPackage/lwip220/api/api_msg.c **** netconn_alloc(enum netconn_type t, netconn_callback callback)
 709:ThirdPackage/lwip220/api/api_msg.c **** {
 710:ThirdPackage/lwip220/api/api_msg.c ****   struct netconn *conn;
 711:ThirdPackage/lwip220/api/api_msg.c ****   int size;
 712:ThirdPackage/lwip220/api/api_msg.c ****   u8_t init_flags = 0;
 713:ThirdPackage/lwip220/api/api_msg.c **** 
 714:ThirdPackage/lwip220/api/api_msg.c ****   conn = (struct netconn *)memp_malloc(MEMP_NETCONN);
 715:ThirdPackage/lwip220/api/api_msg.c ****   if (conn == NULL) {
 716:ThirdPackage/lwip220/api/api_msg.c ****     return NULL;
 717:ThirdPackage/lwip220/api/api_msg.c ****   }
 718:ThirdPackage/lwip220/api/api_msg.c **** 
 719:ThirdPackage/lwip220/api/api_msg.c ****   conn->pending_err = ERR_OK;
 720:ThirdPackage/lwip220/api/api_msg.c ****   conn->type = t;
 721:ThirdPackage/lwip220/api/api_msg.c ****   conn->pcb.tcp = NULL;
 722:ThirdPackage/lwip220/api/api_msg.c **** #if LWIP_NETCONN_FULLDUPLEX
 723:ThirdPackage/lwip220/api/api_msg.c ****   conn->mbox_threads_waiting = 0;
 724:ThirdPackage/lwip220/api/api_msg.c **** #endif
 725:ThirdPackage/lwip220/api/api_msg.c **** 
 726:ThirdPackage/lwip220/api/api_msg.c ****   /* If all sizes are the same, every compiler should optimize this switch to nothing */
 727:ThirdPackage/lwip220/api/api_msg.c ****   switch (NETCONNTYPE_GROUP(t)) {
 728:ThirdPackage/lwip220/api/api_msg.c **** #if LWIP_RAW
 729:ThirdPackage/lwip220/api/api_msg.c ****     case NETCONN_RAW:
 730:ThirdPackage/lwip220/api/api_msg.c ****       size = DEFAULT_RAW_RECVMBOX_SIZE;
 731:ThirdPackage/lwip220/api/api_msg.c ****       break;
 732:ThirdPackage/lwip220/api/api_msg.c **** #endif /* LWIP_RAW */
 733:ThirdPackage/lwip220/api/api_msg.c **** #if LWIP_UDP
 734:ThirdPackage/lwip220/api/api_msg.c ****     case NETCONN_UDP:
 735:ThirdPackage/lwip220/api/api_msg.c ****       size = DEFAULT_UDP_RECVMBOX_SIZE;
 736:ThirdPackage/lwip220/api/api_msg.c **** #if LWIP_NETBUF_RECVINFO
 737:ThirdPackage/lwip220/api/api_msg.c ****       init_flags |= NETCONN_FLAG_PKTINFO;
 738:ThirdPackage/lwip220/api/api_msg.c **** #endif /* LWIP_NETBUF_RECVINFO */
 739:ThirdPackage/lwip220/api/api_msg.c ****       break;
 740:ThirdPackage/lwip220/api/api_msg.c **** #endif /* LWIP_UDP */
 741:ThirdPackage/lwip220/api/api_msg.c **** #if LWIP_TCP
 742:ThirdPackage/lwip220/api/api_msg.c ****     case NETCONN_TCP:
 743:ThirdPackage/lwip220/api/api_msg.c ****       size = DEFAULT_TCP_RECVMBOX_SIZE;
 744:ThirdPackage/lwip220/api/api_msg.c ****       break;
 745:ThirdPackage/lwip220/api/api_msg.c **** #endif /* LWIP_TCP */
 746:ThirdPackage/lwip220/api/api_msg.c ****     default:
 747:ThirdPackage/lwip220/api/api_msg.c ****       LWIP_ASSERT("netconn_alloc: undefined netconn_type", 0);
 748:ThirdPackage/lwip220/api/api_msg.c ****       goto free_and_return;
 749:ThirdPackage/lwip220/api/api_msg.c ****   }
 750:ThirdPackage/lwip220/api/api_msg.c **** 
 751:ThirdPackage/lwip220/api/api_msg.c ****   if (sys_mbox_new(&conn->recvmbox, size) != ERR_OK) {
 752:ThirdPackage/lwip220/api/api_msg.c ****     goto free_and_return;
 753:ThirdPackage/lwip220/api/api_msg.c ****   }
 754:ThirdPackage/lwip220/api/api_msg.c **** #if !LWIP_NETCONN_SEM_PER_THREAD
ARM GAS  C:\Users\86188\AppData\Local\Temp\cccggEfL.s 			page 33


 755:ThirdPackage/lwip220/api/api_msg.c ****   if (sys_sem_new(&conn->op_completed, 0) != ERR_OK) {
 756:ThirdPackage/lwip220/api/api_msg.c ****     sys_mbox_free(&conn->recvmbox);
 757:ThirdPackage/lwip220/api/api_msg.c ****     goto free_and_return;
 758:ThirdPackage/lwip220/api/api_msg.c ****   }
 759:ThirdPackage/lwip220/api/api_msg.c **** #endif
 760:ThirdPackage/lwip220/api/api_msg.c **** 
 761:ThirdPackage/lwip220/api/api_msg.c **** #if LWIP_TCP
 762:ThirdPackage/lwip220/api/api_msg.c ****   sys_mbox_set_invalid(&conn->acceptmbox);
 763:ThirdPackage/lwip220/api/api_msg.c **** #endif
 764:ThirdPackage/lwip220/api/api_msg.c ****   conn->state        = NETCONN_NONE;
 765:ThirdPackage/lwip220/api/api_msg.c ****   /* initialize socket to -1 since 0 is a valid socket */
 766:ThirdPackage/lwip220/api/api_msg.c ****   conn->callback_arg.socket = -1;
 767:ThirdPackage/lwip220/api/api_msg.c ****   conn->callback     = callback;
 768:ThirdPackage/lwip220/api/api_msg.c **** #if LWIP_TCP
 769:ThirdPackage/lwip220/api/api_msg.c ****   conn->current_msg  = NULL;
 770:ThirdPackage/lwip220/api/api_msg.c **** #endif /* LWIP_TCP */
 771:ThirdPackage/lwip220/api/api_msg.c **** #if LWIP_SO_SNDTIMEO
 772:ThirdPackage/lwip220/api/api_msg.c ****   conn->send_timeout = 0;
 773:ThirdPackage/lwip220/api/api_msg.c **** #endif /* LWIP_SO_SNDTIMEO */
 774:ThirdPackage/lwip220/api/api_msg.c **** #if LWIP_SO_RCVTIMEO
 775:ThirdPackage/lwip220/api/api_msg.c ****   conn->recv_timeout = 0;
 776:ThirdPackage/lwip220/api/api_msg.c **** #endif /* LWIP_SO_RCVTIMEO */
 777:ThirdPackage/lwip220/api/api_msg.c **** #if LWIP_SO_RCVBUF
 778:ThirdPackage/lwip220/api/api_msg.c ****   conn->recv_bufsize = RECV_BUFSIZE_DEFAULT;
 779:ThirdPackage/lwip220/api/api_msg.c ****   conn->recv_avail   = 0;
 780:ThirdPackage/lwip220/api/api_msg.c **** #endif /* LWIP_SO_RCVBUF */
 781:ThirdPackage/lwip220/api/api_msg.c **** #if LWIP_SO_LINGER
 782:ThirdPackage/lwip220/api/api_msg.c ****   conn->linger = -1;
 783:ThirdPackage/lwip220/api/api_msg.c **** #endif /* LWIP_SO_LINGER */
 784:ThirdPackage/lwip220/api/api_msg.c ****   conn->flags = init_flags;
 785:ThirdPackage/lwip220/api/api_msg.c ****   return conn;
 786:ThirdPackage/lwip220/api/api_msg.c **** free_and_return:
 787:ThirdPackage/lwip220/api/api_msg.c ****   memp_free(MEMP_NETCONN, conn);
 788:ThirdPackage/lwip220/api/api_msg.c ****   return NULL;
 789:ThirdPackage/lwip220/api/api_msg.c **** }
 790:ThirdPackage/lwip220/api/api_msg.c **** 
 791:ThirdPackage/lwip220/api/api_msg.c **** /**
 792:ThirdPackage/lwip220/api/api_msg.c ****  * Delete a netconn and all its resources.
 793:ThirdPackage/lwip220/api/api_msg.c ****  * The pcb is NOT freed (since we might not be in the right thread context do this).
 794:ThirdPackage/lwip220/api/api_msg.c ****  *
 795:ThirdPackage/lwip220/api/api_msg.c ****  * @param conn the netconn to free
 796:ThirdPackage/lwip220/api/api_msg.c ****  */
 797:ThirdPackage/lwip220/api/api_msg.c **** void
 798:ThirdPackage/lwip220/api/api_msg.c **** netconn_free(struct netconn *conn)
 799:ThirdPackage/lwip220/api/api_msg.c **** {
 800:ThirdPackage/lwip220/api/api_msg.c ****   LWIP_ASSERT("PCB must be deallocated outside this function", conn->pcb.tcp == NULL);
 801:ThirdPackage/lwip220/api/api_msg.c **** 
 802:ThirdPackage/lwip220/api/api_msg.c **** #if LWIP_NETCONN_FULLDUPLEX
 803:ThirdPackage/lwip220/api/api_msg.c ****   /* in fullduplex, netconn is drained here */
 804:ThirdPackage/lwip220/api/api_msg.c ****   netconn_drain(conn);
 805:ThirdPackage/lwip220/api/api_msg.c **** #endif /* LWIP_NETCONN_FULLDUPLEX */
 806:ThirdPackage/lwip220/api/api_msg.c **** 
 807:ThirdPackage/lwip220/api/api_msg.c ****   LWIP_ASSERT("recvmbox must be deallocated before calling this function",
 808:ThirdPackage/lwip220/api/api_msg.c ****               !sys_mbox_valid(&conn->recvmbox));
 809:ThirdPackage/lwip220/api/api_msg.c **** #if LWIP_TCP
 810:ThirdPackage/lwip220/api/api_msg.c ****   LWIP_ASSERT("acceptmbox must be deallocated before calling this function",
 811:ThirdPackage/lwip220/api/api_msg.c ****               !sys_mbox_valid(&conn->acceptmbox));
ARM GAS  C:\Users\86188\AppData\Local\Temp\cccggEfL.s 			page 34


 812:ThirdPackage/lwip220/api/api_msg.c **** #endif /* LWIP_TCP */
 813:ThirdPackage/lwip220/api/api_msg.c **** 
 814:ThirdPackage/lwip220/api/api_msg.c **** #if !LWIP_NETCONN_SEM_PER_THREAD
 815:ThirdPackage/lwip220/api/api_msg.c ****   sys_sem_free(&conn->op_completed);
 816:ThirdPackage/lwip220/api/api_msg.c ****   sys_sem_set_invalid(&conn->op_completed);
 817:ThirdPackage/lwip220/api/api_msg.c **** #endif
 818:ThirdPackage/lwip220/api/api_msg.c **** 
 819:ThirdPackage/lwip220/api/api_msg.c ****   memp_free(MEMP_NETCONN, conn);
 820:ThirdPackage/lwip220/api/api_msg.c **** }
 821:ThirdPackage/lwip220/api/api_msg.c **** 
 822:ThirdPackage/lwip220/api/api_msg.c **** /**
 823:ThirdPackage/lwip220/api/api_msg.c ****  * Delete rcvmbox and acceptmbox of a netconn and free the left-over data in
 824:ThirdPackage/lwip220/api/api_msg.c ****  * these mboxes
 825:ThirdPackage/lwip220/api/api_msg.c ****  *
 826:ThirdPackage/lwip220/api/api_msg.c ****  * @param conn the netconn to free
 827:ThirdPackage/lwip220/api/api_msg.c ****  * @bytes_drained bytes drained from recvmbox
 828:ThirdPackage/lwip220/api/api_msg.c ****  * @accepts_drained pending connections drained from acceptmbox
 829:ThirdPackage/lwip220/api/api_msg.c ****  */
 830:ThirdPackage/lwip220/api/api_msg.c **** static void
 831:ThirdPackage/lwip220/api/api_msg.c **** netconn_drain(struct netconn *conn)
 832:ThirdPackage/lwip220/api/api_msg.c **** {
 833:ThirdPackage/lwip220/api/api_msg.c ****   void *mem;
 834:ThirdPackage/lwip220/api/api_msg.c **** 
 835:ThirdPackage/lwip220/api/api_msg.c ****   /* This runs when mbox and netconn are marked as closed,
 836:ThirdPackage/lwip220/api/api_msg.c ****      so we don't need to lock against rx packets */
 837:ThirdPackage/lwip220/api/api_msg.c **** #if LWIP_NETCONN_FULLDUPLEX
 838:ThirdPackage/lwip220/api/api_msg.c ****   LWIP_ASSERT("netconn marked closed", conn->flags & NETCONN_FLAG_MBOXINVALID);
 839:ThirdPackage/lwip220/api/api_msg.c **** #endif /* LWIP_NETCONN_FULLDUPLEX */
 840:ThirdPackage/lwip220/api/api_msg.c **** 
 841:ThirdPackage/lwip220/api/api_msg.c ****   /* Delete and drain the recvmbox. */
 842:ThirdPackage/lwip220/api/api_msg.c ****   if (sys_mbox_valid(&conn->recvmbox)) {
 843:ThirdPackage/lwip220/api/api_msg.c ****     while (sys_mbox_tryfetch(&conn->recvmbox, &mem) != SYS_MBOX_EMPTY) {
 844:ThirdPackage/lwip220/api/api_msg.c **** #if LWIP_NETCONN_FULLDUPLEX
 845:ThirdPackage/lwip220/api/api_msg.c ****       if (!lwip_netconn_is_deallocated_msg(mem))
 846:ThirdPackage/lwip220/api/api_msg.c **** #endif /* LWIP_NETCONN_FULLDUPLEX */
 847:ThirdPackage/lwip220/api/api_msg.c ****       {
 848:ThirdPackage/lwip220/api/api_msg.c **** #if LWIP_TCP
 849:ThirdPackage/lwip220/api/api_msg.c ****         if (NETCONNTYPE_GROUP(conn->type) == NETCONN_TCP) {
 850:ThirdPackage/lwip220/api/api_msg.c ****           err_t err;
 851:ThirdPackage/lwip220/api/api_msg.c ****           if (!lwip_netconn_is_err_msg(mem, &err)) {
 852:ThirdPackage/lwip220/api/api_msg.c ****             pbuf_free((struct pbuf *)mem);
 853:ThirdPackage/lwip220/api/api_msg.c ****           }
 854:ThirdPackage/lwip220/api/api_msg.c ****         } else
 855:ThirdPackage/lwip220/api/api_msg.c **** #endif /* LWIP_TCP */
 856:ThirdPackage/lwip220/api/api_msg.c ****         {
 857:ThirdPackage/lwip220/api/api_msg.c ****           netbuf_delete((struct netbuf *)mem);
 858:ThirdPackage/lwip220/api/api_msg.c ****         }
 859:ThirdPackage/lwip220/api/api_msg.c ****       }
 860:ThirdPackage/lwip220/api/api_msg.c ****     }
 861:ThirdPackage/lwip220/api/api_msg.c ****     sys_mbox_free(&conn->recvmbox);
 862:ThirdPackage/lwip220/api/api_msg.c ****     sys_mbox_set_invalid(&conn->recvmbox);
 863:ThirdPackage/lwip220/api/api_msg.c ****   }
 864:ThirdPackage/lwip220/api/api_msg.c **** 
 865:ThirdPackage/lwip220/api/api_msg.c ****   /* Delete and drain the acceptmbox. */
 866:ThirdPackage/lwip220/api/api_msg.c **** #if LWIP_TCP
 867:ThirdPackage/lwip220/api/api_msg.c ****   if (sys_mbox_valid(&conn->acceptmbox)) {
 868:ThirdPackage/lwip220/api/api_msg.c ****     while (sys_mbox_tryfetch(&conn->acceptmbox, &mem) != SYS_MBOX_EMPTY) {
ARM GAS  C:\Users\86188\AppData\Local\Temp\cccggEfL.s 			page 35


 869:ThirdPackage/lwip220/api/api_msg.c **** #if LWIP_NETCONN_FULLDUPLEX
 870:ThirdPackage/lwip220/api/api_msg.c ****       if (!lwip_netconn_is_deallocated_msg(mem))
 871:ThirdPackage/lwip220/api/api_msg.c **** #endif /* LWIP_NETCONN_FULLDUPLEX */
 872:ThirdPackage/lwip220/api/api_msg.c ****       {
 873:ThirdPackage/lwip220/api/api_msg.c ****         err_t err;
 874:ThirdPackage/lwip220/api/api_msg.c ****         if (!lwip_netconn_is_err_msg(mem, &err)) {
 875:ThirdPackage/lwip220/api/api_msg.c ****           struct netconn *newconn = (struct netconn *)mem;
 876:ThirdPackage/lwip220/api/api_msg.c ****           /* Only tcp pcbs have an acceptmbox, so no need to check conn->type */
 877:ThirdPackage/lwip220/api/api_msg.c ****           /* pcb might be set to NULL already by err_tcp() */
 878:ThirdPackage/lwip220/api/api_msg.c ****           /* drain recvmbox */
 879:ThirdPackage/lwip220/api/api_msg.c ****           netconn_drain(newconn);
 880:ThirdPackage/lwip220/api/api_msg.c ****           if (newconn->pcb.tcp != NULL) {
 881:ThirdPackage/lwip220/api/api_msg.c ****             tcp_abort(newconn->pcb.tcp);
 882:ThirdPackage/lwip220/api/api_msg.c ****             newconn->pcb.tcp = NULL;
 883:ThirdPackage/lwip220/api/api_msg.c ****           }
 884:ThirdPackage/lwip220/api/api_msg.c ****           netconn_free(newconn);
 885:ThirdPackage/lwip220/api/api_msg.c ****         }
 886:ThirdPackage/lwip220/api/api_msg.c ****       }
 887:ThirdPackage/lwip220/api/api_msg.c ****     }
 888:ThirdPackage/lwip220/api/api_msg.c ****     sys_mbox_free(&conn->acceptmbox);
 889:ThirdPackage/lwip220/api/api_msg.c ****     sys_mbox_set_invalid(&conn->acceptmbox);
 890:ThirdPackage/lwip220/api/api_msg.c ****   }
 891:ThirdPackage/lwip220/api/api_msg.c **** #endif /* LWIP_TCP */
 892:ThirdPackage/lwip220/api/api_msg.c **** }
 893:ThirdPackage/lwip220/api/api_msg.c **** 
 894:ThirdPackage/lwip220/api/api_msg.c **** #if LWIP_NETCONN_FULLDUPLEX
 895:ThirdPackage/lwip220/api/api_msg.c **** static void
 896:ThirdPackage/lwip220/api/api_msg.c **** netconn_mark_mbox_invalid(struct netconn *conn)
 897:ThirdPackage/lwip220/api/api_msg.c **** {
 898:ThirdPackage/lwip220/api/api_msg.c ****   int i, num_waiting;
 899:ThirdPackage/lwip220/api/api_msg.c ****   void *msg = LWIP_CONST_CAST(void *, &netconn_deleted);
 900:ThirdPackage/lwip220/api/api_msg.c **** 
 901:ThirdPackage/lwip220/api/api_msg.c ****   /* Prevent new calls/threads from reading from the mbox */
 902:ThirdPackage/lwip220/api/api_msg.c ****   conn->flags |= NETCONN_FLAG_MBOXINVALID;
 903:ThirdPackage/lwip220/api/api_msg.c **** 
 904:ThirdPackage/lwip220/api/api_msg.c ****   SYS_ARCH_LOCKED(num_waiting = conn->mbox_threads_waiting);
 905:ThirdPackage/lwip220/api/api_msg.c ****   for (i = 0; i < num_waiting; i++) {
 906:ThirdPackage/lwip220/api/api_msg.c ****     if (sys_mbox_valid_val(conn->recvmbox)) {
 907:ThirdPackage/lwip220/api/api_msg.c ****       sys_mbox_trypost(&conn->recvmbox, msg);
 908:ThirdPackage/lwip220/api/api_msg.c ****     } else {
 909:ThirdPackage/lwip220/api/api_msg.c ****       sys_mbox_trypost(&conn->acceptmbox, msg);
 910:ThirdPackage/lwip220/api/api_msg.c ****     }
 911:ThirdPackage/lwip220/api/api_msg.c ****   }
 912:ThirdPackage/lwip220/api/api_msg.c **** }
 913:ThirdPackage/lwip220/api/api_msg.c **** #endif /* LWIP_NETCONN_FULLDUPLEX */
 914:ThirdPackage/lwip220/api/api_msg.c **** 
 915:ThirdPackage/lwip220/api/api_msg.c **** #if LWIP_TCP
 916:ThirdPackage/lwip220/api/api_msg.c **** /**
 917:ThirdPackage/lwip220/api/api_msg.c ****  * Internal helper function to close a TCP netconn: since this sometimes
 918:ThirdPackage/lwip220/api/api_msg.c ****  * doesn't work at the first attempt, this function is called from multiple
 919:ThirdPackage/lwip220/api/api_msg.c ****  * places.
 920:ThirdPackage/lwip220/api/api_msg.c ****  *
 921:ThirdPackage/lwip220/api/api_msg.c ****  * @param conn the TCP netconn to close
 922:ThirdPackage/lwip220/api/api_msg.c ****  */
 923:ThirdPackage/lwip220/api/api_msg.c **** static err_t
 924:ThirdPackage/lwip220/api/api_msg.c **** lwip_netconn_do_close_internal(struct netconn *conn  WRITE_DELAYED_PARAM)
 925:ThirdPackage/lwip220/api/api_msg.c **** {
ARM GAS  C:\Users\86188\AppData\Local\Temp\cccggEfL.s 			page 36


 926:ThirdPackage/lwip220/api/api_msg.c ****   err_t err;
 927:ThirdPackage/lwip220/api/api_msg.c ****   u8_t shut, shut_rx, shut_tx, shut_close;
 928:ThirdPackage/lwip220/api/api_msg.c ****   u8_t close_finished = 0;
 929:ThirdPackage/lwip220/api/api_msg.c ****   struct tcp_pcb *tpcb;
 930:ThirdPackage/lwip220/api/api_msg.c **** #if LWIP_SO_LINGER
 931:ThirdPackage/lwip220/api/api_msg.c ****   u8_t linger_wait_required = 0;
 932:ThirdPackage/lwip220/api/api_msg.c **** #endif /* LWIP_SO_LINGER */
 933:ThirdPackage/lwip220/api/api_msg.c **** 
 934:ThirdPackage/lwip220/api/api_msg.c ****   LWIP_ASSERT("invalid conn", (conn != NULL));
 935:ThirdPackage/lwip220/api/api_msg.c ****   LWIP_ASSERT("this is for tcp netconns only", (NETCONNTYPE_GROUP(conn->type) == NETCONN_TCP));
 936:ThirdPackage/lwip220/api/api_msg.c ****   LWIP_ASSERT("conn must be in state NETCONN_CLOSE", (conn->state == NETCONN_CLOSE));
 937:ThirdPackage/lwip220/api/api_msg.c ****   LWIP_ASSERT("pcb already closed", (conn->pcb.tcp != NULL));
 938:ThirdPackage/lwip220/api/api_msg.c ****   LWIP_ASSERT("conn->current_msg != NULL", conn->current_msg != NULL);
 939:ThirdPackage/lwip220/api/api_msg.c **** 
 940:ThirdPackage/lwip220/api/api_msg.c ****   tpcb = conn->pcb.tcp;
 941:ThirdPackage/lwip220/api/api_msg.c ****   shut = conn->current_msg->msg.sd.shut;
 942:ThirdPackage/lwip220/api/api_msg.c ****   shut_rx = shut & NETCONN_SHUT_RD;
 943:ThirdPackage/lwip220/api/api_msg.c ****   shut_tx = shut & NETCONN_SHUT_WR;
 944:ThirdPackage/lwip220/api/api_msg.c ****   /* shutting down both ends is the same as closing
 945:ThirdPackage/lwip220/api/api_msg.c ****      (also if RD or WR side was shut down before already) */
 946:ThirdPackage/lwip220/api/api_msg.c ****   if (shut == NETCONN_SHUT_RDWR) {
 947:ThirdPackage/lwip220/api/api_msg.c ****     shut_close = 1;
 948:ThirdPackage/lwip220/api/api_msg.c ****   } else if (shut_rx &&
 949:ThirdPackage/lwip220/api/api_msg.c ****              ((tpcb->state == FIN_WAIT_1) ||
 950:ThirdPackage/lwip220/api/api_msg.c ****               (tpcb->state == FIN_WAIT_2) ||
 951:ThirdPackage/lwip220/api/api_msg.c ****               (tpcb->state == CLOSING))) {
 952:ThirdPackage/lwip220/api/api_msg.c ****     shut_close = 1;
 953:ThirdPackage/lwip220/api/api_msg.c ****   } else if (shut_tx && ((tpcb->flags & TF_RXCLOSED) != 0)) {
 954:ThirdPackage/lwip220/api/api_msg.c ****     shut_close = 1;
 955:ThirdPackage/lwip220/api/api_msg.c ****   } else {
 956:ThirdPackage/lwip220/api/api_msg.c ****     shut_close = 0;
 957:ThirdPackage/lwip220/api/api_msg.c ****   }
 958:ThirdPackage/lwip220/api/api_msg.c **** 
 959:ThirdPackage/lwip220/api/api_msg.c ****   /* Set back some callback pointers */
 960:ThirdPackage/lwip220/api/api_msg.c ****   if (shut_close) {
 961:ThirdPackage/lwip220/api/api_msg.c ****     tcp_arg(tpcb, NULL);
 962:ThirdPackage/lwip220/api/api_msg.c ****   }
 963:ThirdPackage/lwip220/api/api_msg.c ****   if (tpcb->state == LISTEN) {
 964:ThirdPackage/lwip220/api/api_msg.c ****     tcp_accept(tpcb, NULL);
 965:ThirdPackage/lwip220/api/api_msg.c ****   } else {
 966:ThirdPackage/lwip220/api/api_msg.c ****     /* some callbacks have to be reset if tcp_close is not successful */
 967:ThirdPackage/lwip220/api/api_msg.c ****     if (shut_rx) {
 968:ThirdPackage/lwip220/api/api_msg.c ****       tcp_recv(tpcb, NULL);
 969:ThirdPackage/lwip220/api/api_msg.c ****       tcp_accept(tpcb, NULL);
 970:ThirdPackage/lwip220/api/api_msg.c ****     }
 971:ThirdPackage/lwip220/api/api_msg.c ****     if (shut_tx) {
 972:ThirdPackage/lwip220/api/api_msg.c ****       tcp_sent(tpcb, NULL);
 973:ThirdPackage/lwip220/api/api_msg.c ****     }
 974:ThirdPackage/lwip220/api/api_msg.c ****     if (shut_close) {
 975:ThirdPackage/lwip220/api/api_msg.c ****       tcp_poll(tpcb, NULL, 0);
 976:ThirdPackage/lwip220/api/api_msg.c ****       tcp_err(tpcb, NULL);
 977:ThirdPackage/lwip220/api/api_msg.c ****     }
 978:ThirdPackage/lwip220/api/api_msg.c ****   }
 979:ThirdPackage/lwip220/api/api_msg.c ****   /* Try to close the connection */
 980:ThirdPackage/lwip220/api/api_msg.c ****   if (shut_close) {
 981:ThirdPackage/lwip220/api/api_msg.c **** #if LWIP_SO_LINGER
 982:ThirdPackage/lwip220/api/api_msg.c ****     /* check linger possibilities before calling tcp_close */
ARM GAS  C:\Users\86188\AppData\Local\Temp\cccggEfL.s 			page 37


 983:ThirdPackage/lwip220/api/api_msg.c ****     err = ERR_OK;
 984:ThirdPackage/lwip220/api/api_msg.c ****     /* linger enabled/required at all? (i.e. is there untransmitted data left?) */
 985:ThirdPackage/lwip220/api/api_msg.c ****     if ((conn->linger >= 0) && (conn->pcb.tcp->unsent || conn->pcb.tcp->unacked)) {
 986:ThirdPackage/lwip220/api/api_msg.c ****       if ((conn->linger == 0)) {
 987:ThirdPackage/lwip220/api/api_msg.c ****         /* data left but linger prevents waiting */
 988:ThirdPackage/lwip220/api/api_msg.c ****         tcp_abort(tpcb);
 989:ThirdPackage/lwip220/api/api_msg.c ****         tpcb = NULL;
 990:ThirdPackage/lwip220/api/api_msg.c ****       } else if (conn->linger > 0) {
 991:ThirdPackage/lwip220/api/api_msg.c ****         /* data left and linger says we should wait */
 992:ThirdPackage/lwip220/api/api_msg.c ****         if (netconn_is_nonblocking(conn)) {
 993:ThirdPackage/lwip220/api/api_msg.c ****           /* data left on a nonblocking netconn -> cannot linger */
 994:ThirdPackage/lwip220/api/api_msg.c ****           err = ERR_WOULDBLOCK;
 995:ThirdPackage/lwip220/api/api_msg.c ****         } else if ((s32_t)(sys_now() - conn->current_msg->msg.sd.time_started) >=
 996:ThirdPackage/lwip220/api/api_msg.c ****                    (conn->linger * 1000)) {
 997:ThirdPackage/lwip220/api/api_msg.c ****           /* data left but linger timeout has expired (this happens on further
 998:ThirdPackage/lwip220/api/api_msg.c ****              calls to this function through poll_tcp */
 999:ThirdPackage/lwip220/api/api_msg.c ****           tcp_abort(tpcb);
1000:ThirdPackage/lwip220/api/api_msg.c ****           tpcb = NULL;
1001:ThirdPackage/lwip220/api/api_msg.c ****         } else {
1002:ThirdPackage/lwip220/api/api_msg.c ****           /* data left -> need to wait for ACK after successful close */
1003:ThirdPackage/lwip220/api/api_msg.c ****           linger_wait_required = 1;
1004:ThirdPackage/lwip220/api/api_msg.c ****         }
1005:ThirdPackage/lwip220/api/api_msg.c ****       }
1006:ThirdPackage/lwip220/api/api_msg.c ****     }
1007:ThirdPackage/lwip220/api/api_msg.c ****     if ((err == ERR_OK) && (tpcb != NULL))
1008:ThirdPackage/lwip220/api/api_msg.c **** #endif /* LWIP_SO_LINGER */
1009:ThirdPackage/lwip220/api/api_msg.c ****     {
1010:ThirdPackage/lwip220/api/api_msg.c ****       err = tcp_close(tpcb);
1011:ThirdPackage/lwip220/api/api_msg.c ****     }
1012:ThirdPackage/lwip220/api/api_msg.c ****   } else {
1013:ThirdPackage/lwip220/api/api_msg.c ****     err = tcp_shutdown(tpcb, shut_rx, shut_tx);
1014:ThirdPackage/lwip220/api/api_msg.c ****   }
1015:ThirdPackage/lwip220/api/api_msg.c ****   if (err == ERR_OK) {
1016:ThirdPackage/lwip220/api/api_msg.c ****     close_finished = 1;
1017:ThirdPackage/lwip220/api/api_msg.c **** #if LWIP_SO_LINGER
1018:ThirdPackage/lwip220/api/api_msg.c ****     if (linger_wait_required) {
1019:ThirdPackage/lwip220/api/api_msg.c ****       /* wait for ACK of all unsent/unacked data by just getting called again */
1020:ThirdPackage/lwip220/api/api_msg.c ****       close_finished = 0;
1021:ThirdPackage/lwip220/api/api_msg.c ****       err = ERR_INPROGRESS;
1022:ThirdPackage/lwip220/api/api_msg.c ****     }
1023:ThirdPackage/lwip220/api/api_msg.c **** #endif /* LWIP_SO_LINGER */
1024:ThirdPackage/lwip220/api/api_msg.c ****   } else {
1025:ThirdPackage/lwip220/api/api_msg.c ****     if (err == ERR_MEM) {
1026:ThirdPackage/lwip220/api/api_msg.c ****       /* Closing failed because of memory shortage, try again later. Even for
1027:ThirdPackage/lwip220/api/api_msg.c ****          nonblocking netconns, we have to wait since no standard socket application
1028:ThirdPackage/lwip220/api/api_msg.c ****          is prepared for close failing because of resource shortage.
1029:ThirdPackage/lwip220/api/api_msg.c ****          Check the timeout: this is kind of an lwip addition to the standard sockets:
1030:ThirdPackage/lwip220/api/api_msg.c ****          we wait for some time when failing to allocate a segment for the FIN */
1031:ThirdPackage/lwip220/api/api_msg.c **** #if LWIP_SO_SNDTIMEO || LWIP_SO_LINGER
1032:ThirdPackage/lwip220/api/api_msg.c ****       s32_t close_timeout = LWIP_TCP_CLOSE_TIMEOUT_MS_DEFAULT;
1033:ThirdPackage/lwip220/api/api_msg.c **** #if LWIP_SO_SNDTIMEO
1034:ThirdPackage/lwip220/api/api_msg.c ****       if (conn->send_timeout > 0) {
1035:ThirdPackage/lwip220/api/api_msg.c ****         close_timeout = conn->send_timeout;
1036:ThirdPackage/lwip220/api/api_msg.c ****       }
1037:ThirdPackage/lwip220/api/api_msg.c **** #endif /* LWIP_SO_SNDTIMEO */
1038:ThirdPackage/lwip220/api/api_msg.c **** #if LWIP_SO_LINGER
1039:ThirdPackage/lwip220/api/api_msg.c ****       if (conn->linger >= 0) {
ARM GAS  C:\Users\86188\AppData\Local\Temp\cccggEfL.s 			page 38


1040:ThirdPackage/lwip220/api/api_msg.c ****         /* use linger timeout (seconds) */
1041:ThirdPackage/lwip220/api/api_msg.c ****         close_timeout = conn->linger * 1000U;
1042:ThirdPackage/lwip220/api/api_msg.c ****       }
1043:ThirdPackage/lwip220/api/api_msg.c **** #endif
1044:ThirdPackage/lwip220/api/api_msg.c ****       if ((s32_t)(sys_now() - conn->current_msg->msg.sd.time_started) >= close_timeout) {
1045:ThirdPackage/lwip220/api/api_msg.c **** #else /* LWIP_SO_SNDTIMEO || LWIP_SO_LINGER */
1046:ThirdPackage/lwip220/api/api_msg.c ****       if (conn->current_msg->msg.sd.polls_left == 0) {
1047:ThirdPackage/lwip220/api/api_msg.c **** #endif /* LWIP_SO_SNDTIMEO || LWIP_SO_LINGER */
1048:ThirdPackage/lwip220/api/api_msg.c ****         close_finished = 1;
1049:ThirdPackage/lwip220/api/api_msg.c ****         if (shut_close) {
1050:ThirdPackage/lwip220/api/api_msg.c ****           /* in this case, we want to RST the connection */
1051:ThirdPackage/lwip220/api/api_msg.c ****           tcp_abort(tpcb);
1052:ThirdPackage/lwip220/api/api_msg.c ****           err = ERR_OK;
1053:ThirdPackage/lwip220/api/api_msg.c ****         }
1054:ThirdPackage/lwip220/api/api_msg.c ****       }
1055:ThirdPackage/lwip220/api/api_msg.c ****     } else {
1056:ThirdPackage/lwip220/api/api_msg.c ****       /* Closing failed for a non-memory error: give up */
1057:ThirdPackage/lwip220/api/api_msg.c ****       close_finished = 1;
1058:ThirdPackage/lwip220/api/api_msg.c ****     }
1059:ThirdPackage/lwip220/api/api_msg.c ****   }
1060:ThirdPackage/lwip220/api/api_msg.c ****   if (close_finished) {
1061:ThirdPackage/lwip220/api/api_msg.c ****     /* Closing done (succeeded, non-memory error, nonblocking error or timeout) */
1062:ThirdPackage/lwip220/api/api_msg.c ****     sys_sem_t *op_completed_sem = LWIP_API_MSG_SEM(conn->current_msg);
1063:ThirdPackage/lwip220/api/api_msg.c ****     conn->current_msg->err = err;
1064:ThirdPackage/lwip220/api/api_msg.c ****     conn->current_msg = NULL;
1065:ThirdPackage/lwip220/api/api_msg.c ****     conn->state = NETCONN_NONE;
1066:ThirdPackage/lwip220/api/api_msg.c ****     if (err == ERR_OK) {
1067:ThirdPackage/lwip220/api/api_msg.c ****       if (shut_close) {
1068:ThirdPackage/lwip220/api/api_msg.c ****         /* Set back some callback pointers as conn is going away */
1069:ThirdPackage/lwip220/api/api_msg.c ****         conn->pcb.tcp = NULL;
1070:ThirdPackage/lwip220/api/api_msg.c ****         /* Trigger select() in socket layer. Make sure everybody notices activity
1071:ThirdPackage/lwip220/api/api_msg.c ****          on the connection, error first! */
1072:ThirdPackage/lwip220/api/api_msg.c ****         API_EVENT(conn, NETCONN_EVT_ERROR, 0);
1073:ThirdPackage/lwip220/api/api_msg.c ****       }
1074:ThirdPackage/lwip220/api/api_msg.c ****       if (shut_rx) {
1075:ThirdPackage/lwip220/api/api_msg.c ****         API_EVENT(conn, NETCONN_EVT_RCVPLUS, 0);
1076:ThirdPackage/lwip220/api/api_msg.c ****       }
1077:ThirdPackage/lwip220/api/api_msg.c ****       if (shut_tx) {
1078:ThirdPackage/lwip220/api/api_msg.c ****         API_EVENT(conn, NETCONN_EVT_SENDPLUS, 0);
1079:ThirdPackage/lwip220/api/api_msg.c ****       }
1080:ThirdPackage/lwip220/api/api_msg.c ****     }
1081:ThirdPackage/lwip220/api/api_msg.c **** #if LWIP_TCPIP_CORE_LOCKING
1082:ThirdPackage/lwip220/api/api_msg.c ****     if (delayed)
1083:ThirdPackage/lwip220/api/api_msg.c **** #endif
1084:ThirdPackage/lwip220/api/api_msg.c ****     {
1085:ThirdPackage/lwip220/api/api_msg.c ****       /* wake up the application task */
1086:ThirdPackage/lwip220/api/api_msg.c ****       sys_sem_signal(op_completed_sem);
1087:ThirdPackage/lwip220/api/api_msg.c ****     }
1088:ThirdPackage/lwip220/api/api_msg.c ****     return ERR_OK;
1089:ThirdPackage/lwip220/api/api_msg.c ****   }
1090:ThirdPackage/lwip220/api/api_msg.c ****   if (!close_finished) {
1091:ThirdPackage/lwip220/api/api_msg.c ****     /* Closing failed and we want to wait: restore some of the callbacks */
1092:ThirdPackage/lwip220/api/api_msg.c ****     /* Closing of listen pcb will never fail! */
1093:ThirdPackage/lwip220/api/api_msg.c ****     LWIP_ASSERT("Closing a listen pcb may not fail!", (tpcb->state != LISTEN));
1094:ThirdPackage/lwip220/api/api_msg.c ****     if (shut_tx) {
1095:ThirdPackage/lwip220/api/api_msg.c ****       tcp_sent(tpcb, sent_tcp);
1096:ThirdPackage/lwip220/api/api_msg.c ****     }
ARM GAS  C:\Users\86188\AppData\Local\Temp\cccggEfL.s 			page 39


1097:ThirdPackage/lwip220/api/api_msg.c ****     /* when waiting for close, set up poll interval to 500ms */
1098:ThirdPackage/lwip220/api/api_msg.c ****     tcp_poll(tpcb, poll_tcp, 1);
1099:ThirdPackage/lwip220/api/api_msg.c ****     tcp_err(tpcb, err_tcp);
1100:ThirdPackage/lwip220/api/api_msg.c ****     tcp_arg(tpcb, conn);
1101:ThirdPackage/lwip220/api/api_msg.c ****     /* don't restore recv callback: we don't want to receive any more data */
1102:ThirdPackage/lwip220/api/api_msg.c ****   }
1103:ThirdPackage/lwip220/api/api_msg.c ****   /* If closing didn't succeed, we get called again either
1104:ThirdPackage/lwip220/api/api_msg.c ****      from poll_tcp or from sent_tcp */
1105:ThirdPackage/lwip220/api/api_msg.c ****   LWIP_ASSERT("err != ERR_OK", err != ERR_OK);
1106:ThirdPackage/lwip220/api/api_msg.c ****   return err;
1107:ThirdPackage/lwip220/api/api_msg.c **** }
1108:ThirdPackage/lwip220/api/api_msg.c **** #endif /* LWIP_TCP */
1109:ThirdPackage/lwip220/api/api_msg.c **** 
1110:ThirdPackage/lwip220/api/api_msg.c **** /**
1111:ThirdPackage/lwip220/api/api_msg.c ****  * Delete the pcb inside a netconn.
1112:ThirdPackage/lwip220/api/api_msg.c ****  * Called from netconn_delete.
1113:ThirdPackage/lwip220/api/api_msg.c ****  *
1114:ThirdPackage/lwip220/api/api_msg.c ****  * @param m the api_msg pointing to the connection
1115:ThirdPackage/lwip220/api/api_msg.c ****  */
1116:ThirdPackage/lwip220/api/api_msg.c **** void
1117:ThirdPackage/lwip220/api/api_msg.c **** lwip_netconn_do_delconn(void *m)
1118:ThirdPackage/lwip220/api/api_msg.c **** {
1119:ThirdPackage/lwip220/api/api_msg.c ****   struct api_msg *msg = (struct api_msg *)m;
1120:ThirdPackage/lwip220/api/api_msg.c **** 
1121:ThirdPackage/lwip220/api/api_msg.c ****   enum netconn_state state = msg->conn->state;
1122:ThirdPackage/lwip220/api/api_msg.c ****   LWIP_ASSERT("netconn state error", /* this only happens for TCP netconns */
1123:ThirdPackage/lwip220/api/api_msg.c ****               (state == NETCONN_NONE) || (NETCONNTYPE_GROUP(msg->conn->type) == NETCONN_TCP));
1124:ThirdPackage/lwip220/api/api_msg.c **** #if LWIP_NETCONN_FULLDUPLEX
1125:ThirdPackage/lwip220/api/api_msg.c ****   /* In full duplex mode, blocking write/connect is aborted with ERR_CLSD */
1126:ThirdPackage/lwip220/api/api_msg.c ****   if (state != NETCONN_NONE) {
1127:ThirdPackage/lwip220/api/api_msg.c ****     if ((state == NETCONN_WRITE) ||
1128:ThirdPackage/lwip220/api/api_msg.c ****         ((state == NETCONN_CONNECT) && !IN_NONBLOCKING_CONNECT(msg->conn))) {
1129:ThirdPackage/lwip220/api/api_msg.c ****       /* close requested, abort running write/connect */
1130:ThirdPackage/lwip220/api/api_msg.c ****       sys_sem_t *op_completed_sem;
1131:ThirdPackage/lwip220/api/api_msg.c ****       LWIP_ASSERT("msg->conn->current_msg != NULL", msg->conn->current_msg != NULL);
1132:ThirdPackage/lwip220/api/api_msg.c ****       op_completed_sem = LWIP_API_MSG_SEM(msg->conn->current_msg);
1133:ThirdPackage/lwip220/api/api_msg.c ****       msg->conn->current_msg->err = ERR_CLSD;
1134:ThirdPackage/lwip220/api/api_msg.c ****       msg->conn->current_msg = NULL;
1135:ThirdPackage/lwip220/api/api_msg.c ****       msg->conn->state = NETCONN_NONE;
1136:ThirdPackage/lwip220/api/api_msg.c ****       sys_sem_signal(op_completed_sem);
1137:ThirdPackage/lwip220/api/api_msg.c ****     }
1138:ThirdPackage/lwip220/api/api_msg.c ****   }
1139:ThirdPackage/lwip220/api/api_msg.c **** #else /* LWIP_NETCONN_FULLDUPLEX */
1140:ThirdPackage/lwip220/api/api_msg.c ****   if (((state != NETCONN_NONE) &&
1141:ThirdPackage/lwip220/api/api_msg.c ****        (state != NETCONN_LISTEN) &&
1142:ThirdPackage/lwip220/api/api_msg.c ****        (state != NETCONN_CONNECT)) ||
1143:ThirdPackage/lwip220/api/api_msg.c ****       ((state == NETCONN_CONNECT) && !IN_NONBLOCKING_CONNECT(msg->conn))) {
1144:ThirdPackage/lwip220/api/api_msg.c ****     /* This means either a blocking write or blocking connect is running
1145:ThirdPackage/lwip220/api/api_msg.c ****        (nonblocking write returns and sets state to NONE) */
1146:ThirdPackage/lwip220/api/api_msg.c ****     msg->err = ERR_INPROGRESS;
1147:ThirdPackage/lwip220/api/api_msg.c ****   } else
1148:ThirdPackage/lwip220/api/api_msg.c **** #endif /* LWIP_NETCONN_FULLDUPLEX */
1149:ThirdPackage/lwip220/api/api_msg.c ****   {
1150:ThirdPackage/lwip220/api/api_msg.c ****     LWIP_ASSERT("blocking connect in progress",
1151:ThirdPackage/lwip220/api/api_msg.c ****                 (state != NETCONN_CONNECT) || IN_NONBLOCKING_CONNECT(msg->conn));
1152:ThirdPackage/lwip220/api/api_msg.c ****     msg->err = ERR_OK;
1153:ThirdPackage/lwip220/api/api_msg.c **** #if LWIP_NETCONN_FULLDUPLEX
ARM GAS  C:\Users\86188\AppData\Local\Temp\cccggEfL.s 			page 40


1154:ThirdPackage/lwip220/api/api_msg.c ****     /* Mark mboxes invalid */
1155:ThirdPackage/lwip220/api/api_msg.c ****     netconn_mark_mbox_invalid(msg->conn);
1156:ThirdPackage/lwip220/api/api_msg.c **** #else /* LWIP_NETCONN_FULLDUPLEX */
1157:ThirdPackage/lwip220/api/api_msg.c ****     netconn_drain(msg->conn);
1158:ThirdPackage/lwip220/api/api_msg.c **** #endif /* LWIP_NETCONN_FULLDUPLEX */
1159:ThirdPackage/lwip220/api/api_msg.c **** 
1160:ThirdPackage/lwip220/api/api_msg.c ****     if (msg->conn->pcb.tcp != NULL) {
1161:ThirdPackage/lwip220/api/api_msg.c **** 
1162:ThirdPackage/lwip220/api/api_msg.c ****       switch (NETCONNTYPE_GROUP(msg->conn->type)) {
1163:ThirdPackage/lwip220/api/api_msg.c **** #if LWIP_RAW
1164:ThirdPackage/lwip220/api/api_msg.c ****         case NETCONN_RAW:
1165:ThirdPackage/lwip220/api/api_msg.c ****           raw_remove(msg->conn->pcb.raw);
1166:ThirdPackage/lwip220/api/api_msg.c ****           break;
1167:ThirdPackage/lwip220/api/api_msg.c **** #endif /* LWIP_RAW */
1168:ThirdPackage/lwip220/api/api_msg.c **** #if LWIP_UDP
1169:ThirdPackage/lwip220/api/api_msg.c ****         case NETCONN_UDP:
1170:ThirdPackage/lwip220/api/api_msg.c ****           msg->conn->pcb.udp->recv_arg = NULL;
1171:ThirdPackage/lwip220/api/api_msg.c ****           udp_remove(msg->conn->pcb.udp);
1172:ThirdPackage/lwip220/api/api_msg.c ****           break;
1173:ThirdPackage/lwip220/api/api_msg.c **** #endif /* LWIP_UDP */
1174:ThirdPackage/lwip220/api/api_msg.c **** #if LWIP_TCP
1175:ThirdPackage/lwip220/api/api_msg.c ****         case NETCONN_TCP:
1176:ThirdPackage/lwip220/api/api_msg.c ****           LWIP_ASSERT("already writing or closing", msg->conn->current_msg == NULL);
1177:ThirdPackage/lwip220/api/api_msg.c ****           msg->conn->state = NETCONN_CLOSE;
1178:ThirdPackage/lwip220/api/api_msg.c ****           msg->msg.sd.shut = NETCONN_SHUT_RDWR;
1179:ThirdPackage/lwip220/api/api_msg.c ****           msg->conn->current_msg = msg;
1180:ThirdPackage/lwip220/api/api_msg.c **** #if LWIP_TCPIP_CORE_LOCKING
1181:ThirdPackage/lwip220/api/api_msg.c ****           if (lwip_netconn_do_close_internal(msg->conn, 0) != ERR_OK) {
1182:ThirdPackage/lwip220/api/api_msg.c ****             LWIP_ASSERT("state!", msg->conn->state == NETCONN_CLOSE);
1183:ThirdPackage/lwip220/api/api_msg.c ****             UNLOCK_TCPIP_CORE();
1184:ThirdPackage/lwip220/api/api_msg.c ****             sys_arch_sem_wait(LWIP_API_MSG_SEM(msg), 0);
1185:ThirdPackage/lwip220/api/api_msg.c ****             LOCK_TCPIP_CORE();
1186:ThirdPackage/lwip220/api/api_msg.c ****             LWIP_ASSERT("state!", msg->conn->state == NETCONN_NONE);
1187:ThirdPackage/lwip220/api/api_msg.c ****           }
1188:ThirdPackage/lwip220/api/api_msg.c **** #else /* LWIP_TCPIP_CORE_LOCKING */
1189:ThirdPackage/lwip220/api/api_msg.c ****           lwip_netconn_do_close_internal(msg->conn);
1190:ThirdPackage/lwip220/api/api_msg.c **** #endif /* LWIP_TCPIP_CORE_LOCKING */
1191:ThirdPackage/lwip220/api/api_msg.c ****           /* API_EVENT is called inside lwip_netconn_do_close_internal, before releasing
1192:ThirdPackage/lwip220/api/api_msg.c ****              the application thread, so we can return at this point! */
1193:ThirdPackage/lwip220/api/api_msg.c ****           return;
1194:ThirdPackage/lwip220/api/api_msg.c **** #endif /* LWIP_TCP */
1195:ThirdPackage/lwip220/api/api_msg.c ****         default:
1196:ThirdPackage/lwip220/api/api_msg.c ****           break;
1197:ThirdPackage/lwip220/api/api_msg.c ****       }
1198:ThirdPackage/lwip220/api/api_msg.c ****       msg->conn->pcb.tcp = NULL;
1199:ThirdPackage/lwip220/api/api_msg.c ****     }
1200:ThirdPackage/lwip220/api/api_msg.c ****     /* tcp netconns don't come here! */
1201:ThirdPackage/lwip220/api/api_msg.c **** 
1202:ThirdPackage/lwip220/api/api_msg.c ****     /* @todo: this lets select make the socket readable and writable,
1203:ThirdPackage/lwip220/api/api_msg.c ****        which is wrong! errfd instead? */
1204:ThirdPackage/lwip220/api/api_msg.c ****     API_EVENT(msg->conn, NETCONN_EVT_RCVPLUS, 0);
1205:ThirdPackage/lwip220/api/api_msg.c ****     API_EVENT(msg->conn, NETCONN_EVT_SENDPLUS, 0);
1206:ThirdPackage/lwip220/api/api_msg.c ****   }
1207:ThirdPackage/lwip220/api/api_msg.c ****   if (sys_sem_valid(LWIP_API_MSG_SEM(msg))) {
1208:ThirdPackage/lwip220/api/api_msg.c ****     TCPIP_APIMSG_ACK(msg);
1209:ThirdPackage/lwip220/api/api_msg.c ****   }
1210:ThirdPackage/lwip220/api/api_msg.c **** }
ARM GAS  C:\Users\86188\AppData\Local\Temp\cccggEfL.s 			page 41


1211:ThirdPackage/lwip220/api/api_msg.c **** 
1212:ThirdPackage/lwip220/api/api_msg.c **** /**
1213:ThirdPackage/lwip220/api/api_msg.c ****  * Bind a pcb contained in a netconn
1214:ThirdPackage/lwip220/api/api_msg.c ****  * Called from netconn_bind.
1215:ThirdPackage/lwip220/api/api_msg.c ****  *
1216:ThirdPackage/lwip220/api/api_msg.c ****  * @param m the api_msg pointing to the connection and containing
1217:ThirdPackage/lwip220/api/api_msg.c ****  *          the IP address and port to bind to
1218:ThirdPackage/lwip220/api/api_msg.c ****  */
1219:ThirdPackage/lwip220/api/api_msg.c **** void
1220:ThirdPackage/lwip220/api/api_msg.c **** lwip_netconn_do_bind(void *m)
1221:ThirdPackage/lwip220/api/api_msg.c **** {
1222:ThirdPackage/lwip220/api/api_msg.c ****   struct api_msg *msg = (struct api_msg *)m;
1223:ThirdPackage/lwip220/api/api_msg.c ****   err_t err;
1224:ThirdPackage/lwip220/api/api_msg.c **** 
1225:ThirdPackage/lwip220/api/api_msg.c ****   if (msg->conn->pcb.tcp != NULL) {
1226:ThirdPackage/lwip220/api/api_msg.c ****     switch (NETCONNTYPE_GROUP(msg->conn->type)) {
1227:ThirdPackage/lwip220/api/api_msg.c **** #if LWIP_RAW
1228:ThirdPackage/lwip220/api/api_msg.c ****       case NETCONN_RAW:
1229:ThirdPackage/lwip220/api/api_msg.c ****         err = raw_bind(msg->conn->pcb.raw, API_EXPR_REF(msg->msg.bc.ipaddr));
1230:ThirdPackage/lwip220/api/api_msg.c ****         break;
1231:ThirdPackage/lwip220/api/api_msg.c **** #endif /* LWIP_RAW */
1232:ThirdPackage/lwip220/api/api_msg.c **** #if LWIP_UDP
1233:ThirdPackage/lwip220/api/api_msg.c ****       case NETCONN_UDP:
1234:ThirdPackage/lwip220/api/api_msg.c ****         err = udp_bind(msg->conn->pcb.udp, API_EXPR_REF(msg->msg.bc.ipaddr), msg->msg.bc.port);
1235:ThirdPackage/lwip220/api/api_msg.c ****         break;
1236:ThirdPackage/lwip220/api/api_msg.c **** #endif /* LWIP_UDP */
1237:ThirdPackage/lwip220/api/api_msg.c **** #if LWIP_TCP
1238:ThirdPackage/lwip220/api/api_msg.c ****       case NETCONN_TCP:
1239:ThirdPackage/lwip220/api/api_msg.c ****         err = tcp_bind(msg->conn->pcb.tcp, API_EXPR_REF(msg->msg.bc.ipaddr), msg->msg.bc.port);
1240:ThirdPackage/lwip220/api/api_msg.c ****         break;
1241:ThirdPackage/lwip220/api/api_msg.c **** #endif /* LWIP_TCP */
1242:ThirdPackage/lwip220/api/api_msg.c ****       default:
1243:ThirdPackage/lwip220/api/api_msg.c ****         err = ERR_VAL;
1244:ThirdPackage/lwip220/api/api_msg.c ****         break;
1245:ThirdPackage/lwip220/api/api_msg.c ****     }
1246:ThirdPackage/lwip220/api/api_msg.c ****   } else {
1247:ThirdPackage/lwip220/api/api_msg.c ****     err = ERR_VAL;
1248:ThirdPackage/lwip220/api/api_msg.c ****   }
1249:ThirdPackage/lwip220/api/api_msg.c ****   msg->err = err;
1250:ThirdPackage/lwip220/api/api_msg.c ****   TCPIP_APIMSG_ACK(msg);
1251:ThirdPackage/lwip220/api/api_msg.c **** }
1252:ThirdPackage/lwip220/api/api_msg.c **** /**
1253:ThirdPackage/lwip220/api/api_msg.c ****  * Bind a pcb contained in a netconn to an interface
1254:ThirdPackage/lwip220/api/api_msg.c ****  * Called from netconn_bind_if.
1255:ThirdPackage/lwip220/api/api_msg.c ****  *
1256:ThirdPackage/lwip220/api/api_msg.c ****  * @param m the api_msg pointing to the connection and containing
1257:ThirdPackage/lwip220/api/api_msg.c ****  *          the IP address and port to bind to
1258:ThirdPackage/lwip220/api/api_msg.c ****  */
1259:ThirdPackage/lwip220/api/api_msg.c **** void
1260:ThirdPackage/lwip220/api/api_msg.c **** lwip_netconn_do_bind_if(void *m)
1261:ThirdPackage/lwip220/api/api_msg.c **** {
1262:ThirdPackage/lwip220/api/api_msg.c ****   struct netif *netif;
1263:ThirdPackage/lwip220/api/api_msg.c ****   struct api_msg *msg = (struct api_msg *)m;
1264:ThirdPackage/lwip220/api/api_msg.c ****   err_t err;
1265:ThirdPackage/lwip220/api/api_msg.c **** 
1266:ThirdPackage/lwip220/api/api_msg.c ****   netif = netif_get_by_index(msg->msg.bc.if_idx);
1267:ThirdPackage/lwip220/api/api_msg.c **** 
ARM GAS  C:\Users\86188\AppData\Local\Temp\cccggEfL.s 			page 42


1268:ThirdPackage/lwip220/api/api_msg.c ****   if ((netif != NULL) && (msg->conn->pcb.tcp != NULL)) {
1269:ThirdPackage/lwip220/api/api_msg.c ****     err = ERR_OK;
1270:ThirdPackage/lwip220/api/api_msg.c ****     switch (NETCONNTYPE_GROUP(msg->conn->type)) {
1271:ThirdPackage/lwip220/api/api_msg.c **** #if LWIP_RAW
1272:ThirdPackage/lwip220/api/api_msg.c ****       case NETCONN_RAW:
1273:ThirdPackage/lwip220/api/api_msg.c ****         raw_bind_netif(msg->conn->pcb.raw, netif);
1274:ThirdPackage/lwip220/api/api_msg.c ****         break;
1275:ThirdPackage/lwip220/api/api_msg.c **** #endif /* LWIP_RAW */
1276:ThirdPackage/lwip220/api/api_msg.c **** #if LWIP_UDP
1277:ThirdPackage/lwip220/api/api_msg.c ****       case NETCONN_UDP:
1278:ThirdPackage/lwip220/api/api_msg.c ****         udp_bind_netif(msg->conn->pcb.udp, netif);
1279:ThirdPackage/lwip220/api/api_msg.c ****         break;
1280:ThirdPackage/lwip220/api/api_msg.c **** #endif /* LWIP_UDP */
1281:ThirdPackage/lwip220/api/api_msg.c **** #if LWIP_TCP
1282:ThirdPackage/lwip220/api/api_msg.c ****       case NETCONN_TCP:
1283:ThirdPackage/lwip220/api/api_msg.c ****         tcp_bind_netif(msg->conn->pcb.tcp, netif);
1284:ThirdPackage/lwip220/api/api_msg.c ****         break;
1285:ThirdPackage/lwip220/api/api_msg.c **** #endif /* LWIP_TCP */
1286:ThirdPackage/lwip220/api/api_msg.c ****       default:
1287:ThirdPackage/lwip220/api/api_msg.c ****         err = ERR_VAL;
1288:ThirdPackage/lwip220/api/api_msg.c ****         break;
1289:ThirdPackage/lwip220/api/api_msg.c ****     }
1290:ThirdPackage/lwip220/api/api_msg.c ****   } else {
1291:ThirdPackage/lwip220/api/api_msg.c ****     err = ERR_VAL;
1292:ThirdPackage/lwip220/api/api_msg.c ****   }
1293:ThirdPackage/lwip220/api/api_msg.c ****   msg->err = err;
1294:ThirdPackage/lwip220/api/api_msg.c ****   TCPIP_APIMSG_ACK(msg);
1295:ThirdPackage/lwip220/api/api_msg.c **** }
1296:ThirdPackage/lwip220/api/api_msg.c **** 
1297:ThirdPackage/lwip220/api/api_msg.c **** #if LWIP_TCP
1298:ThirdPackage/lwip220/api/api_msg.c **** /**
1299:ThirdPackage/lwip220/api/api_msg.c ****  * TCP callback function if a connection (opened by tcp_connect/lwip_netconn_do_connect) has
1300:ThirdPackage/lwip220/api/api_msg.c ****  * been established (or reset by the remote host).
1301:ThirdPackage/lwip220/api/api_msg.c ****  *
1302:ThirdPackage/lwip220/api/api_msg.c ****  * @see tcp.h (struct tcp_pcb.connected) for parameters and return values
1303:ThirdPackage/lwip220/api/api_msg.c ****  */
1304:ThirdPackage/lwip220/api/api_msg.c **** static err_t
1305:ThirdPackage/lwip220/api/api_msg.c **** lwip_netconn_do_connected(void *arg, struct tcp_pcb *pcb, err_t err)
1306:ThirdPackage/lwip220/api/api_msg.c **** {
 883              		.loc 1 1306 1 view -0
 884              		.cfi_startproc
 885              		@ args = 0, pretend = 0, frame = 0
 886              		@ frame_needed = 0, uses_anonymous_args = 0
1307:ThirdPackage/lwip220/api/api_msg.c ****   struct netconn *conn;
 887              		.loc 1 1307 3 view .LVU249
1308:ThirdPackage/lwip220/api/api_msg.c ****   int was_blocking;
 888              		.loc 1 1308 3 view .LVU250
1309:ThirdPackage/lwip220/api/api_msg.c ****   sys_sem_t *op_completed_sem = NULL;
 889              		.loc 1 1309 3 view .LVU251
1310:ThirdPackage/lwip220/api/api_msg.c **** 
1311:ThirdPackage/lwip220/api/api_msg.c ****   LWIP_UNUSED_ARG(pcb);
 890              		.loc 1 1311 3 view .LVU252
1312:ThirdPackage/lwip220/api/api_msg.c **** 
1313:ThirdPackage/lwip220/api/api_msg.c ****   conn = (struct netconn *)arg;
 891              		.loc 1 1313 3 view .LVU253
1314:ThirdPackage/lwip220/api/api_msg.c **** 
1315:ThirdPackage/lwip220/api/api_msg.c ****   if (conn == NULL) {
ARM GAS  C:\Users\86188\AppData\Local\Temp\cccggEfL.s 			page 43


 892              		.loc 1 1315 3 view .LVU254
 893              		.loc 1 1315 6 is_stmt 0 view .LVU255
 894 0000 0028     		cmp	r0, #0
 895 0002 4ED0     		beq	.L83
1306:ThirdPackage/lwip220/api/api_msg.c ****   struct netconn *conn;
 896              		.loc 1 1306 1 view .LVU256
 897 0004 70B5     		push	{r4, r5, r6, lr}
 898              	.LCFI6:
 899              		.cfi_def_cfa_offset 16
 900              		.cfi_offset 4, -16
 901              		.cfi_offset 5, -12
 902              		.cfi_offset 6, -8
 903              		.cfi_offset 14, -4
 904 0006 1546     		mov	r5, r2
 905 0008 0446     		mov	r4, r0
1316:ThirdPackage/lwip220/api/api_msg.c ****     return ERR_VAL;
1317:ThirdPackage/lwip220/api/api_msg.c ****   }
1318:ThirdPackage/lwip220/api/api_msg.c **** 
1319:ThirdPackage/lwip220/api/api_msg.c ****   LWIP_ASSERT("conn->state == NETCONN_CONNECT", conn->state == NETCONN_CONNECT);
 906              		.loc 1 1319 3 is_stmt 1 view .LVU257
 907              		.loc 1 1319 3 view .LVU258
 908 000a 4378     		ldrb	r3, [r0, #1]	@ zero_extendqisi2
 909 000c 032B     		cmp	r3, #3
 910 000e 29D1     		bne	.L89
 911              	.LVL90:
 912              	.L75:
 913              		.loc 1 1319 3 discriminator 3 view .LVU259
 914              		.loc 1 1319 3 discriminator 3 view .LVU260
1320:ThirdPackage/lwip220/api/api_msg.c ****   LWIP_ASSERT("(conn->current_msg != NULL) || conn->in_non_blocking_connect",
 915              		.loc 1 1320 3 discriminator 3 view .LVU261
 916              		.loc 1 1320 3 discriminator 3 view .LVU262
 917 0010 236A     		ldr	r3, [r4, #32]
 918 0012 7BB3     		cbz	r3, .L90
 919              	.L76:
 920              		.loc 1 1320 3 discriminator 5 view .LVU263
 921              		.loc 1 1320 3 discriminator 5 view .LVU264
1321:ThirdPackage/lwip220/api/api_msg.c ****               (conn->current_msg != NULL) || IN_NONBLOCKING_CONNECT(conn));
1322:ThirdPackage/lwip220/api/api_msg.c **** 
1323:ThirdPackage/lwip220/api/api_msg.c ****   if (conn->current_msg != NULL) {
 922              		.loc 1 1323 3 discriminator 5 view .LVU265
 923              		.loc 1 1323 11 is_stmt 0 discriminator 5 view .LVU266
 924 0014 266A     		ldr	r6, [r4, #32]
 925              		.loc 1 1323 6 discriminator 5 view .LVU267
 926 0016 1EB1     		cbz	r6, .L77
1324:ThirdPackage/lwip220/api/api_msg.c ****     conn->current_msg->err = err;
 927              		.loc 1 1324 5 is_stmt 1 view .LVU268
 928              		.loc 1 1324 28 is_stmt 0 view .LVU269
 929 0018 3571     		strb	r5, [r6, #4]
1325:ThirdPackage/lwip220/api/api_msg.c ****     op_completed_sem = LWIP_API_MSG_SEM(conn->current_msg);
 930              		.loc 1 1325 5 is_stmt 1 view .LVU270
 931              		.loc 1 1325 24 is_stmt 0 view .LVU271
 932 001a 236A     		ldr	r3, [r4, #32]
 933 001c 1E68     		ldr	r6, [r3]
 934              		.loc 1 1325 22 view .LVU272
 935 001e 0C36     		adds	r6, r6, #12
 936              	.LVL91:
 937              	.L77:
ARM GAS  C:\Users\86188\AppData\Local\Temp\cccggEfL.s 			page 44


1326:ThirdPackage/lwip220/api/api_msg.c ****   }
1327:ThirdPackage/lwip220/api/api_msg.c ****   if ((NETCONNTYPE_GROUP(conn->type) == NETCONN_TCP) && (err == ERR_OK)) {
 938              		.loc 1 1327 3 is_stmt 1 view .LVU273
 939              		.loc 1 1327 8 is_stmt 0 view .LVU274
 940 0020 2378     		ldrb	r3, [r4]	@ zero_extendqisi2
 941              		.loc 1 1327 6 view .LVU275
 942 0022 03F0F003 		and	r3, r3, #240
 943 0026 102B     		cmp	r3, #16
 944 0028 30D0     		beq	.L91
 945              	.L78:
1328:ThirdPackage/lwip220/api/api_msg.c ****     setup_tcp(conn);
1329:ThirdPackage/lwip220/api/api_msg.c ****   }
1330:ThirdPackage/lwip220/api/api_msg.c ****   was_blocking = !IN_NONBLOCKING_CONNECT(conn);
 946              		.loc 1 1330 3 is_stmt 1 view .LVU276
 947              		.loc 1 1330 19 is_stmt 0 view .LVU277
 948 002a 237F     		ldrb	r3, [r4, #28]	@ zero_extendqisi2
 949              	.LVL92:
1331:ThirdPackage/lwip220/api/api_msg.c ****   SET_NONBLOCKING_CONNECT(conn, 0);
 950              		.loc 1 1331 3 is_stmt 1 view .LVU278
 951              		.loc 1 1331 3 view .LVU279
 952              		.loc 1 1331 3 view .LVU280
 953              		.loc 1 1331 3 view .LVU281
 954 002c 03F0FB02 		and	r2, r3, #251
 955 0030 2277     		strb	r2, [r4, #28]
 956              		.loc 1 1331 3 view .LVU282
 957              		.loc 1 1331 3 view .LVU283
1332:ThirdPackage/lwip220/api/api_msg.c ****   LWIP_ASSERT("blocking connect state error",
 958              		.loc 1 1332 3 view .LVU284
 959              		.loc 1 1332 3 view .LVU285
 960 0032 13F00405 		ands	r5, r3, #4
 961 0036 00D1     		bne	.L79
 962              		.loc 1 1332 3 is_stmt 0 discriminator 2 view .LVU286
 963 0038 46B9     		cbnz	r6, .L80
 964              	.L79:
 965              		.loc 1 1332 3 discriminator 3 view .LVU287
 966 003a 05B1     		cbz	r5, .L81
 967              		.loc 1 1332 3 discriminator 6 view .LVU288
 968 003c 36B1     		cbz	r6, .L80
 969              	.L81:
 970              		.loc 1 1332 3 is_stmt 1 discriminator 7 view .LVU289
 971              		.loc 1 1332 3 discriminator 7 view .LVU290
 972 003e 1A4B     		ldr	r3, .L93
 973              	.LVL93:
 974              		.loc 1 1332 3 is_stmt 0 discriminator 7 view .LVU291
 975 0040 40F23452 		movw	r2, #1332
 976 0044 1949     		ldr	r1, .L93+4
 977 0046 1A48     		ldr	r0, .L93+8
 978 0048 FFF7FEFF 		bl	printf
 979              	.LVL94:
 980              	.L80:
 981              		.loc 1 1332 3 is_stmt 1 discriminator 9 view .LVU292
 982              		.loc 1 1332 3 discriminator 9 view .LVU293
1333:ThirdPackage/lwip220/api/api_msg.c ****               (was_blocking && op_completed_sem != NULL) ||
1334:ThirdPackage/lwip220/api/api_msg.c ****               (!was_blocking && op_completed_sem == NULL));
1335:ThirdPackage/lwip220/api/api_msg.c ****   conn->current_msg = NULL;
 983              		.loc 1 1335 3 discriminator 9 view .LVU294
 984              		.loc 1 1335 21 is_stmt 0 discriminator 9 view .LVU295
ARM GAS  C:\Users\86188\AppData\Local\Temp\cccggEfL.s 			page 45


 985 004c 0023     		movs	r3, #0
 986 004e 2362     		str	r3, [r4, #32]
1336:ThirdPackage/lwip220/api/api_msg.c ****   conn->state = NETCONN_NONE;
 987              		.loc 1 1336 3 is_stmt 1 discriminator 9 view .LVU296
 988              		.loc 1 1336 15 is_stmt 0 discriminator 9 view .LVU297
 989 0050 6370     		strb	r3, [r4, #1]
1337:ThirdPackage/lwip220/api/api_msg.c ****   API_EVENT(conn, NETCONN_EVT_SENDPLUS, 0);
 990              		.loc 1 1337 3 is_stmt 1 discriminator 9 view .LVU298
 991 0052 636A     		ldr	r3, [r4, #36]
 992 0054 1BB1     		cbz	r3, .L82
 993              		.loc 1 1337 3 discriminator 1 view .LVU299
 994 0056 0022     		movs	r2, #0
 995 0058 0221     		movs	r1, #2
 996 005a 2046     		mov	r0, r4
 997 005c 9847     		blx	r3
 998              	.LVL95:
 999              	.L82:
 1000              		.loc 1 1337 43 discriminator 3 view .LVU300
1338:ThirdPackage/lwip220/api/api_msg.c **** 
1339:ThirdPackage/lwip220/api/api_msg.c ****   if (was_blocking) {
 1001              		.loc 1 1339 3 discriminator 3 view .LVU301
 1002              		.loc 1 1339 6 is_stmt 0 discriminator 3 view .LVU302
 1003 005e DDB1     		cbz	r5, .L92
1340:ThirdPackage/lwip220/api/api_msg.c ****     sys_sem_signal(op_completed_sem);
1341:ThirdPackage/lwip220/api/api_msg.c ****   }
1342:ThirdPackage/lwip220/api/api_msg.c ****   return ERR_OK;
 1004              		.loc 1 1342 10 view .LVU303
 1005 0060 0020     		movs	r0, #0
 1006              	.L74:
1343:ThirdPackage/lwip220/api/api_msg.c **** }
 1007              		.loc 1 1343 1 view .LVU304
 1008 0062 70BD     		pop	{r4, r5, r6, pc}
 1009              	.LVL96:
 1010              	.L89:
1319:ThirdPackage/lwip220/api/api_msg.c ****   LWIP_ASSERT("(conn->current_msg != NULL) || conn->in_non_blocking_connect",
 1011              		.loc 1 1319 3 is_stmt 1 discriminator 1 view .LVU305
1319:ThirdPackage/lwip220/api/api_msg.c ****   LWIP_ASSERT("(conn->current_msg != NULL) || conn->in_non_blocking_connect",
 1012              		.loc 1 1319 3 discriminator 1 view .LVU306
 1013 0064 104B     		ldr	r3, .L93
 1014 0066 40F22752 		movw	r2, #1319
 1015              	.LVL97:
1319:ThirdPackage/lwip220/api/api_msg.c ****   LWIP_ASSERT("(conn->current_msg != NULL) || conn->in_non_blocking_connect",
 1016              		.loc 1 1319 3 is_stmt 0 discriminator 1 view .LVU307
 1017 006a 1249     		ldr	r1, .L93+12
 1018              	.LVL98:
1319:ThirdPackage/lwip220/api/api_msg.c ****   LWIP_ASSERT("(conn->current_msg != NULL) || conn->in_non_blocking_connect",
 1019              		.loc 1 1319 3 discriminator 1 view .LVU308
 1020 006c 1048     		ldr	r0, .L93+8
 1021              	.LVL99:
1319:ThirdPackage/lwip220/api/api_msg.c ****   LWIP_ASSERT("(conn->current_msg != NULL) || conn->in_non_blocking_connect",
 1022              		.loc 1 1319 3 discriminator 1 view .LVU309
 1023 006e FFF7FEFF 		bl	printf
 1024              	.LVL100:
 1025 0072 CDE7     		b	.L75
 1026              	.L90:
1320:ThirdPackage/lwip220/api/api_msg.c ****               (conn->current_msg != NULL) || IN_NONBLOCKING_CONNECT(conn));
 1027              		.loc 1 1320 3 discriminator 1 view .LVU310
ARM GAS  C:\Users\86188\AppData\Local\Temp\cccggEfL.s 			page 46


 1028 0074 237F     		ldrb	r3, [r4, #28]	@ zero_extendqisi2
 1029 0076 13F0040F 		tst	r3, #4
 1030 007a CBD1     		bne	.L76
1320:ThirdPackage/lwip220/api/api_msg.c ****               (conn->current_msg != NULL) || IN_NONBLOCKING_CONNECT(conn));
 1031              		.loc 1 1320 3 is_stmt 1 discriminator 3 view .LVU311
1320:ThirdPackage/lwip220/api/api_msg.c ****               (conn->current_msg != NULL) || IN_NONBLOCKING_CONNECT(conn));
 1032              		.loc 1 1320 3 discriminator 3 view .LVU312
 1033 007c 0A4B     		ldr	r3, .L93
 1034 007e 4FF4A562 		mov	r2, #1320
 1035 0082 0D49     		ldr	r1, .L93+16
 1036 0084 0A48     		ldr	r0, .L93+8
 1037 0086 FFF7FEFF 		bl	printf
 1038              	.LVL101:
 1039 008a C3E7     		b	.L76
 1040              	.LVL102:
 1041              	.L91:
1327:ThirdPackage/lwip220/api/api_msg.c ****     setup_tcp(conn);
 1042              		.loc 1 1327 54 is_stmt 0 discriminator 1 view .LVU313
 1043 008c 002D     		cmp	r5, #0
 1044 008e CCD1     		bne	.L78
1328:ThirdPackage/lwip220/api/api_msg.c ****   }
 1045              		.loc 1 1328 5 is_stmt 1 view .LVU314
 1046 0090 2046     		mov	r0, r4
 1047 0092 FFF7FEFF 		bl	setup_tcp
 1048              	.LVL103:
 1049 0096 C8E7     		b	.L78
 1050              	.L92:
1340:ThirdPackage/lwip220/api/api_msg.c ****   }
 1051              		.loc 1 1340 5 view .LVU315
 1052 0098 3046     		mov	r0, r6
 1053 009a FFF7FEFF 		bl	sys_sem_signal
 1054              	.LVL104:
1342:ThirdPackage/lwip220/api/api_msg.c **** }
 1055              		.loc 1 1342 10 is_stmt 0 view .LVU316
 1056 009e 0020     		movs	r0, #0
 1057 00a0 DFE7     		b	.L74
 1058              	.LVL105:
 1059              	.L83:
 1060              	.LCFI7:
 1061              		.cfi_def_cfa_offset 0
 1062              		.cfi_restore 4
 1063              		.cfi_restore 5
 1064              		.cfi_restore 6
 1065              		.cfi_restore 14
1316:ThirdPackage/lwip220/api/api_msg.c ****   }
 1066              		.loc 1 1316 12 view .LVU317
 1067 00a2 6FF00500 		mvn	r0, #5
 1068              	.LVL106:
 1069              		.loc 1 1343 1 view .LVU318
 1070 00a6 7047     		bx	lr
 1071              	.L94:
 1072              		.align	2
 1073              	.L93:
 1074 00a8 00000000 		.word	.LC0
 1075 00ac 60000000 		.word	.LC13
 1076 00b0 34000000 		.word	.LC2
 1077 00b4 00000000 		.word	.LC11
ARM GAS  C:\Users\86188\AppData\Local\Temp\cccggEfL.s 			page 47


 1078 00b8 20000000 		.word	.LC12
 1079              		.cfi_endproc
 1080              	.LFE178:
 1082              		.section	.rodata.lwip_netconn_do_writemore.str1.4,"aMS",%progbits,1
 1083              		.align	2
 1084              	.LC14:
 1085 0000 636F6E6E 		.ascii	"conn->state == NETCONN_WRITE\000"
 1085      2D3E7374 
 1085      61746520 
 1085      3D3D204E 
 1085      4554434F 
 1086 001d 000000   		.align	2
 1087              	.LC15:
 1088 0020 636F6E6E 		.ascii	"conn->pcb.tcp != NULL\000"
 1088      2D3E7063 
 1088      622E7463 
 1088      7020213D 
 1088      204E554C 
 1089 0036 0000     		.align	2
 1090              	.LC16:
 1091 0038 636F6E6E 		.ascii	"conn->current_msg->msg.w.offset < conn->current_msg"
 1091      2D3E6375 
 1091      7272656E 
 1091      745F6D73 
 1091      672D3E6D 
 1092 006b 2D3E6D73 		.ascii	"->msg.w.len\000"
 1092      672E772E 
 1092      6C656E00 
 1093 0077 00       		.align	2
 1094              	.LC17:
 1095 0078 636F6E6E 		.ascii	"conn->current_msg->msg.w.vector_cnt > 0\000"
 1095      2D3E6375 
 1095      7272656E 
 1095      745F6D73 
 1095      672D3E6D 
 1096              		.align	2
 1097              	.LC18:
 1098 00a0 6C776970 		.ascii	"lwip_netconn_do_writemore: invalid length!\000"
 1098      5F6E6574 
 1098      636F6E6E 
 1098      5F646F5F 
 1098      77726974 
 1099              		.section	.text.lwip_netconn_do_writemore,"ax",%progbits
 1100              		.align	1
 1101              		.syntax unified
 1102              		.thumb
 1103              		.thumb_func
 1105              	lwip_netconn_do_writemore:
 1106              	.LVL107:
 1107              	.LFB184:
1344:ThirdPackage/lwip220/api/api_msg.c **** #endif /* LWIP_TCP */
1345:ThirdPackage/lwip220/api/api_msg.c **** 
1346:ThirdPackage/lwip220/api/api_msg.c **** /**
1347:ThirdPackage/lwip220/api/api_msg.c ****  * Connect a pcb contained inside a netconn
1348:ThirdPackage/lwip220/api/api_msg.c ****  * Called from netconn_connect.
1349:ThirdPackage/lwip220/api/api_msg.c ****  *
1350:ThirdPackage/lwip220/api/api_msg.c ****  * @param m the api_msg pointing to the connection and containing
ARM GAS  C:\Users\86188\AppData\Local\Temp\cccggEfL.s 			page 48


1351:ThirdPackage/lwip220/api/api_msg.c ****  *          the IP address and port to connect to
1352:ThirdPackage/lwip220/api/api_msg.c ****  */
1353:ThirdPackage/lwip220/api/api_msg.c **** void
1354:ThirdPackage/lwip220/api/api_msg.c **** lwip_netconn_do_connect(void *m)
1355:ThirdPackage/lwip220/api/api_msg.c **** {
1356:ThirdPackage/lwip220/api/api_msg.c ****   struct api_msg *msg = (struct api_msg *)m;
1357:ThirdPackage/lwip220/api/api_msg.c ****   err_t err;
1358:ThirdPackage/lwip220/api/api_msg.c **** 
1359:ThirdPackage/lwip220/api/api_msg.c ****   if (msg->conn->pcb.tcp == NULL) {
1360:ThirdPackage/lwip220/api/api_msg.c ****     /* This may happen when calling netconn_connect() a second time */
1361:ThirdPackage/lwip220/api/api_msg.c ****     err = ERR_CLSD;
1362:ThirdPackage/lwip220/api/api_msg.c ****   } else {
1363:ThirdPackage/lwip220/api/api_msg.c ****     switch (NETCONNTYPE_GROUP(msg->conn->type)) {
1364:ThirdPackage/lwip220/api/api_msg.c **** #if LWIP_RAW
1365:ThirdPackage/lwip220/api/api_msg.c ****       case NETCONN_RAW:
1366:ThirdPackage/lwip220/api/api_msg.c ****         err = raw_connect(msg->conn->pcb.raw, API_EXPR_REF(msg->msg.bc.ipaddr));
1367:ThirdPackage/lwip220/api/api_msg.c ****         break;
1368:ThirdPackage/lwip220/api/api_msg.c **** #endif /* LWIP_RAW */
1369:ThirdPackage/lwip220/api/api_msg.c **** #if LWIP_UDP
1370:ThirdPackage/lwip220/api/api_msg.c ****       case NETCONN_UDP:
1371:ThirdPackage/lwip220/api/api_msg.c ****         err = udp_connect(msg->conn->pcb.udp, API_EXPR_REF(msg->msg.bc.ipaddr), msg->msg.bc.port);
1372:ThirdPackage/lwip220/api/api_msg.c ****         break;
1373:ThirdPackage/lwip220/api/api_msg.c **** #endif /* LWIP_UDP */
1374:ThirdPackage/lwip220/api/api_msg.c **** #if LWIP_TCP
1375:ThirdPackage/lwip220/api/api_msg.c ****       case NETCONN_TCP:
1376:ThirdPackage/lwip220/api/api_msg.c ****         /* Prevent connect while doing any other action. */
1377:ThirdPackage/lwip220/api/api_msg.c ****         if (msg->conn->state == NETCONN_CONNECT) {
1378:ThirdPackage/lwip220/api/api_msg.c ****           err = ERR_ALREADY;
1379:ThirdPackage/lwip220/api/api_msg.c ****         } else if (msg->conn->state != NETCONN_NONE) {
1380:ThirdPackage/lwip220/api/api_msg.c ****           err = ERR_ISCONN;
1381:ThirdPackage/lwip220/api/api_msg.c ****         } else {
1382:ThirdPackage/lwip220/api/api_msg.c ****           setup_tcp(msg->conn);
1383:ThirdPackage/lwip220/api/api_msg.c ****           err = tcp_connect(msg->conn->pcb.tcp, API_EXPR_REF(msg->msg.bc.ipaddr),
1384:ThirdPackage/lwip220/api/api_msg.c ****                             msg->msg.bc.port, lwip_netconn_do_connected);
1385:ThirdPackage/lwip220/api/api_msg.c ****           if (err == ERR_OK) {
1386:ThirdPackage/lwip220/api/api_msg.c ****             u8_t non_blocking = netconn_is_nonblocking(msg->conn);
1387:ThirdPackage/lwip220/api/api_msg.c ****             msg->conn->state = NETCONN_CONNECT;
1388:ThirdPackage/lwip220/api/api_msg.c ****             SET_NONBLOCKING_CONNECT(msg->conn, non_blocking);
1389:ThirdPackage/lwip220/api/api_msg.c ****             if (non_blocking) {
1390:ThirdPackage/lwip220/api/api_msg.c ****               err = ERR_INPROGRESS;
1391:ThirdPackage/lwip220/api/api_msg.c ****             } else {
1392:ThirdPackage/lwip220/api/api_msg.c ****               msg->conn->current_msg = msg;
1393:ThirdPackage/lwip220/api/api_msg.c ****               /* sys_sem_signal() is called from lwip_netconn_do_connected (or err_tcp()),
1394:ThirdPackage/lwip220/api/api_msg.c ****                  when the connection is established! */
1395:ThirdPackage/lwip220/api/api_msg.c **** #if LWIP_TCPIP_CORE_LOCKING
1396:ThirdPackage/lwip220/api/api_msg.c ****               LWIP_ASSERT("state!", msg->conn->state == NETCONN_CONNECT);
1397:ThirdPackage/lwip220/api/api_msg.c ****               UNLOCK_TCPIP_CORE();
1398:ThirdPackage/lwip220/api/api_msg.c ****               sys_arch_sem_wait(LWIP_API_MSG_SEM(msg), 0);
1399:ThirdPackage/lwip220/api/api_msg.c ****               LOCK_TCPIP_CORE();
1400:ThirdPackage/lwip220/api/api_msg.c ****               LWIP_ASSERT("state!", msg->conn->state != NETCONN_CONNECT);
1401:ThirdPackage/lwip220/api/api_msg.c **** #endif /* LWIP_TCPIP_CORE_LOCKING */
1402:ThirdPackage/lwip220/api/api_msg.c ****               return;
1403:ThirdPackage/lwip220/api/api_msg.c ****             }
1404:ThirdPackage/lwip220/api/api_msg.c ****           }
1405:ThirdPackage/lwip220/api/api_msg.c ****         }
1406:ThirdPackage/lwip220/api/api_msg.c ****         break;
1407:ThirdPackage/lwip220/api/api_msg.c **** #endif /* LWIP_TCP */
ARM GAS  C:\Users\86188\AppData\Local\Temp\cccggEfL.s 			page 49


1408:ThirdPackage/lwip220/api/api_msg.c ****       default:
1409:ThirdPackage/lwip220/api/api_msg.c ****         LWIP_ERROR("Invalid netconn type", 0, do {
1410:ThirdPackage/lwip220/api/api_msg.c ****           err = ERR_VAL;
1411:ThirdPackage/lwip220/api/api_msg.c ****         } while (0));
1412:ThirdPackage/lwip220/api/api_msg.c ****         break;
1413:ThirdPackage/lwip220/api/api_msg.c ****     }
1414:ThirdPackage/lwip220/api/api_msg.c ****   }
1415:ThirdPackage/lwip220/api/api_msg.c ****   msg->err = err;
1416:ThirdPackage/lwip220/api/api_msg.c ****   /* For all other protocols, netconn_connect() calls netconn_apimsg(),
1417:ThirdPackage/lwip220/api/api_msg.c ****      so use TCPIP_APIMSG_ACK() here. */
1418:ThirdPackage/lwip220/api/api_msg.c ****   TCPIP_APIMSG_ACK(msg);
1419:ThirdPackage/lwip220/api/api_msg.c **** }
1420:ThirdPackage/lwip220/api/api_msg.c **** 
1421:ThirdPackage/lwip220/api/api_msg.c **** /**
1422:ThirdPackage/lwip220/api/api_msg.c ****  * Disconnect a pcb contained inside a netconn
1423:ThirdPackage/lwip220/api/api_msg.c ****  * Only used for UDP netconns.
1424:ThirdPackage/lwip220/api/api_msg.c ****  * Called from netconn_disconnect.
1425:ThirdPackage/lwip220/api/api_msg.c ****  *
1426:ThirdPackage/lwip220/api/api_msg.c ****  * @param m the api_msg pointing to the connection to disconnect
1427:ThirdPackage/lwip220/api/api_msg.c ****  */
1428:ThirdPackage/lwip220/api/api_msg.c **** void
1429:ThirdPackage/lwip220/api/api_msg.c **** lwip_netconn_do_disconnect(void *m)
1430:ThirdPackage/lwip220/api/api_msg.c **** {
1431:ThirdPackage/lwip220/api/api_msg.c ****   struct api_msg *msg = (struct api_msg *)m;
1432:ThirdPackage/lwip220/api/api_msg.c **** 
1433:ThirdPackage/lwip220/api/api_msg.c **** #if LWIP_UDP
1434:ThirdPackage/lwip220/api/api_msg.c ****   if (NETCONNTYPE_GROUP(msg->conn->type) == NETCONN_UDP) {
1435:ThirdPackage/lwip220/api/api_msg.c ****     udp_disconnect(msg->conn->pcb.udp);
1436:ThirdPackage/lwip220/api/api_msg.c ****     msg->err = ERR_OK;
1437:ThirdPackage/lwip220/api/api_msg.c ****   } else
1438:ThirdPackage/lwip220/api/api_msg.c **** #endif /* LWIP_UDP */
1439:ThirdPackage/lwip220/api/api_msg.c ****   {
1440:ThirdPackage/lwip220/api/api_msg.c ****     msg->err = ERR_VAL;
1441:ThirdPackage/lwip220/api/api_msg.c ****   }
1442:ThirdPackage/lwip220/api/api_msg.c ****   TCPIP_APIMSG_ACK(msg);
1443:ThirdPackage/lwip220/api/api_msg.c **** }
1444:ThirdPackage/lwip220/api/api_msg.c **** 
1445:ThirdPackage/lwip220/api/api_msg.c **** #if LWIP_TCP
1446:ThirdPackage/lwip220/api/api_msg.c **** /**
1447:ThirdPackage/lwip220/api/api_msg.c ****  * Set a TCP pcb contained in a netconn into listen mode
1448:ThirdPackage/lwip220/api/api_msg.c ****  * Called from netconn_listen.
1449:ThirdPackage/lwip220/api/api_msg.c ****  *
1450:ThirdPackage/lwip220/api/api_msg.c ****  * @param m the api_msg pointing to the connection
1451:ThirdPackage/lwip220/api/api_msg.c ****  */
1452:ThirdPackage/lwip220/api/api_msg.c **** void
1453:ThirdPackage/lwip220/api/api_msg.c **** lwip_netconn_do_listen(void *m)
1454:ThirdPackage/lwip220/api/api_msg.c **** {
1455:ThirdPackage/lwip220/api/api_msg.c ****   struct api_msg *msg = (struct api_msg *)m;
1456:ThirdPackage/lwip220/api/api_msg.c ****   err_t err;
1457:ThirdPackage/lwip220/api/api_msg.c **** 
1458:ThirdPackage/lwip220/api/api_msg.c ****   if (msg->conn->pcb.tcp != NULL) {
1459:ThirdPackage/lwip220/api/api_msg.c ****     if (NETCONNTYPE_GROUP(msg->conn->type) == NETCONN_TCP) {
1460:ThirdPackage/lwip220/api/api_msg.c ****       if (msg->conn->state == NETCONN_NONE) {
1461:ThirdPackage/lwip220/api/api_msg.c ****         struct tcp_pcb *lpcb;
1462:ThirdPackage/lwip220/api/api_msg.c ****         if (msg->conn->pcb.tcp->state != CLOSED) {
1463:ThirdPackage/lwip220/api/api_msg.c ****           /* connection is not closed, cannot listen */
1464:ThirdPackage/lwip220/api/api_msg.c ****           err = ERR_VAL;
ARM GAS  C:\Users\86188\AppData\Local\Temp\cccggEfL.s 			page 50


1465:ThirdPackage/lwip220/api/api_msg.c ****         } else {
1466:ThirdPackage/lwip220/api/api_msg.c ****           u8_t backlog;
1467:ThirdPackage/lwip220/api/api_msg.c **** #if TCP_LISTEN_BACKLOG
1468:ThirdPackage/lwip220/api/api_msg.c ****           backlog = msg->msg.lb.backlog;
1469:ThirdPackage/lwip220/api/api_msg.c **** #else  /* TCP_LISTEN_BACKLOG */
1470:ThirdPackage/lwip220/api/api_msg.c ****           backlog = TCP_DEFAULT_LISTEN_BACKLOG;
1471:ThirdPackage/lwip220/api/api_msg.c **** #endif /* TCP_LISTEN_BACKLOG */
1472:ThirdPackage/lwip220/api/api_msg.c **** #if LWIP_IPV4 && LWIP_IPV6
1473:ThirdPackage/lwip220/api/api_msg.c ****           /* "Socket API like" dual-stack support: If IP to listen to is IP6_ADDR_ANY,
1474:ThirdPackage/lwip220/api/api_msg.c ****             * and NETCONN_FLAG_IPV6_V6ONLY is NOT set, use IP_ANY_TYPE to listen
1475:ThirdPackage/lwip220/api/api_msg.c ****             */
1476:ThirdPackage/lwip220/api/api_msg.c ****           if (ip_addr_eq(&msg->conn->pcb.ip->local_ip, IP6_ADDR_ANY) &&
1477:ThirdPackage/lwip220/api/api_msg.c ****               (netconn_get_ipv6only(msg->conn) == 0)) {
1478:ThirdPackage/lwip220/api/api_msg.c ****             /* change PCB type to IPADDR_TYPE_ANY */
1479:ThirdPackage/lwip220/api/api_msg.c ****             IP_SET_TYPE_VAL(msg->conn->pcb.tcp->local_ip,  IPADDR_TYPE_ANY);
1480:ThirdPackage/lwip220/api/api_msg.c ****             IP_SET_TYPE_VAL(msg->conn->pcb.tcp->remote_ip, IPADDR_TYPE_ANY);
1481:ThirdPackage/lwip220/api/api_msg.c ****           }
1482:ThirdPackage/lwip220/api/api_msg.c **** #endif /* LWIP_IPV4 && LWIP_IPV6 */
1483:ThirdPackage/lwip220/api/api_msg.c **** 
1484:ThirdPackage/lwip220/api/api_msg.c ****           lpcb = tcp_listen_with_backlog_and_err(msg->conn->pcb.tcp, backlog, &err);
1485:ThirdPackage/lwip220/api/api_msg.c **** 
1486:ThirdPackage/lwip220/api/api_msg.c ****           if (lpcb == NULL) {
1487:ThirdPackage/lwip220/api/api_msg.c ****             /* in this case, the old pcb is still allocated */
1488:ThirdPackage/lwip220/api/api_msg.c ****           } else {
1489:ThirdPackage/lwip220/api/api_msg.c ****             /* delete the recvmbox and allocate the acceptmbox */
1490:ThirdPackage/lwip220/api/api_msg.c ****             if (sys_mbox_valid(&msg->conn->recvmbox)) {
1491:ThirdPackage/lwip220/api/api_msg.c ****               /** @todo: should we drain the recvmbox here? */
1492:ThirdPackage/lwip220/api/api_msg.c ****               sys_mbox_free(&msg->conn->recvmbox);
1493:ThirdPackage/lwip220/api/api_msg.c ****               sys_mbox_set_invalid(&msg->conn->recvmbox);
1494:ThirdPackage/lwip220/api/api_msg.c ****             }
1495:ThirdPackage/lwip220/api/api_msg.c ****             err = ERR_OK;
1496:ThirdPackage/lwip220/api/api_msg.c ****             if (!sys_mbox_valid(&msg->conn->acceptmbox)) {
1497:ThirdPackage/lwip220/api/api_msg.c ****               err = sys_mbox_new(&msg->conn->acceptmbox, DEFAULT_ACCEPTMBOX_SIZE);
1498:ThirdPackage/lwip220/api/api_msg.c ****             }
1499:ThirdPackage/lwip220/api/api_msg.c ****             if (err == ERR_OK) {
1500:ThirdPackage/lwip220/api/api_msg.c ****               msg->conn->state = NETCONN_LISTEN;
1501:ThirdPackage/lwip220/api/api_msg.c ****               msg->conn->pcb.tcp = lpcb;
1502:ThirdPackage/lwip220/api/api_msg.c ****               tcp_arg(msg->conn->pcb.tcp, msg->conn);
1503:ThirdPackage/lwip220/api/api_msg.c ****               tcp_accept(msg->conn->pcb.tcp, accept_function);
1504:ThirdPackage/lwip220/api/api_msg.c ****             } else {
1505:ThirdPackage/lwip220/api/api_msg.c ****               /* since the old pcb is already deallocated, free lpcb now */
1506:ThirdPackage/lwip220/api/api_msg.c ****               tcp_close(lpcb);
1507:ThirdPackage/lwip220/api/api_msg.c ****               msg->conn->pcb.tcp = NULL;
1508:ThirdPackage/lwip220/api/api_msg.c ****             }
1509:ThirdPackage/lwip220/api/api_msg.c ****           }
1510:ThirdPackage/lwip220/api/api_msg.c ****         }
1511:ThirdPackage/lwip220/api/api_msg.c ****       } else if (msg->conn->state == NETCONN_LISTEN) {
1512:ThirdPackage/lwip220/api/api_msg.c ****         /* already listening, allow updating of the backlog */
1513:ThirdPackage/lwip220/api/api_msg.c ****         err = ERR_OK;
1514:ThirdPackage/lwip220/api/api_msg.c ****         tcp_backlog_set(msg->conn->pcb.tcp, msg->msg.lb.backlog);
1515:ThirdPackage/lwip220/api/api_msg.c ****       } else {
1516:ThirdPackage/lwip220/api/api_msg.c ****         err = ERR_CONN;
1517:ThirdPackage/lwip220/api/api_msg.c ****       }
1518:ThirdPackage/lwip220/api/api_msg.c ****     } else {
1519:ThirdPackage/lwip220/api/api_msg.c ****       err = ERR_ARG;
1520:ThirdPackage/lwip220/api/api_msg.c ****     }
1521:ThirdPackage/lwip220/api/api_msg.c ****   } else {
ARM GAS  C:\Users\86188\AppData\Local\Temp\cccggEfL.s 			page 51


1522:ThirdPackage/lwip220/api/api_msg.c ****     err = ERR_CONN;
1523:ThirdPackage/lwip220/api/api_msg.c ****   }
1524:ThirdPackage/lwip220/api/api_msg.c ****   msg->err = err;
1525:ThirdPackage/lwip220/api/api_msg.c ****   TCPIP_APIMSG_ACK(msg);
1526:ThirdPackage/lwip220/api/api_msg.c **** }
1527:ThirdPackage/lwip220/api/api_msg.c **** #endif /* LWIP_TCP */
1528:ThirdPackage/lwip220/api/api_msg.c **** 
1529:ThirdPackage/lwip220/api/api_msg.c **** /**
1530:ThirdPackage/lwip220/api/api_msg.c ****  * Send some data on a RAW or UDP pcb contained in a netconn
1531:ThirdPackage/lwip220/api/api_msg.c ****  * Called from netconn_send
1532:ThirdPackage/lwip220/api/api_msg.c ****  *
1533:ThirdPackage/lwip220/api/api_msg.c ****  * @param m the api_msg pointing to the connection
1534:ThirdPackage/lwip220/api/api_msg.c ****  */
1535:ThirdPackage/lwip220/api/api_msg.c **** void
1536:ThirdPackage/lwip220/api/api_msg.c **** lwip_netconn_do_send(void *m)
1537:ThirdPackage/lwip220/api/api_msg.c **** {
1538:ThirdPackage/lwip220/api/api_msg.c ****   struct api_msg *msg = (struct api_msg *)m;
1539:ThirdPackage/lwip220/api/api_msg.c **** 
1540:ThirdPackage/lwip220/api/api_msg.c ****   err_t err = netconn_err(msg->conn);
1541:ThirdPackage/lwip220/api/api_msg.c ****   if (err == ERR_OK) {
1542:ThirdPackage/lwip220/api/api_msg.c ****     if (msg->conn->pcb.tcp != NULL) {
1543:ThirdPackage/lwip220/api/api_msg.c ****       switch (NETCONNTYPE_GROUP(msg->conn->type)) {
1544:ThirdPackage/lwip220/api/api_msg.c **** #if LWIP_RAW
1545:ThirdPackage/lwip220/api/api_msg.c ****         case NETCONN_RAW:
1546:ThirdPackage/lwip220/api/api_msg.c ****           if (ip_addr_isany(&msg->msg.b->addr) || IP_IS_ANY_TYPE_VAL(msg->msg.b->addr)) {
1547:ThirdPackage/lwip220/api/api_msg.c ****             err = raw_send(msg->conn->pcb.raw, msg->msg.b->p);
1548:ThirdPackage/lwip220/api/api_msg.c ****           } else {
1549:ThirdPackage/lwip220/api/api_msg.c ****             err = raw_sendto(msg->conn->pcb.raw, msg->msg.b->p, &msg->msg.b->addr);
1550:ThirdPackage/lwip220/api/api_msg.c ****           }
1551:ThirdPackage/lwip220/api/api_msg.c ****           break;
1552:ThirdPackage/lwip220/api/api_msg.c **** #endif
1553:ThirdPackage/lwip220/api/api_msg.c **** #if LWIP_UDP
1554:ThirdPackage/lwip220/api/api_msg.c ****         case NETCONN_UDP:
1555:ThirdPackage/lwip220/api/api_msg.c **** #if LWIP_CHECKSUM_ON_COPY
1556:ThirdPackage/lwip220/api/api_msg.c ****           if (ip_addr_isany(&msg->msg.b->addr) || IP_IS_ANY_TYPE_VAL(msg->msg.b->addr)) {
1557:ThirdPackage/lwip220/api/api_msg.c ****             err = udp_send_chksum(msg->conn->pcb.udp, msg->msg.b->p,
1558:ThirdPackage/lwip220/api/api_msg.c ****                                   msg->msg.b->flags & NETBUF_FLAG_CHKSUM, msg->msg.b->toport_chksum
1559:ThirdPackage/lwip220/api/api_msg.c ****           } else {
1560:ThirdPackage/lwip220/api/api_msg.c ****             err = udp_sendto_chksum(msg->conn->pcb.udp, msg->msg.b->p,
1561:ThirdPackage/lwip220/api/api_msg.c ****                                     &msg->msg.b->addr, msg->msg.b->port,
1562:ThirdPackage/lwip220/api/api_msg.c ****                                     msg->msg.b->flags & NETBUF_FLAG_CHKSUM, msg->msg.b->toport_chks
1563:ThirdPackage/lwip220/api/api_msg.c ****           }
1564:ThirdPackage/lwip220/api/api_msg.c **** #else /* LWIP_CHECKSUM_ON_COPY */
1565:ThirdPackage/lwip220/api/api_msg.c ****           if (ip_addr_isany_val(msg->msg.b->addr) || IP_IS_ANY_TYPE_VAL(msg->msg.b->addr)) {
1566:ThirdPackage/lwip220/api/api_msg.c ****             err = udp_send(msg->conn->pcb.udp, msg->msg.b->p);
1567:ThirdPackage/lwip220/api/api_msg.c ****           } else {
1568:ThirdPackage/lwip220/api/api_msg.c ****             err = udp_sendto(msg->conn->pcb.udp, msg->msg.b->p, &msg->msg.b->addr, msg->msg.b->port
1569:ThirdPackage/lwip220/api/api_msg.c ****           }
1570:ThirdPackage/lwip220/api/api_msg.c **** #endif /* LWIP_CHECKSUM_ON_COPY */
1571:ThirdPackage/lwip220/api/api_msg.c ****           break;
1572:ThirdPackage/lwip220/api/api_msg.c **** #endif /* LWIP_UDP */
1573:ThirdPackage/lwip220/api/api_msg.c ****         default:
1574:ThirdPackage/lwip220/api/api_msg.c ****           err = ERR_CONN;
1575:ThirdPackage/lwip220/api/api_msg.c ****           break;
1576:ThirdPackage/lwip220/api/api_msg.c ****       }
1577:ThirdPackage/lwip220/api/api_msg.c ****     } else {
1578:ThirdPackage/lwip220/api/api_msg.c ****       err = ERR_CONN;
ARM GAS  C:\Users\86188\AppData\Local\Temp\cccggEfL.s 			page 52


1579:ThirdPackage/lwip220/api/api_msg.c ****     }
1580:ThirdPackage/lwip220/api/api_msg.c ****   }
1581:ThirdPackage/lwip220/api/api_msg.c ****   msg->err = err;
1582:ThirdPackage/lwip220/api/api_msg.c ****   TCPIP_APIMSG_ACK(msg);
1583:ThirdPackage/lwip220/api/api_msg.c **** }
1584:ThirdPackage/lwip220/api/api_msg.c **** 
1585:ThirdPackage/lwip220/api/api_msg.c **** #if LWIP_TCP
1586:ThirdPackage/lwip220/api/api_msg.c **** /**
1587:ThirdPackage/lwip220/api/api_msg.c ****  * Indicate data has been received from a TCP pcb contained in a netconn
1588:ThirdPackage/lwip220/api/api_msg.c ****  * Called from netconn_recv
1589:ThirdPackage/lwip220/api/api_msg.c ****  *
1590:ThirdPackage/lwip220/api/api_msg.c ****  * @param m the api_msg pointing to the connection
1591:ThirdPackage/lwip220/api/api_msg.c ****  */
1592:ThirdPackage/lwip220/api/api_msg.c **** void
1593:ThirdPackage/lwip220/api/api_msg.c **** lwip_netconn_do_recv(void *m)
1594:ThirdPackage/lwip220/api/api_msg.c **** {
1595:ThirdPackage/lwip220/api/api_msg.c ****   struct api_msg *msg = (struct api_msg *)m;
1596:ThirdPackage/lwip220/api/api_msg.c **** 
1597:ThirdPackage/lwip220/api/api_msg.c ****   msg->err = ERR_OK;
1598:ThirdPackage/lwip220/api/api_msg.c ****   if (msg->conn->pcb.tcp != NULL) {
1599:ThirdPackage/lwip220/api/api_msg.c ****     if (NETCONNTYPE_GROUP(msg->conn->type) == NETCONN_TCP) {
1600:ThirdPackage/lwip220/api/api_msg.c ****       size_t remaining = msg->msg.r.len;
1601:ThirdPackage/lwip220/api/api_msg.c ****       do {
1602:ThirdPackage/lwip220/api/api_msg.c ****         u16_t recved = (u16_t)((remaining > 0xffff) ? 0xffff : remaining);
1603:ThirdPackage/lwip220/api/api_msg.c ****         tcp_recved(msg->conn->pcb.tcp, recved);
1604:ThirdPackage/lwip220/api/api_msg.c ****         remaining -= recved;
1605:ThirdPackage/lwip220/api/api_msg.c ****       } while (remaining != 0);
1606:ThirdPackage/lwip220/api/api_msg.c ****     }
1607:ThirdPackage/lwip220/api/api_msg.c ****   }
1608:ThirdPackage/lwip220/api/api_msg.c ****   TCPIP_APIMSG_ACK(msg);
1609:ThirdPackage/lwip220/api/api_msg.c **** }
1610:ThirdPackage/lwip220/api/api_msg.c **** 
1611:ThirdPackage/lwip220/api/api_msg.c **** #if TCP_LISTEN_BACKLOG
1612:ThirdPackage/lwip220/api/api_msg.c **** /** Indicate that a TCP pcb has been accepted
1613:ThirdPackage/lwip220/api/api_msg.c ****  * Called from netconn_accept
1614:ThirdPackage/lwip220/api/api_msg.c ****  *
1615:ThirdPackage/lwip220/api/api_msg.c ****  * @param m the api_msg pointing to the connection
1616:ThirdPackage/lwip220/api/api_msg.c ****  */
1617:ThirdPackage/lwip220/api/api_msg.c **** void
1618:ThirdPackage/lwip220/api/api_msg.c **** lwip_netconn_do_accepted(void *m)
1619:ThirdPackage/lwip220/api/api_msg.c **** {
1620:ThirdPackage/lwip220/api/api_msg.c ****   struct api_msg *msg = (struct api_msg *)m;
1621:ThirdPackage/lwip220/api/api_msg.c **** 
1622:ThirdPackage/lwip220/api/api_msg.c ****   msg->err = ERR_OK;
1623:ThirdPackage/lwip220/api/api_msg.c ****   if (msg->conn->pcb.tcp != NULL) {
1624:ThirdPackage/lwip220/api/api_msg.c ****     if (NETCONNTYPE_GROUP(msg->conn->type) == NETCONN_TCP) {
1625:ThirdPackage/lwip220/api/api_msg.c ****       tcp_backlog_accepted(msg->conn->pcb.tcp);
1626:ThirdPackage/lwip220/api/api_msg.c ****     }
1627:ThirdPackage/lwip220/api/api_msg.c ****   }
1628:ThirdPackage/lwip220/api/api_msg.c ****   TCPIP_APIMSG_ACK(msg);
1629:ThirdPackage/lwip220/api/api_msg.c **** }
1630:ThirdPackage/lwip220/api/api_msg.c **** #endif /* TCP_LISTEN_BACKLOG */
1631:ThirdPackage/lwip220/api/api_msg.c **** 
1632:ThirdPackage/lwip220/api/api_msg.c **** /**
1633:ThirdPackage/lwip220/api/api_msg.c ****  * See if more data needs to be written from a previous call to netconn_write.
1634:ThirdPackage/lwip220/api/api_msg.c ****  * Called initially from lwip_netconn_do_write. If the first call can't send all data
1635:ThirdPackage/lwip220/api/api_msg.c ****  * (because of low memory or empty send-buffer), this function is called again
ARM GAS  C:\Users\86188\AppData\Local\Temp\cccggEfL.s 			page 53


1636:ThirdPackage/lwip220/api/api_msg.c ****  * from sent_tcp() or poll_tcp() to send more data. If all data is sent, the
1637:ThirdPackage/lwip220/api/api_msg.c ****  * blocking application thread (waiting in netconn_write) is released.
1638:ThirdPackage/lwip220/api/api_msg.c ****  *
1639:ThirdPackage/lwip220/api/api_msg.c ****  * @param conn netconn (that is currently in state NETCONN_WRITE) to process
1640:ThirdPackage/lwip220/api/api_msg.c ****  * @return ERR_OK
1641:ThirdPackage/lwip220/api/api_msg.c ****  *         ERR_MEM if LWIP_TCPIP_CORE_LOCKING=1 and sending hasn't yet finished
1642:ThirdPackage/lwip220/api/api_msg.c ****  */
1643:ThirdPackage/lwip220/api/api_msg.c **** static err_t
1644:ThirdPackage/lwip220/api/api_msg.c **** lwip_netconn_do_writemore(struct netconn *conn  WRITE_DELAYED_PARAM)
1645:ThirdPackage/lwip220/api/api_msg.c **** {
 1108              		.loc 1 1645 1 is_stmt 1 view -0
 1109              		.cfi_startproc
 1110              		@ args = 0, pretend = 0, frame = 0
 1111              		@ frame_needed = 0, uses_anonymous_args = 0
 1112              		.loc 1 1645 1 is_stmt 0 view .LVU320
 1113 0000 2DE9F84F 		push	{r3, r4, r5, r6, r7, r8, r9, r10, fp, lr}
 1114              	.LCFI8:
 1115              		.cfi_def_cfa_offset 40
 1116              		.cfi_offset 3, -40
 1117              		.cfi_offset 4, -36
 1118              		.cfi_offset 5, -32
 1119              		.cfi_offset 6, -28
 1120              		.cfi_offset 7, -24
 1121              		.cfi_offset 8, -20
 1122              		.cfi_offset 9, -16
 1123              		.cfi_offset 10, -12
 1124              		.cfi_offset 11, -8
 1125              		.cfi_offset 14, -4
 1126 0004 8B46     		mov	fp, r1
1646:ThirdPackage/lwip220/api/api_msg.c ****   err_t err;
 1127              		.loc 1 1646 3 is_stmt 1 view .LVU321
1647:ThirdPackage/lwip220/api/api_msg.c ****   const void *dataptr;
 1128              		.loc 1 1647 3 view .LVU322
1648:ThirdPackage/lwip220/api/api_msg.c ****   u16_t len, available;
 1129              		.loc 1 1648 3 view .LVU323
1649:ThirdPackage/lwip220/api/api_msg.c ****   u8_t write_finished = 0;
 1130              		.loc 1 1649 3 view .LVU324
 1131              	.LVL108:
1650:ThirdPackage/lwip220/api/api_msg.c ****   size_t diff;
 1132              		.loc 1 1650 3 view .LVU325
1651:ThirdPackage/lwip220/api/api_msg.c ****   u8_t dontblock;
 1133              		.loc 1 1651 3 view .LVU326
1652:ThirdPackage/lwip220/api/api_msg.c ****   u8_t apiflags;
 1134              		.loc 1 1652 3 view .LVU327
1653:ThirdPackage/lwip220/api/api_msg.c ****   u8_t write_more;
 1135              		.loc 1 1653 3 view .LVU328
1654:ThirdPackage/lwip220/api/api_msg.c **** 
1655:ThirdPackage/lwip220/api/api_msg.c ****   LWIP_ASSERT("conn != NULL", conn != NULL);
 1136              		.loc 1 1655 3 view .LVU329
 1137              		.loc 1 1655 3 view .LVU330
 1138 0006 0546     		mov	r5, r0
 1139 0008 E0B1     		cbz	r0, .L139
 1140              	.LVL109:
 1141              	.L96:
 1142              		.loc 1 1655 3 discriminator 3 view .LVU331
 1143              		.loc 1 1655 3 discriminator 3 view .LVU332
1656:ThirdPackage/lwip220/api/api_msg.c ****   LWIP_ASSERT("conn->state == NETCONN_WRITE", (conn->state == NETCONN_WRITE));
ARM GAS  C:\Users\86188\AppData\Local\Temp\cccggEfL.s 			page 54


 1144              		.loc 1 1656 3 discriminator 3 view .LVU333
 1145              		.loc 1 1656 3 discriminator 3 view .LVU334
 1146 000a 6B78     		ldrb	r3, [r5, #1]	@ zero_extendqisi2
 1147 000c 012B     		cmp	r3, #1
 1148 000e 21D1     		bne	.L140
 1149              	.L97:
 1150              		.loc 1 1656 3 discriminator 3 view .LVU335
 1151              		.loc 1 1656 3 discriminator 3 view .LVU336
1657:ThirdPackage/lwip220/api/api_msg.c ****   LWIP_ASSERT("conn->current_msg != NULL", conn->current_msg != NULL);
 1152              		.loc 1 1657 3 discriminator 3 view .LVU337
 1153              		.loc 1 1657 3 discriminator 3 view .LVU338
 1154 0010 2B6A     		ldr	r3, [r5, #32]
 1155 0012 3BB3     		cbz	r3, .L141
 1156              	.L98:
 1157              		.loc 1 1657 3 discriminator 3 view .LVU339
 1158              		.loc 1 1657 3 discriminator 3 view .LVU340
1658:ThirdPackage/lwip220/api/api_msg.c ****   LWIP_ASSERT("conn->pcb.tcp != NULL", conn->pcb.tcp != NULL);
 1159              		.loc 1 1658 3 discriminator 3 view .LVU341
 1160              		.loc 1 1658 3 discriminator 3 view .LVU342
 1161 0014 6B68     		ldr	r3, [r5, #4]
 1162 0016 6BB3     		cbz	r3, .L142
 1163              	.L99:
 1164              		.loc 1 1658 3 discriminator 3 view .LVU343
 1165              		.loc 1 1658 3 discriminator 3 view .LVU344
1659:ThirdPackage/lwip220/api/api_msg.c ****   LWIP_ASSERT("conn->current_msg->msg.w.offset < conn->current_msg->msg.w.len",
 1166              		.loc 1 1659 3 discriminator 3 view .LVU345
 1167              		.loc 1 1659 3 discriminator 3 view .LVU346
 1168 0018 2B6A     		ldr	r3, [r5, #32]
 1169 001a 9A69     		ldr	r2, [r3, #24]
 1170 001c 5B69     		ldr	r3, [r3, #20]
 1171 001e 9A42     		cmp	r2, r3
 1172 0020 30D2     		bcs	.L143
 1173              	.L100:
 1174              		.loc 1 1659 3 discriminator 3 view .LVU347
 1175              		.loc 1 1659 3 discriminator 3 view .LVU348
1660:ThirdPackage/lwip220/api/api_msg.c ****               conn->current_msg->msg.w.offset < conn->current_msg->msg.w.len);
1661:ThirdPackage/lwip220/api/api_msg.c ****   LWIP_ASSERT("conn->current_msg->msg.w.vector_cnt > 0", conn->current_msg->msg.w.vector_cnt > 0);
 1176              		.loc 1 1661 3 discriminator 3 view .LVU349
 1177              		.loc 1 1661 3 discriminator 3 view .LVU350
 1178 0022 2B6A     		ldr	r3, [r5, #32]
 1179 0024 9B89     		ldrh	r3, [r3, #12]
 1180 0026 002B     		cmp	r3, #0
 1181 0028 34D0     		beq	.L144
 1182              	.L101:
 1183              		.loc 1 1661 3 discriminator 3 view .LVU351
 1184              		.loc 1 1661 3 discriminator 3 view .LVU352
1662:ThirdPackage/lwip220/api/api_msg.c **** 
1663:ThirdPackage/lwip220/api/api_msg.c ****   apiflags = conn->current_msg->msg.w.apiflags;
 1185              		.loc 1 1663 3 discriminator 3 view .LVU353
 1186              		.loc 1 1663 18 is_stmt 0 discriminator 3 view .LVU354
 1187 002a 2B6A     		ldr	r3, [r5, #32]
 1188              		.loc 1 1663 12 discriminator 3 view .LVU355
 1189 002c 93F81C80 		ldrb	r8, [r3, #28]	@ zero_extendqisi2
 1190              	.LVL110:
1664:ThirdPackage/lwip220/api/api_msg.c ****   dontblock = netconn_is_nonblocking(conn) || (apiflags & NETCONN_DONTBLOCK);
 1191              		.loc 1 1664 3 is_stmt 1 discriminator 3 view .LVU356
 1192              		.loc 1 1664 15 is_stmt 0 discriminator 3 view .LVU357
ARM GAS  C:\Users\86188\AppData\Local\Temp\cccggEfL.s 			page 55


 1193 0030 2B7F     		ldrb	r3, [r5, #28]	@ zero_extendqisi2
 1194              		.loc 1 1664 44 discriminator 3 view .LVU358
 1195 0032 13F0020F 		tst	r3, #2
 1196 0036 35D1     		bne	.L126
 1197              		.loc 1 1664 44 discriminator 2 view .LVU359
 1198 0038 18F0040F 		tst	r8, #4
 1199 003c 37D0     		beq	.L127
 1200              		.loc 1 1664 44 view .LVU360
 1201 003e 4FF0010A 		mov	r10, #1
 1202 0042 31E0     		b	.L102
 1203              	.LVL111:
 1204              	.L139:
1655:ThirdPackage/lwip220/api/api_msg.c ****   LWIP_ASSERT("conn->state == NETCONN_WRITE", (conn->state == NETCONN_WRITE));
 1205              		.loc 1 1655 3 is_stmt 1 discriminator 1 view .LVU361
1655:ThirdPackage/lwip220/api/api_msg.c ****   LWIP_ASSERT("conn->state == NETCONN_WRITE", (conn->state == NETCONN_WRITE));
 1206              		.loc 1 1655 3 discriminator 1 view .LVU362
 1207 0044 8A4B     		ldr	r3, .L152
 1208 0046 40F27762 		movw	r2, #1655
 1209 004a 8A49     		ldr	r1, .L152+4
 1210              	.LVL112:
1655:ThirdPackage/lwip220/api/api_msg.c ****   LWIP_ASSERT("conn->state == NETCONN_WRITE", (conn->state == NETCONN_WRITE));
 1211              		.loc 1 1655 3 is_stmt 0 discriminator 1 view .LVU363
 1212 004c 8A48     		ldr	r0, .L152+8
 1213              	.LVL113:
1655:ThirdPackage/lwip220/api/api_msg.c ****   LWIP_ASSERT("conn->state == NETCONN_WRITE", (conn->state == NETCONN_WRITE));
 1214              		.loc 1 1655 3 discriminator 1 view .LVU364
 1215 004e FFF7FEFF 		bl	printf
 1216              	.LVL114:
 1217 0052 DAE7     		b	.L96
 1218              	.L140:
1656:ThirdPackage/lwip220/api/api_msg.c ****   LWIP_ASSERT("conn->current_msg != NULL", conn->current_msg != NULL);
 1219              		.loc 1 1656 3 is_stmt 1 discriminator 1 view .LVU365
1656:ThirdPackage/lwip220/api/api_msg.c ****   LWIP_ASSERT("conn->current_msg != NULL", conn->current_msg != NULL);
 1220              		.loc 1 1656 3 discriminator 1 view .LVU366
 1221 0054 864B     		ldr	r3, .L152
 1222 0056 4FF4CF62 		mov	r2, #1656
 1223 005a 8849     		ldr	r1, .L152+12
 1224 005c 8648     		ldr	r0, .L152+8
 1225 005e FFF7FEFF 		bl	printf
 1226              	.LVL115:
 1227 0062 D5E7     		b	.L97
 1228              	.L141:
1657:ThirdPackage/lwip220/api/api_msg.c ****   LWIP_ASSERT("conn->pcb.tcp != NULL", conn->pcb.tcp != NULL);
 1229              		.loc 1 1657 3 discriminator 1 view .LVU367
1657:ThirdPackage/lwip220/api/api_msg.c ****   LWIP_ASSERT("conn->pcb.tcp != NULL", conn->pcb.tcp != NULL);
 1230              		.loc 1 1657 3 discriminator 1 view .LVU368
 1231 0064 824B     		ldr	r3, .L152
 1232 0066 40F27962 		movw	r2, #1657
 1233 006a 8549     		ldr	r1, .L152+16
 1234 006c 8248     		ldr	r0, .L152+8
 1235 006e FFF7FEFF 		bl	printf
 1236              	.LVL116:
 1237 0072 CFE7     		b	.L98
 1238              	.L142:
1658:ThirdPackage/lwip220/api/api_msg.c ****   LWIP_ASSERT("conn->current_msg->msg.w.offset < conn->current_msg->msg.w.len",
 1239              		.loc 1 1658 3 discriminator 1 view .LVU369
1658:ThirdPackage/lwip220/api/api_msg.c ****   LWIP_ASSERT("conn->current_msg->msg.w.offset < conn->current_msg->msg.w.len",
ARM GAS  C:\Users\86188\AppData\Local\Temp\cccggEfL.s 			page 56


 1240              		.loc 1 1658 3 discriminator 1 view .LVU370
 1241 0074 7E4B     		ldr	r3, .L152
 1242 0076 40F27A62 		movw	r2, #1658
 1243 007a 8249     		ldr	r1, .L152+20
 1244 007c 7E48     		ldr	r0, .L152+8
 1245 007e FFF7FEFF 		bl	printf
 1246              	.LVL117:
 1247 0082 C9E7     		b	.L99
 1248              	.L143:
1659:ThirdPackage/lwip220/api/api_msg.c ****               conn->current_msg->msg.w.offset < conn->current_msg->msg.w.len);
 1249              		.loc 1 1659 3 discriminator 1 view .LVU371
1659:ThirdPackage/lwip220/api/api_msg.c ****               conn->current_msg->msg.w.offset < conn->current_msg->msg.w.len);
 1250              		.loc 1 1659 3 discriminator 1 view .LVU372
 1251 0084 7A4B     		ldr	r3, .L152
 1252 0086 40F27B62 		movw	r2, #1659
 1253 008a 7F49     		ldr	r1, .L152+24
 1254 008c 7A48     		ldr	r0, .L152+8
 1255 008e FFF7FEFF 		bl	printf
 1256              	.LVL118:
 1257 0092 C6E7     		b	.L100
 1258              	.L144:
1661:ThirdPackage/lwip220/api/api_msg.c **** 
 1259              		.loc 1 1661 3 discriminator 1 view .LVU373
1661:ThirdPackage/lwip220/api/api_msg.c **** 
 1260              		.loc 1 1661 3 discriminator 1 view .LVU374
 1261 0094 764B     		ldr	r3, .L152
 1262 0096 40F27D62 		movw	r2, #1661
 1263 009a 7C49     		ldr	r1, .L152+28
 1264 009c 7648     		ldr	r0, .L152+8
 1265 009e FFF7FEFF 		bl	printf
 1266              	.LVL119:
 1267 00a2 C2E7     		b	.L101
 1268              	.LVL120:
 1269              	.L126:
 1270              		.loc 1 1664 44 is_stmt 0 view .LVU375
 1271 00a4 4FF0010A 		mov	r10, #1
 1272              	.L102:
 1273              		.loc 1 1664 13 discriminator 6 view .LVU376
 1274 00a8 5FFA8AFA 		uxtb	r10, r10
 1275              	.LVL121:
 1276              		.loc 1 1664 13 discriminator 6 view .LVU377
 1277 00ac 4EE0     		b	.L115
 1278              	.LVL122:
 1279              	.L127:
 1280              		.loc 1 1664 44 view .LVU378
 1281 00ae 4FF0000A 		mov	r10, #0
 1282 00b2 F9E7     		b	.L102
 1283              	.LVL123:
 1284              	.L103:
1665:ThirdPackage/lwip220/api/api_msg.c **** 
1666:ThirdPackage/lwip220/api/api_msg.c **** #if LWIP_SO_SNDTIMEO
1667:ThirdPackage/lwip220/api/api_msg.c ****   if ((conn->send_timeout != 0) &&
1668:ThirdPackage/lwip220/api/api_msg.c ****       ((s32_t)(sys_now() - conn->current_msg->msg.w.time_started) >= conn->send_timeout)) {
1669:ThirdPackage/lwip220/api/api_msg.c ****     write_finished = 1;
1670:ThirdPackage/lwip220/api/api_msg.c ****     if (conn->current_msg->msg.w.offset == 0) {
1671:ThirdPackage/lwip220/api/api_msg.c ****       /* nothing has been written */
1672:ThirdPackage/lwip220/api/api_msg.c ****       err = ERR_WOULDBLOCK;
ARM GAS  C:\Users\86188\AppData\Local\Temp\cccggEfL.s 			page 57


1673:ThirdPackage/lwip220/api/api_msg.c ****     } else {
1674:ThirdPackage/lwip220/api/api_msg.c ****       /* partial write */
1675:ThirdPackage/lwip220/api/api_msg.c ****       err = ERR_OK;
1676:ThirdPackage/lwip220/api/api_msg.c ****     }
1677:ThirdPackage/lwip220/api/api_msg.c ****   } else
1678:ThirdPackage/lwip220/api/api_msg.c **** #endif /* LWIP_SO_SNDTIMEO */
1679:ThirdPackage/lwip220/api/api_msg.c ****   {
1680:ThirdPackage/lwip220/api/api_msg.c ****     do {
1681:ThirdPackage/lwip220/api/api_msg.c ****       dataptr = (const u8_t *)conn->current_msg->msg.w.vector->ptr + conn->current_msg->msg.w.vecto
1682:ThirdPackage/lwip220/api/api_msg.c ****       diff = conn->current_msg->msg.w.vector->len - conn->current_msg->msg.w.vector_off;
1683:ThirdPackage/lwip220/api/api_msg.c ****       if (diff > 0xffffUL) { /* max_u16_t */
1684:ThirdPackage/lwip220/api/api_msg.c ****         len = 0xffff;
1685:ThirdPackage/lwip220/api/api_msg.c ****         apiflags |= TCP_WRITE_FLAG_MORE;
1686:ThirdPackage/lwip220/api/api_msg.c ****       } else {
1687:ThirdPackage/lwip220/api/api_msg.c ****         len = (u16_t)diff;
 1285              		.loc 1 1687 9 is_stmt 1 view .LVU379
 1286              		.loc 1 1687 13 is_stmt 0 view .LVU380
 1287 00b4 B4B2     		uxth	r4, r6
 1288              	.LVL124:
 1289              		.loc 1 1687 13 view .LVU381
 1290 00b6 57E0     		b	.L104
 1291              	.LVL125:
 1292              	.L148:
1688:ThirdPackage/lwip220/api/api_msg.c ****       }
1689:ThirdPackage/lwip220/api/api_msg.c ****       available = tcp_sndbuf(conn->pcb.tcp);
1690:ThirdPackage/lwip220/api/api_msg.c ****       if (available < len) {
1691:ThirdPackage/lwip220/api/api_msg.c ****         /* don't try to write more than sendbuf */
1692:ThirdPackage/lwip220/api/api_msg.c ****         len = available;
1693:ThirdPackage/lwip220/api/api_msg.c ****         if (dontblock) {
1694:ThirdPackage/lwip220/api/api_msg.c ****           if (!len) {
1695:ThirdPackage/lwip220/api/api_msg.c ****             /* set error according to partial write or not */
1696:ThirdPackage/lwip220/api/api_msg.c ****             err = (conn->current_msg->msg.w.offset == 0) ? ERR_WOULDBLOCK : ERR_OK;
 1293              		.loc 1 1696 13 is_stmt 1 view .LVU382
 1294              		.loc 1 1696 44 is_stmt 0 view .LVU383
 1295 00b8 9369     		ldr	r3, [r2, #24]
 1296              		.loc 1 1696 17 view .LVU384
 1297 00ba B3B9     		cbnz	r3, .L129
 1298 00bc 6FF00604 		mvn	r4, #6
 1299              	.LVL126:
 1300              	.L108:
1697:ThirdPackage/lwip220/api/api_msg.c ****             goto err_mem;
1698:ThirdPackage/lwip220/api/api_msg.c ****           }
1699:ThirdPackage/lwip220/api/api_msg.c ****         } else {
1700:ThirdPackage/lwip220/api/api_msg.c ****           apiflags |= TCP_WRITE_FLAG_MORE;
1701:ThirdPackage/lwip220/api/api_msg.c ****         }
1702:ThirdPackage/lwip220/api/api_msg.c ****       }
1703:ThirdPackage/lwip220/api/api_msg.c ****       LWIP_ASSERT("lwip_netconn_do_writemore: invalid length!",
1704:ThirdPackage/lwip220/api/api_msg.c ****                   ((conn->current_msg->msg.w.vector_off + len) <= conn->current_msg->msg.w.vector->
1705:ThirdPackage/lwip220/api/api_msg.c ****       /* we should loop around for more sending in the following cases:
1706:ThirdPackage/lwip220/api/api_msg.c ****            1) We couldn't finish the current vector because of 16-bit size limitations.
1707:ThirdPackage/lwip220/api/api_msg.c ****               tcp_write() and tcp_sndbuf() both are limited to 16-bit sizes
1708:ThirdPackage/lwip220/api/api_msg.c ****            2) We are sending the remainder of the current vector and have more */
1709:ThirdPackage/lwip220/api/api_msg.c ****       if ((len == 0xffff && diff > 0xffffUL) ||
1710:ThirdPackage/lwip220/api/api_msg.c ****           (len == (u16_t)diff && conn->current_msg->msg.w.vector_cnt > 1)) {
1711:ThirdPackage/lwip220/api/api_msg.c ****         write_more = 1;
1712:ThirdPackage/lwip220/api/api_msg.c ****         apiflags |= TCP_WRITE_FLAG_MORE;
1713:ThirdPackage/lwip220/api/api_msg.c ****       } else {
ARM GAS  C:\Users\86188\AppData\Local\Temp\cccggEfL.s 			page 58


1714:ThirdPackage/lwip220/api/api_msg.c ****         write_more = 0;
1715:ThirdPackage/lwip220/api/api_msg.c ****       }
1716:ThirdPackage/lwip220/api/api_msg.c ****       err = tcp_write(conn->pcb.tcp, dataptr, len, apiflags);
1717:ThirdPackage/lwip220/api/api_msg.c ****       if (err == ERR_OK) {
1718:ThirdPackage/lwip220/api/api_msg.c ****         conn->current_msg->msg.w.offset += len;
1719:ThirdPackage/lwip220/api/api_msg.c ****         conn->current_msg->msg.w.vector_off += len;
1720:ThirdPackage/lwip220/api/api_msg.c ****         /* check if current vector is finished */
1721:ThirdPackage/lwip220/api/api_msg.c ****         if (conn->current_msg->msg.w.vector_off == conn->current_msg->msg.w.vector->len) {
1722:ThirdPackage/lwip220/api/api_msg.c ****           conn->current_msg->msg.w.vector_cnt--;
1723:ThirdPackage/lwip220/api/api_msg.c ****           /* if we have additional vectors, move on to them */
1724:ThirdPackage/lwip220/api/api_msg.c ****           if (conn->current_msg->msg.w.vector_cnt > 0) {
1725:ThirdPackage/lwip220/api/api_msg.c ****             conn->current_msg->msg.w.vector++;
1726:ThirdPackage/lwip220/api/api_msg.c ****             conn->current_msg->msg.w.vector_off = 0;
1727:ThirdPackage/lwip220/api/api_msg.c ****           }
1728:ThirdPackage/lwip220/api/api_msg.c ****         }
1729:ThirdPackage/lwip220/api/api_msg.c ****       }
1730:ThirdPackage/lwip220/api/api_msg.c ****     } while (write_more && err == ERR_OK);
1731:ThirdPackage/lwip220/api/api_msg.c ****     /* if OK or memory error, check available space */
1732:ThirdPackage/lwip220/api/api_msg.c ****     if ((err == ERR_OK) || (err == ERR_MEM)) {
1733:ThirdPackage/lwip220/api/api_msg.c **** err_mem:
1734:ThirdPackage/lwip220/api/api_msg.c ****       if (dontblock && (conn->current_msg->msg.w.offset < conn->current_msg->msg.w.len)) {
 1301              		.loc 1 1734 7 is_stmt 1 view .LVU385
 1302              		.loc 1 1734 10 is_stmt 0 view .LVU386
 1303 00c0 BAF1000F 		cmp	r10, #0
 1304 00c4 00F08B80 		beq	.L117
 1305              		.loc 1 1734 29 discriminator 1 view .LVU387
 1306 00c8 2B6A     		ldr	r3, [r5, #32]
 1307              		.loc 1 1734 49 discriminator 1 view .LVU388
 1308 00ca 9A69     		ldr	r2, [r3, #24]
 1309              		.loc 1 1734 83 discriminator 1 view .LVU389
 1310 00cc 5B69     		ldr	r3, [r3, #20]
 1311              		.loc 1 1734 21 discriminator 1 view .LVU390
 1312 00ce 9A42     		cmp	r2, r3
 1313 00d0 80F08580 		bcs	.L117
1735:ThirdPackage/lwip220/api/api_msg.c ****         /* non-blocking write did not write everything: mark the pcb non-writable
1736:ThirdPackage/lwip220/api/api_msg.c ****            and let poll_tcp check writable space to mark the pcb writable again */
1737:ThirdPackage/lwip220/api/api_msg.c ****         API_EVENT(conn, NETCONN_EVT_SENDMINUS, 0);
 1314              		.loc 1 1737 9 is_stmt 1 view .LVU391
 1315 00d4 6B6A     		ldr	r3, [r5, #36]
 1316 00d6 1BB1     		cbz	r3, .L118
 1317              		.loc 1 1737 9 discriminator 1 view .LVU392
 1318 00d8 0022     		movs	r2, #0
 1319 00da 0321     		movs	r1, #3
 1320 00dc 2846     		mov	r0, r5
 1321 00de 9847     		blx	r3
 1322              	.LVL127:
 1323              	.L118:
 1324              		.loc 1 1737 50 discriminator 3 view .LVU393
1738:ThirdPackage/lwip220/api/api_msg.c ****         conn->flags |= NETCONN_FLAG_CHECK_WRITESPACE;
 1325              		.loc 1 1738 9 discriminator 3 view .LVU394
 1326              		.loc 1 1738 21 is_stmt 0 discriminator 3 view .LVU395
 1327 00e0 2B7F     		ldrb	r3, [r5, #28]	@ zero_extendqisi2
 1328 00e2 43F01003 		orr	r3, r3, #16
 1329 00e6 2B77     		strb	r3, [r5, #28]
 1330 00e8 6DE0     		b	.L116
 1331              	.LVL128:
 1332              	.L129:
ARM GAS  C:\Users\86188\AppData\Local\Temp\cccggEfL.s 			page 59


1696:ThirdPackage/lwip220/api/api_msg.c ****             goto err_mem;
 1333              		.loc 1 1696 17 view .LVU396
 1334 00ea 0024     		movs	r4, #0
 1335              	.LVL129:
1697:ThirdPackage/lwip220/api/api_msg.c ****           }
 1336              		.loc 1 1697 13 is_stmt 1 view .LVU397
 1337 00ec E8E7     		b	.L108
 1338              	.LVL130:
 1339              	.L106:
1700:ThirdPackage/lwip220/api/api_msg.c ****         }
 1340              		.loc 1 1700 11 view .LVU398
1700:ThirdPackage/lwip220/api/api_msg.c ****         }
 1341              		.loc 1 1700 20 is_stmt 0 view .LVU399
 1342 00ee 48F00208 		orr	r8, r8, #2
 1343              	.LVL131:
1692:ThirdPackage/lwip220/api/api_msg.c ****         if (dontblock) {
 1344              		.loc 1 1692 13 view .LVU400
 1345 00f2 0446     		mov	r4, r0
 1346              	.LVL132:
 1347              	.L105:
1703:ThirdPackage/lwip220/api/api_msg.c ****                   ((conn->current_msg->msg.w.vector_off + len) <= conn->current_msg->msg.w.vector->
 1348              		.loc 1 1703 7 is_stmt 1 view .LVU401
1703:ThirdPackage/lwip220/api/api_msg.c ****                   ((conn->current_msg->msg.w.vector_off + len) <= conn->current_msg->msg.w.vector->
 1349              		.loc 1 1703 7 view .LVU402
 1350 00f4 A146     		mov	r9, r4
 1351 00f6 2344     		add	r3, r3, r4
 1352 00f8 9942     		cmp	r1, r3
 1353 00fa 41D3     		bcc	.L145
 1354              	.LVL133:
 1355              	.L109:
1703:ThirdPackage/lwip220/api/api_msg.c ****                   ((conn->current_msg->msg.w.vector_off + len) <= conn->current_msg->msg.w.vector->
 1356              		.loc 1 1703 7 discriminator 3 view .LVU403
1703:ThirdPackage/lwip220/api/api_msg.c ****                   ((conn->current_msg->msg.w.vector_off + len) <= conn->current_msg->msg.w.vector->
 1357              		.loc 1 1703 7 discriminator 3 view .LVU404
1709:ThirdPackage/lwip220/api/api_msg.c ****           (len == (u16_t)diff && conn->current_msg->msg.w.vector_cnt > 1)) {
 1358              		.loc 1 1709 7 discriminator 3 view .LVU405
1709:ThirdPackage/lwip220/api/api_msg.c ****           (len == (u16_t)diff && conn->current_msg->msg.w.vector_cnt > 1)) {
 1359              		.loc 1 1709 10 is_stmt 0 discriminator 3 view .LVU406
 1360 00fc 4FF6FF73 		movw	r3, #65535
 1361 0100 9C42     		cmp	r4, r3
 1362 0102 45D0     		beq	.L146
 1363              	.L110:
1710:ThirdPackage/lwip220/api/api_msg.c ****         write_more = 1;
 1364              		.loc 1 1710 19 discriminator 3 view .LVU407
 1365 0104 B6B2     		uxth	r6, r6
 1366              	.LVL134:
1709:ThirdPackage/lwip220/api/api_msg.c ****           (len == (u16_t)diff && conn->current_msg->msg.w.vector_cnt > 1)) {
 1367              		.loc 1 1709 46 discriminator 3 view .LVU408
 1368 0106 A642     		cmp	r6, r4
 1369 0108 46D1     		bne	.L130
1710:ThirdPackage/lwip220/api/api_msg.c ****         write_more = 1;
 1370              		.loc 1 1710 38 view .LVU409
 1371 010a 2B6A     		ldr	r3, [r5, #32]
1710:ThirdPackage/lwip220/api/api_msg.c ****         write_more = 1;
 1372              		.loc 1 1710 58 view .LVU410
 1373 010c 9B89     		ldrh	r3, [r3, #12]
1710:ThirdPackage/lwip220/api/api_msg.c ****         write_more = 1;
ARM GAS  C:\Users\86188\AppData\Local\Temp\cccggEfL.s 			page 60


 1374              		.loc 1 1710 31 view .LVU411
 1375 010e 012B     		cmp	r3, #1
 1376 0110 44D9     		bls	.L131
 1377              	.L111:
1711:ThirdPackage/lwip220/api/api_msg.c ****         apiflags |= TCP_WRITE_FLAG_MORE;
 1378              		.loc 1 1711 9 is_stmt 1 view .LVU412
 1379              	.LVL135:
1712:ThirdPackage/lwip220/api/api_msg.c ****       } else {
 1380              		.loc 1 1712 9 view .LVU413
1712:ThirdPackage/lwip220/api/api_msg.c ****       } else {
 1381              		.loc 1 1712 18 is_stmt 0 view .LVU414
 1382 0112 48F00208 		orr	r8, r8, #2
 1383              	.LVL136:
1711:ThirdPackage/lwip220/api/api_msg.c ****         apiflags |= TCP_WRITE_FLAG_MORE;
 1384              		.loc 1 1711 20 view .LVU415
 1385 0116 0126     		movs	r6, #1
 1386              	.LVL137:
 1387              	.L112:
1716:ThirdPackage/lwip220/api/api_msg.c ****       if (err == ERR_OK) {
 1388              		.loc 1 1716 7 is_stmt 1 view .LVU416
1716:ThirdPackage/lwip220/api/api_msg.c ****       if (err == ERR_OK) {
 1389              		.loc 1 1716 13 is_stmt 0 view .LVU417
 1390 0118 4346     		mov	r3, r8
 1391 011a 2246     		mov	r2, r4
 1392 011c 3946     		mov	r1, r7
 1393 011e 6868     		ldr	r0, [r5, #4]
 1394 0120 FFF7FEFF 		bl	tcp_write
 1395              	.LVL138:
1717:ThirdPackage/lwip220/api/api_msg.c ****         conn->current_msg->msg.w.offset += len;
 1396              		.loc 1 1717 7 is_stmt 1 view .LVU418
1717:ThirdPackage/lwip220/api/api_msg.c ****         conn->current_msg->msg.w.offset += len;
 1397              		.loc 1 1717 10 is_stmt 0 view .LVU419
 1398 0124 0446     		mov	r4, r0
 1399              	.LVL139:
1717:ThirdPackage/lwip220/api/api_msg.c ****         conn->current_msg->msg.w.offset += len;
 1400              		.loc 1 1717 10 view .LVU420
 1401 0126 68B9     		cbnz	r0, .L113
1718:ThirdPackage/lwip220/api/api_msg.c ****         conn->current_msg->msg.w.vector_off += len;
 1402              		.loc 1 1718 9 is_stmt 1 view .LVU421
1718:ThirdPackage/lwip220/api/api_msg.c ****         conn->current_msg->msg.w.vector_off += len;
 1403              		.loc 1 1718 13 is_stmt 0 view .LVU422
 1404 0128 2A6A     		ldr	r2, [r5, #32]
1718:ThirdPackage/lwip220/api/api_msg.c ****         conn->current_msg->msg.w.vector_off += len;
 1405              		.loc 1 1718 41 view .LVU423
 1406 012a 9369     		ldr	r3, [r2, #24]
 1407 012c 4B44     		add	r3, r3, r9
 1408 012e 9361     		str	r3, [r2, #24]
1719:ThirdPackage/lwip220/api/api_msg.c ****         /* check if current vector is finished */
 1409              		.loc 1 1719 9 is_stmt 1 view .LVU424
1719:ThirdPackage/lwip220/api/api_msg.c ****         /* check if current vector is finished */
 1410              		.loc 1 1719 13 is_stmt 0 view .LVU425
 1411 0130 2A6A     		ldr	r2, [r5, #32]
1719:ThirdPackage/lwip220/api/api_msg.c ****         /* check if current vector is finished */
 1412              		.loc 1 1719 45 view .LVU426
 1413 0132 1369     		ldr	r3, [r2, #16]
 1414 0134 4B44     		add	r3, r3, r9
 1415 0136 1361     		str	r3, [r2, #16]
ARM GAS  C:\Users\86188\AppData\Local\Temp\cccggEfL.s 			page 61


1721:ThirdPackage/lwip220/api/api_msg.c ****           conn->current_msg->msg.w.vector_cnt--;
 1416              		.loc 1 1721 9 is_stmt 1 view .LVU427
1721:ThirdPackage/lwip220/api/api_msg.c ****           conn->current_msg->msg.w.vector_cnt--;
 1417              		.loc 1 1721 17 is_stmt 0 view .LVU428
 1418 0138 2B6A     		ldr	r3, [r5, #32]
1721:ThirdPackage/lwip220/api/api_msg.c ****           conn->current_msg->msg.w.vector_cnt--;
 1419              		.loc 1 1721 37 view .LVU429
 1420 013a 1969     		ldr	r1, [r3, #16]
1721:ThirdPackage/lwip220/api/api_msg.c ****           conn->current_msg->msg.w.vector_cnt--;
 1421              		.loc 1 1721 76 view .LVU430
 1422 013c 9A68     		ldr	r2, [r3, #8]
1721:ThirdPackage/lwip220/api/api_msg.c ****           conn->current_msg->msg.w.vector_cnt--;
 1423              		.loc 1 1721 83 view .LVU431
 1424 013e 5268     		ldr	r2, [r2, #4]
1721:ThirdPackage/lwip220/api/api_msg.c ****           conn->current_msg->msg.w.vector_cnt--;
 1425              		.loc 1 1721 12 view .LVU432
 1426 0140 9142     		cmp	r1, r2
 1427 0142 2DD0     		beq	.L147
 1428              	.L113:
1730:ThirdPackage/lwip220/api/api_msg.c ****     /* if OK or memory error, check available space */
 1429              		.loc 1 1730 13 is_stmt 1 view .LVU433
1730:ThirdPackage/lwip220/api/api_msg.c ****     /* if OK or memory error, check available space */
 1430              		.loc 1 1730 5 is_stmt 0 view .LVU434
 1431 0144 002E     		cmp	r6, #0
 1432 0146 39D0     		beq	.L114
1730:ThirdPackage/lwip220/api/api_msg.c ****     /* if OK or memory error, check available space */
 1433              		.loc 1 1730 25 discriminator 1 view .LVU435
 1434 0148 002C     		cmp	r4, #0
 1435 014a 37D1     		bne	.L114
 1436              	.LVL140:
 1437              	.L115:
1680:ThirdPackage/lwip220/api/api_msg.c ****       dataptr = (const u8_t *)conn->current_msg->msg.w.vector->ptr + conn->current_msg->msg.w.vecto
 1438              		.loc 1 1680 5 is_stmt 1 view .LVU436
1681:ThirdPackage/lwip220/api/api_msg.c ****       diff = conn->current_msg->msg.w.vector->len - conn->current_msg->msg.w.vector_off;
 1439              		.loc 1 1681 7 view .LVU437
1681:ThirdPackage/lwip220/api/api_msg.c ****       diff = conn->current_msg->msg.w.vector->len - conn->current_msg->msg.w.vector_off;
 1440              		.loc 1 1681 35 is_stmt 0 view .LVU438
 1441 014c 2A6A     		ldr	r2, [r5, #32]
1681:ThirdPackage/lwip220/api/api_msg.c ****       diff = conn->current_msg->msg.w.vector->len - conn->current_msg->msg.w.vector_off;
 1442              		.loc 1 1681 55 view .LVU439
 1443 014e 9168     		ldr	r1, [r2, #8]
1681:ThirdPackage/lwip220/api/api_msg.c ****       diff = conn->current_msg->msg.w.vector->len - conn->current_msg->msg.w.vector_off;
 1444              		.loc 1 1681 62 view .LVU440
 1445 0150 0F68     		ldr	r7, [r1]
1681:ThirdPackage/lwip220/api/api_msg.c ****       diff = conn->current_msg->msg.w.vector->len - conn->current_msg->msg.w.vector_off;
 1446              		.loc 1 1681 94 view .LVU441
 1447 0152 1369     		ldr	r3, [r2, #16]
1681:ThirdPackage/lwip220/api/api_msg.c ****       diff = conn->current_msg->msg.w.vector->len - conn->current_msg->msg.w.vector_off;
 1448              		.loc 1 1681 15 view .LVU442
 1449 0154 1F44     		add	r7, r7, r3
 1450              	.LVL141:
1682:ThirdPackage/lwip220/api/api_msg.c ****       if (diff > 0xffffUL) { /* max_u16_t */
 1451              		.loc 1 1682 7 is_stmt 1 view .LVU443
1682:ThirdPackage/lwip220/api/api_msg.c ****       if (diff > 0xffffUL) { /* max_u16_t */
 1452              		.loc 1 1682 45 is_stmt 0 view .LVU444
 1453 0156 4968     		ldr	r1, [r1, #4]
1682:ThirdPackage/lwip220/api/api_msg.c ****       if (diff > 0xffffUL) { /* max_u16_t */
ARM GAS  C:\Users\86188\AppData\Local\Temp\cccggEfL.s 			page 62


 1454              		.loc 1 1682 12 view .LVU445
 1455 0158 CE1A     		subs	r6, r1, r3
 1456              	.LVL142:
1683:ThirdPackage/lwip220/api/api_msg.c ****         len = 0xffff;
 1457              		.loc 1 1683 7 is_stmt 1 view .LVU446
1683:ThirdPackage/lwip220/api/api_msg.c ****         len = 0xffff;
 1458              		.loc 1 1683 10 is_stmt 0 view .LVU447
 1459 015a B6F5803F 		cmp	r6, #65536
 1460 015e A9D3     		bcc	.L103
1684:ThirdPackage/lwip220/api/api_msg.c ****         apiflags |= TCP_WRITE_FLAG_MORE;
 1461              		.loc 1 1684 9 is_stmt 1 view .LVU448
 1462              	.LVL143:
1685:ThirdPackage/lwip220/api/api_msg.c ****       } else {
 1463              		.loc 1 1685 9 view .LVU449
1685:ThirdPackage/lwip220/api/api_msg.c ****       } else {
 1464              		.loc 1 1685 18 is_stmt 0 view .LVU450
 1465 0160 48F00208 		orr	r8, r8, #2
 1466              	.LVL144:
1684:ThirdPackage/lwip220/api/api_msg.c ****         apiflags |= TCP_WRITE_FLAG_MORE;
 1467              		.loc 1 1684 13 view .LVU451
 1468 0164 4FF6FF74 		movw	r4, #65535
 1469              	.LVL145:
 1470              	.L104:
1689:ThirdPackage/lwip220/api/api_msg.c ****       if (available < len) {
 1471              		.loc 1 1689 7 is_stmt 1 view .LVU452
1689:ThirdPackage/lwip220/api/api_msg.c ****       if (available < len) {
 1472              		.loc 1 1689 19 is_stmt 0 view .LVU453
 1473 0168 6868     		ldr	r0, [r5, #4]
1689:ThirdPackage/lwip220/api/api_msg.c ****       if (available < len) {
 1474              		.loc 1 1689 17 view .LVU454
 1475 016a B0F86400 		ldrh	r0, [r0, #100]
 1476              	.LVL146:
1690:ThirdPackage/lwip220/api/api_msg.c ****         /* don't try to write more than sendbuf */
 1477              		.loc 1 1690 7 is_stmt 1 view .LVU455
1690:ThirdPackage/lwip220/api/api_msg.c ****         /* don't try to write more than sendbuf */
 1478              		.loc 1 1690 10 is_stmt 0 view .LVU456
 1479 016e 8442     		cmp	r4, r0
 1480 0170 C0D9     		bls	.L105
1692:ThirdPackage/lwip220/api/api_msg.c ****         if (dontblock) {
 1481              		.loc 1 1692 9 is_stmt 1 view .LVU457
 1482              	.LVL147:
1693:ThirdPackage/lwip220/api/api_msg.c ****           if (!len) {
 1483              		.loc 1 1693 9 view .LVU458
1693:ThirdPackage/lwip220/api/api_msg.c ****           if (!len) {
 1484              		.loc 1 1693 12 is_stmt 0 view .LVU459
 1485 0172 BAF1000F 		cmp	r10, #0
 1486 0176 BAD0     		beq	.L106
1694:ThirdPackage/lwip220/api/api_msg.c ****             /* set error according to partial write or not */
 1487              		.loc 1 1694 11 is_stmt 1 view .LVU460
1694:ThirdPackage/lwip220/api/api_msg.c ****             /* set error according to partial write or not */
 1488              		.loc 1 1694 14 is_stmt 0 view .LVU461
 1489 0178 0028     		cmp	r0, #0
 1490 017a 9DD0     		beq	.L148
1692:ThirdPackage/lwip220/api/api_msg.c ****         if (dontblock) {
 1491              		.loc 1 1692 13 view .LVU462
 1492 017c 0446     		mov	r4, r0
 1493 017e B9E7     		b	.L105
ARM GAS  C:\Users\86188\AppData\Local\Temp\cccggEfL.s 			page 63


 1494              	.LVL148:
 1495              	.L145:
1703:ThirdPackage/lwip220/api/api_msg.c ****                   ((conn->current_msg->msg.w.vector_off + len) <= conn->current_msg->msg.w.vector->
 1496              		.loc 1 1703 7 is_stmt 1 discriminator 1 view .LVU463
1703:ThirdPackage/lwip220/api/api_msg.c ****                   ((conn->current_msg->msg.w.vector_off + len) <= conn->current_msg->msg.w.vector->
 1497              		.loc 1 1703 7 discriminator 1 view .LVU464
 1498 0180 3B4B     		ldr	r3, .L152
 1499 0182 40F2A762 		movw	r2, #1703
 1500 0186 4249     		ldr	r1, .L152+32
 1501 0188 3B48     		ldr	r0, .L152+8
 1502              	.LVL149:
1703:ThirdPackage/lwip220/api/api_msg.c ****                   ((conn->current_msg->msg.w.vector_off + len) <= conn->current_msg->msg.w.vector->
 1503              		.loc 1 1703 7 is_stmt 0 discriminator 1 view .LVU465
 1504 018a FFF7FEFF 		bl	printf
 1505              	.LVL150:
1703:ThirdPackage/lwip220/api/api_msg.c ****                   ((conn->current_msg->msg.w.vector_off + len) <= conn->current_msg->msg.w.vector->
 1506              		.loc 1 1703 7 discriminator 1 view .LVU466
 1507 018e B5E7     		b	.L109
 1508              	.L146:
1709:ThirdPackage/lwip220/api/api_msg.c ****           (len == (u16_t)diff && conn->current_msg->msg.w.vector_cnt > 1)) {
 1509              		.loc 1 1709 26 discriminator 1 view .LVU467
 1510 0190 B6F5803F 		cmp	r6, #65536
 1511 0194 BDD2     		bcs	.L111
 1512 0196 B5E7     		b	.L110
 1513              	.LVL151:
 1514              	.L130:
1714:ThirdPackage/lwip220/api/api_msg.c ****       }
 1515              		.loc 1 1714 20 view .LVU468
 1516 0198 0026     		movs	r6, #0
 1517 019a BDE7     		b	.L112
 1518              	.L131:
1714:ThirdPackage/lwip220/api/api_msg.c ****       }
 1519              		.loc 1 1714 20 view .LVU469
 1520 019c 0026     		movs	r6, #0
 1521 019e BBE7     		b	.L112
 1522              	.LVL152:
 1523              	.L147:
1722:ThirdPackage/lwip220/api/api_msg.c ****           /* if we have additional vectors, move on to them */
 1524              		.loc 1 1722 11 is_stmt 1 view .LVU470
1722:ThirdPackage/lwip220/api/api_msg.c ****           /* if we have additional vectors, move on to them */
 1525              		.loc 1 1722 35 is_stmt 0 view .LVU471
 1526 01a0 9A89     		ldrh	r2, [r3, #12]
1722:ThirdPackage/lwip220/api/api_msg.c ****           /* if we have additional vectors, move on to them */
 1527              		.loc 1 1722 46 view .LVU472
 1528 01a2 013A     		subs	r2, r2, #1
 1529 01a4 9A81     		strh	r2, [r3, #12]	@ movhi
1724:ThirdPackage/lwip220/api/api_msg.c ****             conn->current_msg->msg.w.vector++;
 1530              		.loc 1 1724 11 is_stmt 1 view .LVU473
1724:ThirdPackage/lwip220/api/api_msg.c ****             conn->current_msg->msg.w.vector++;
 1531              		.loc 1 1724 19 is_stmt 0 view .LVU474
 1532 01a6 2B6A     		ldr	r3, [r5, #32]
1724:ThirdPackage/lwip220/api/api_msg.c ****             conn->current_msg->msg.w.vector++;
 1533              		.loc 1 1724 39 view .LVU475
 1534 01a8 9A89     		ldrh	r2, [r3, #12]
1724:ThirdPackage/lwip220/api/api_msg.c ****             conn->current_msg->msg.w.vector++;
 1535              		.loc 1 1724 14 view .LVU476
 1536 01aa 002A     		cmp	r2, #0
ARM GAS  C:\Users\86188\AppData\Local\Temp\cccggEfL.s 			page 64


 1537 01ac CAD0     		beq	.L113
1725:ThirdPackage/lwip220/api/api_msg.c ****             conn->current_msg->msg.w.vector_off = 0;
 1538              		.loc 1 1725 13 is_stmt 1 view .LVU477
1725:ThirdPackage/lwip220/api/api_msg.c ****             conn->current_msg->msg.w.vector_off = 0;
 1539              		.loc 1 1725 37 is_stmt 0 view .LVU478
 1540 01ae 9A68     		ldr	r2, [r3, #8]
1725:ThirdPackage/lwip220/api/api_msg.c ****             conn->current_msg->msg.w.vector_off = 0;
 1541              		.loc 1 1725 44 view .LVU479
 1542 01b0 0832     		adds	r2, r2, #8
 1543 01b2 9A60     		str	r2, [r3, #8]
1726:ThirdPackage/lwip220/api/api_msg.c ****           }
 1544              		.loc 1 1726 13 is_stmt 1 view .LVU480
1726:ThirdPackage/lwip220/api/api_msg.c ****           }
 1545              		.loc 1 1726 17 is_stmt 0 view .LVU481
 1546 01b4 2B6A     		ldr	r3, [r5, #32]
1726:ThirdPackage/lwip220/api/api_msg.c ****           }
 1547              		.loc 1 1726 49 view .LVU482
 1548 01b6 0022     		movs	r2, #0
 1549 01b8 1A61     		str	r2, [r3, #16]
 1550 01ba C3E7     		b	.L113
 1551              	.L114:
1732:ThirdPackage/lwip220/api/api_msg.c **** err_mem:
 1552              		.loc 1 1732 5 is_stmt 1 view .LVU483
1732:ThirdPackage/lwip220/api/api_msg.c **** err_mem:
 1553              		.loc 1 1732 25 is_stmt 0 view .LVU484
 1554 01bc 631C     		adds	r3, r4, #1
 1555 01be DBB2     		uxtb	r3, r3
1732:ThirdPackage/lwip220/api/api_msg.c **** err_mem:
 1556              		.loc 1 1732 8 view .LVU485
 1557 01c0 012B     		cmp	r3, #1
 1558 01c2 7FF67DAF 		bls	.L108
 1559              	.LVL153:
 1560              	.L116:
1739:ThirdPackage/lwip220/api/api_msg.c ****       } else if ((tcp_sndbuf(conn->pcb.tcp) <= TCP_SNDLOWAT) ||
1740:ThirdPackage/lwip220/api/api_msg.c ****                  (tcp_sndqueuelen(conn->pcb.tcp) >= TCP_SNDQUEUELOWAT)) {
1741:ThirdPackage/lwip220/api/api_msg.c ****         /* The queued byte- or pbuf-count exceeds the configured low-water limit,
1742:ThirdPackage/lwip220/api/api_msg.c ****            let select mark this pcb as non-writable. */
1743:ThirdPackage/lwip220/api/api_msg.c ****         API_EVENT(conn, NETCONN_EVT_SENDMINUS, 0);
 1561              		.loc 1 1743 50 is_stmt 1 discriminator 3 view .LVU486
1744:ThirdPackage/lwip220/api/api_msg.c ****       }
1745:ThirdPackage/lwip220/api/api_msg.c ****     }
1746:ThirdPackage/lwip220/api/api_msg.c **** 
1747:ThirdPackage/lwip220/api/api_msg.c ****     if (err == ERR_OK) {
 1562              		.loc 1 1747 5 discriminator 3 view .LVU487
 1563              		.loc 1 1747 8 is_stmt 0 discriminator 3 view .LVU488
 1564 01c6 54BB     		cbnz	r4, .L120
 1565              	.LBB6:
1748:ThirdPackage/lwip220/api/api_msg.c ****       err_t out_err;
 1566              		.loc 1 1748 7 is_stmt 1 view .LVU489
1749:ThirdPackage/lwip220/api/api_msg.c ****       if ((conn->current_msg->msg.w.offset == conn->current_msg->msg.w.len) || dontblock) {
 1567              		.loc 1 1749 7 view .LVU490
 1568              		.loc 1 1749 16 is_stmt 0 view .LVU491
 1569 01c8 2B6A     		ldr	r3, [r5, #32]
 1570              		.loc 1 1749 36 view .LVU492
 1571 01ca 9A69     		ldr	r2, [r3, #24]
 1572              		.loc 1 1749 71 view .LVU493
 1573 01cc 5B69     		ldr	r3, [r3, #20]
ARM GAS  C:\Users\86188\AppData\Local\Temp\cccggEfL.s 			page 65


 1574              		.loc 1 1749 10 view .LVU494
 1575 01ce 9A42     		cmp	r2, r3
 1576 01d0 17D0     		beq	.L132
 1577              		.loc 1 1749 77 discriminator 1 view .LVU495
 1578 01d2 BAF1000F 		cmp	r10, #0
 1579 01d6 16D0     		beq	.L121
1750:ThirdPackage/lwip220/api/api_msg.c ****         /* return sent length (caller reads length from msg.w.offset) */
1751:ThirdPackage/lwip220/api/api_msg.c ****         write_finished = 1;
 1580              		.loc 1 1751 24 view .LVU496
 1581 01d8 4FF0010A 		mov	r10, #1
 1582              	.LVL154:
 1583              		.loc 1 1751 24 view .LVU497
 1584 01dc 13E0     		b	.L121
 1585              	.LVL155:
 1586              	.L117:
 1587              		.loc 1 1751 24 view .LVU498
 1588              	.LBE6:
1739:ThirdPackage/lwip220/api/api_msg.c ****                  (tcp_sndqueuelen(conn->pcb.tcp) >= TCP_SNDQUEUELOWAT)) {
 1589              		.loc 1 1739 14 is_stmt 1 view .LVU499
1739:ThirdPackage/lwip220/api/api_msg.c ****                  (tcp_sndqueuelen(conn->pcb.tcp) >= TCP_SNDQUEUELOWAT)) {
 1590              		.loc 1 1739 19 is_stmt 0 view .LVU500
 1591 01de 6B68     		ldr	r3, [r5, #4]
 1592 01e0 B3F86420 		ldrh	r2, [r3, #100]
1739:ThirdPackage/lwip220/api/api_msg.c ****                  (tcp_sndqueuelen(conn->pcb.tcp) >= TCP_SNDQUEUELOWAT)) {
 1593              		.loc 1 1739 17 view .LVU501
 1594 01e4 B2F5866F 		cmp	r2, #1072
 1595 01e8 03D3     		bcc	.L119
1740:ThirdPackage/lwip220/api/api_msg.c ****         /* The queued byte- or pbuf-count exceeds the configured low-water limit,
 1596              		.loc 1 1740 19 discriminator 1 view .LVU502
 1597 01ea B3F86630 		ldrh	r3, [r3, #102]
1739:ThirdPackage/lwip220/api/api_msg.c ****                  (tcp_sndqueuelen(conn->pcb.tcp) >= TCP_SNDQUEUELOWAT)) {
 1598              		.loc 1 1739 62 discriminator 1 view .LVU503
 1599 01ee 042B     		cmp	r3, #4
 1600 01f0 E9D9     		bls	.L116
 1601              	.L119:
1743:ThirdPackage/lwip220/api/api_msg.c ****       }
 1602              		.loc 1 1743 9 is_stmt 1 view .LVU504
 1603 01f2 6B6A     		ldr	r3, [r5, #36]
 1604 01f4 002B     		cmp	r3, #0
 1605 01f6 E6D0     		beq	.L116
1743:ThirdPackage/lwip220/api/api_msg.c ****       }
 1606              		.loc 1 1743 9 discriminator 1 view .LVU505
 1607 01f8 0022     		movs	r2, #0
 1608 01fa 0321     		movs	r1, #3
 1609 01fc 2846     		mov	r0, r5
 1610 01fe 9847     		blx	r3
 1611              	.LVL156:
 1612 0200 E1E7     		b	.L116
 1613              	.L132:
 1614              	.LBB7:
 1615              		.loc 1 1751 24 is_stmt 0 view .LVU506
 1616 0202 4FF0010A 		mov	r10, #1
 1617              	.LVL157:
 1618              	.L121:
1752:ThirdPackage/lwip220/api/api_msg.c ****       }
1753:ThirdPackage/lwip220/api/api_msg.c ****       out_err = tcp_output(conn->pcb.tcp);
 1619              		.loc 1 1753 7 is_stmt 1 view .LVU507
ARM GAS  C:\Users\86188\AppData\Local\Temp\cccggEfL.s 			page 66


 1620              		.loc 1 1753 17 is_stmt 0 view .LVU508
 1621 0206 6868     		ldr	r0, [r5, #4]
 1622 0208 FFF7FEFF 		bl	tcp_output
 1623              	.LVL158:
1754:ThirdPackage/lwip220/api/api_msg.c ****       if (out_err == ERR_RTE) {
 1624              		.loc 1 1754 7 is_stmt 1 view .LVU509
 1625              		.loc 1 1754 10 is_stmt 0 view .LVU510
 1626 020c 10F1040F 		cmn	r0, #4
 1627 0210 25D0     		beq	.L149
 1628              		.loc 1 1754 10 view .LVU511
 1629              	.LBE7:
1755:ThirdPackage/lwip220/api/api_msg.c ****         /* If tcp_output fails because no route is found,
1756:ThirdPackage/lwip220/api/api_msg.c ****            don't try writing any more but return the error
1757:ThirdPackage/lwip220/api/api_msg.c ****            to the application thread. */
1758:ThirdPackage/lwip220/api/api_msg.c ****         err = out_err;
1759:ThirdPackage/lwip220/api/api_msg.c ****         write_finished = 1;
1760:ThirdPackage/lwip220/api/api_msg.c ****       }
1761:ThirdPackage/lwip220/api/api_msg.c ****     } else if (err == ERR_MEM) {
1762:ThirdPackage/lwip220/api/api_msg.c ****       /* If ERR_MEM, we wait for sent_tcp or poll_tcp to be called.
1763:ThirdPackage/lwip220/api/api_msg.c ****          For blocking sockets, we do NOT return to the application
1764:ThirdPackage/lwip220/api/api_msg.c ****          thread, since ERR_MEM is only a temporary error! Non-blocking
1765:ThirdPackage/lwip220/api/api_msg.c ****          will remain non-writable until sent_tcp/poll_tcp is called */
1766:ThirdPackage/lwip220/api/api_msg.c **** 
1767:ThirdPackage/lwip220/api/api_msg.c ****       /* tcp_write returned ERR_MEM, try tcp_output anyway */
1768:ThirdPackage/lwip220/api/api_msg.c ****       err_t out_err = tcp_output(conn->pcb.tcp);
1769:ThirdPackage/lwip220/api/api_msg.c ****       if (out_err == ERR_RTE) {
1770:ThirdPackage/lwip220/api/api_msg.c ****         /* If tcp_output fails because no route is found,
1771:ThirdPackage/lwip220/api/api_msg.c ****            don't try writing any more but return the error
1772:ThirdPackage/lwip220/api/api_msg.c ****            to the application thread. */
1773:ThirdPackage/lwip220/api/api_msg.c ****         err = out_err;
1774:ThirdPackage/lwip220/api/api_msg.c ****         write_finished = 1;
1775:ThirdPackage/lwip220/api/api_msg.c ****       } else if (dontblock) {
1776:ThirdPackage/lwip220/api/api_msg.c ****         /* non-blocking write is done on ERR_MEM, set error according
1777:ThirdPackage/lwip220/api/api_msg.c ****            to partial write or not */
1778:ThirdPackage/lwip220/api/api_msg.c ****         err = (conn->current_msg->msg.w.offset == 0) ? ERR_WOULDBLOCK : ERR_OK;
1779:ThirdPackage/lwip220/api/api_msg.c ****         write_finished = 1;
1780:ThirdPackage/lwip220/api/api_msg.c ****       }
1781:ThirdPackage/lwip220/api/api_msg.c ****     } else {
1782:ThirdPackage/lwip220/api/api_msg.c ****       /* On errors != ERR_MEM, we don't try writing any more but return
1783:ThirdPackage/lwip220/api/api_msg.c ****          the error to the application thread. */
1784:ThirdPackage/lwip220/api/api_msg.c ****       write_finished = 1;
1785:ThirdPackage/lwip220/api/api_msg.c ****     }
1786:ThirdPackage/lwip220/api/api_msg.c ****   }
1787:ThirdPackage/lwip220/api/api_msg.c ****   if (write_finished) {
 1630              		.loc 1 1787 3 is_stmt 1 view .LVU512
 1631              		.loc 1 1787 6 is_stmt 0 view .LVU513
 1632 0212 BAF1000F 		cmp	r10, #0
 1633 0216 05D1     		bne	.L122
 1634              	.LVL159:
 1635              	.L124:
1788:ThirdPackage/lwip220/api/api_msg.c ****     /* everything was written: set back connection state
1789:ThirdPackage/lwip220/api/api_msg.c ****        and back to application task */
1790:ThirdPackage/lwip220/api/api_msg.c ****     sys_sem_t *op_completed_sem = LWIP_API_MSG_SEM(conn->current_msg);
1791:ThirdPackage/lwip220/api/api_msg.c ****     conn->current_msg->err = err;
1792:ThirdPackage/lwip220/api/api_msg.c ****     conn->current_msg = NULL;
1793:ThirdPackage/lwip220/api/api_msg.c ****     conn->state = NETCONN_NONE;
1794:ThirdPackage/lwip220/api/api_msg.c **** #if LWIP_TCPIP_CORE_LOCKING
ARM GAS  C:\Users\86188\AppData\Local\Temp\cccggEfL.s 			page 67


1795:ThirdPackage/lwip220/api/api_msg.c ****     if (delayed)
1796:ThirdPackage/lwip220/api/api_msg.c **** #endif
1797:ThirdPackage/lwip220/api/api_msg.c ****     {
1798:ThirdPackage/lwip220/api/api_msg.c ****       sys_sem_signal(op_completed_sem);
1799:ThirdPackage/lwip220/api/api_msg.c ****     }
1800:ThirdPackage/lwip220/api/api_msg.c ****   }
1801:ThirdPackage/lwip220/api/api_msg.c **** #if LWIP_TCPIP_CORE_LOCKING
1802:ThirdPackage/lwip220/api/api_msg.c ****   else {
1803:ThirdPackage/lwip220/api/api_msg.c ****     return ERR_MEM;
 1636              		.loc 1 1803 5 is_stmt 1 view .LVU514
 1637              		.loc 1 1803 12 is_stmt 0 view .LVU515
 1638 0218 4FF0FF30 		mov	r0, #-1
 1639 021c 0DE0     		b	.L125
 1640              	.LVL160:
 1641              	.L120:
1761:ThirdPackage/lwip220/api/api_msg.c ****       /* If ERR_MEM, we wait for sent_tcp or poll_tcp to be called.
 1642              		.loc 1 1761 12 is_stmt 1 view .LVU516
1761:ThirdPackage/lwip220/api/api_msg.c ****       /* If ERR_MEM, we wait for sent_tcp or poll_tcp to be called.
 1643              		.loc 1 1761 15 is_stmt 0 view .LVU517
 1644 021e B4F1FF3F 		cmp	r4, #-1
 1645 0222 0CD0     		beq	.L150
 1646              	.LVL161:
 1647              	.L122:
 1648              	.LBB8:
1790:ThirdPackage/lwip220/api/api_msg.c ****     conn->current_msg->err = err;
 1649              		.loc 1 1790 5 is_stmt 1 view .LVU518
1790:ThirdPackage/lwip220/api/api_msg.c ****     conn->current_msg->err = err;
 1650              		.loc 1 1790 35 is_stmt 0 view .LVU519
 1651 0224 2B6A     		ldr	r3, [r5, #32]
 1652 0226 1868     		ldr	r0, [r3]
1790:ThirdPackage/lwip220/api/api_msg.c ****     conn->current_msg->err = err;
 1653              		.loc 1 1790 16 view .LVU520
 1654 0228 0C30     		adds	r0, r0, #12
 1655              	.LVL162:
1791:ThirdPackage/lwip220/api/api_msg.c ****     conn->current_msg = NULL;
 1656              		.loc 1 1791 5 is_stmt 1 view .LVU521
1791:ThirdPackage/lwip220/api/api_msg.c ****     conn->current_msg = NULL;
 1657              		.loc 1 1791 28 is_stmt 0 view .LVU522
 1658 022a 1C71     		strb	r4, [r3, #4]
1792:ThirdPackage/lwip220/api/api_msg.c ****     conn->state = NETCONN_NONE;
 1659              		.loc 1 1792 5 is_stmt 1 view .LVU523
1792:ThirdPackage/lwip220/api/api_msg.c ****     conn->state = NETCONN_NONE;
 1660              		.loc 1 1792 23 is_stmt 0 view .LVU524
 1661 022c 0023     		movs	r3, #0
 1662 022e 2B62     		str	r3, [r5, #32]
1793:ThirdPackage/lwip220/api/api_msg.c **** #if LWIP_TCPIP_CORE_LOCKING
 1663              		.loc 1 1793 5 is_stmt 1 view .LVU525
1793:ThirdPackage/lwip220/api/api_msg.c **** #if LWIP_TCPIP_CORE_LOCKING
 1664              		.loc 1 1793 17 is_stmt 0 view .LVU526
 1665 0230 6B70     		strb	r3, [r5, #1]
1795:ThirdPackage/lwip220/api/api_msg.c **** #endif
 1666              		.loc 1 1795 5 is_stmt 1 view .LVU527
1795:ThirdPackage/lwip220/api/api_msg.c **** #endif
 1667              		.loc 1 1795 8 is_stmt 0 view .LVU528
 1668 0232 BBF1000F 		cmp	fp, #0
 1669 0236 16D1     		bne	.L151
 1670              	.LBE8:
ARM GAS  C:\Users\86188\AppData\Local\Temp\cccggEfL.s 			page 68


1804:ThirdPackage/lwip220/api/api_msg.c ****   }
1805:ThirdPackage/lwip220/api/api_msg.c **** #endif
1806:ThirdPackage/lwip220/api/api_msg.c ****   return ERR_OK;
 1671              		.loc 1 1806 10 view .LVU529
 1672 0238 0020     		movs	r0, #0
 1673              	.LVL163:
 1674              	.L125:
1807:ThirdPackage/lwip220/api/api_msg.c **** }
 1675              		.loc 1 1807 1 view .LVU530
 1676 023a BDE8F88F 		pop	{r3, r4, r5, r6, r7, r8, r9, r10, fp, pc}
 1677              	.LVL164:
 1678              	.L150:
 1679              	.LBB9:
1768:ThirdPackage/lwip220/api/api_msg.c ****       if (out_err == ERR_RTE) {
 1680              		.loc 1 1768 7 is_stmt 1 view .LVU531
1768:ThirdPackage/lwip220/api/api_msg.c ****       if (out_err == ERR_RTE) {
 1681              		.loc 1 1768 23 is_stmt 0 view .LVU532
 1682 023e 6868     		ldr	r0, [r5, #4]
 1683 0240 FFF7FEFF 		bl	tcp_output
 1684              	.LVL165:
 1685 0244 0446     		mov	r4, r0
 1686              	.LVL166:
1769:ThirdPackage/lwip220/api/api_msg.c ****         /* If tcp_output fails because no route is found,
 1687              		.loc 1 1769 7 is_stmt 1 view .LVU533
1769:ThirdPackage/lwip220/api/api_msg.c ****         /* If tcp_output fails because no route is found,
 1688              		.loc 1 1769 10 is_stmt 0 view .LVU534
 1689 0246 10F1040F 		cmn	r0, #4
 1690 024a EBD0     		beq	.L122
1775:ThirdPackage/lwip220/api/api_msg.c ****         /* non-blocking write is done on ERR_MEM, set error according
 1691              		.loc 1 1775 14 is_stmt 1 view .LVU535
1775:ThirdPackage/lwip220/api/api_msg.c ****         /* non-blocking write is done on ERR_MEM, set error according
 1692              		.loc 1 1775 17 is_stmt 0 view .LVU536
 1693 024c BAF1000F 		cmp	r10, #0
 1694 0250 E2D0     		beq	.L124
1778:ThirdPackage/lwip220/api/api_msg.c ****         write_finished = 1;
 1695              		.loc 1 1778 9 is_stmt 1 view .LVU537
1778:ThirdPackage/lwip220/api/api_msg.c ****         write_finished = 1;
 1696              		.loc 1 1778 20 is_stmt 0 view .LVU538
 1697 0252 2B6A     		ldr	r3, [r5, #32]
1778:ThirdPackage/lwip220/api/api_msg.c ****         write_finished = 1;
 1698              		.loc 1 1778 40 view .LVU539
 1699 0254 9B69     		ldr	r3, [r3, #24]
1778:ThirdPackage/lwip220/api/api_msg.c ****         write_finished = 1;
 1700              		.loc 1 1778 13 view .LVU540
 1701 0256 23B9     		cbnz	r3, .L135
 1702 0258 6FF00604 		mvn	r4, #6
 1703 025c E2E7     		b	.L122
 1704              	.LVL167:
 1705              	.L149:
1778:ThirdPackage/lwip220/api/api_msg.c ****         write_finished = 1;
 1706              		.loc 1 1778 13 view .LVU541
 1707              	.LBE9:
 1708              	.LBB10:
1758:ThirdPackage/lwip220/api/api_msg.c ****         write_finished = 1;
 1709              		.loc 1 1758 13 view .LVU542
 1710 025e 0446     		mov	r4, r0
 1711              	.LVL168:
ARM GAS  C:\Users\86188\AppData\Local\Temp\cccggEfL.s 			page 69


1758:ThirdPackage/lwip220/api/api_msg.c ****         write_finished = 1;
 1712              		.loc 1 1758 13 view .LVU543
 1713 0260 E0E7     		b	.L122
 1714              	.LVL169:
 1715              	.L135:
1758:ThirdPackage/lwip220/api/api_msg.c ****         write_finished = 1;
 1716              		.loc 1 1758 13 view .LVU544
 1717              	.LBE10:
 1718              	.LBB11:
1778:ThirdPackage/lwip220/api/api_msg.c ****         write_finished = 1;
 1719              		.loc 1 1778 13 view .LVU545
 1720 0262 0024     		movs	r4, #0
 1721 0264 DEE7     		b	.L122
 1722              	.LVL170:
 1723              	.L151:
1778:ThirdPackage/lwip220/api/api_msg.c ****         write_finished = 1;
 1724              		.loc 1 1778 13 view .LVU546
 1725              	.LBE11:
 1726              	.LBB12:
1798:ThirdPackage/lwip220/api/api_msg.c ****     }
 1727              		.loc 1 1798 7 is_stmt 1 view .LVU547
 1728 0266 FFF7FEFF 		bl	sys_sem_signal
 1729              	.LVL171:
1798:ThirdPackage/lwip220/api/api_msg.c ****     }
 1730              		.loc 1 1798 7 is_stmt 0 view .LVU548
 1731              	.LBE12:
1806:ThirdPackage/lwip220/api/api_msg.c **** }
 1732              		.loc 1 1806 10 view .LVU549
 1733 026a 0020     		movs	r0, #0
 1734 026c E5E7     		b	.L125
 1735              	.L153:
 1736 026e 00BF     		.align	2
 1737              	.L152:
 1738 0270 00000000 		.word	.LC0
 1739 0274 00000000 		.word	.LC7
 1740 0278 34000000 		.word	.LC2
 1741 027c 00000000 		.word	.LC14
 1742 0280 10000000 		.word	.LC8
 1743 0284 20000000 		.word	.LC15
 1744 0288 38000000 		.word	.LC16
 1745 028c 78000000 		.word	.LC17
 1746 0290 A0000000 		.word	.LC18
 1747              		.cfi_endproc
 1748              	.LFE184:
 1750              		.section	.rodata.lwip_netconn_do_close_internal.str1.4,"aMS",%progbits,1
 1751              		.align	2
 1752              	.LC19:
 1753 0000 696E7661 		.ascii	"invalid conn\000"
 1753      6C696420 
 1753      636F6E6E 
 1753      00
 1754 000d 000000   		.align	2
 1755              	.LC20:
 1756 0010 74686973 		.ascii	"this is for tcp netconns only\000"
 1756      20697320 
 1756      666F7220 
 1756      74637020 
ARM GAS  C:\Users\86188\AppData\Local\Temp\cccggEfL.s 			page 70


 1756      6E657463 
 1757 002e 0000     		.align	2
 1758              	.LC21:
 1759 0030 636F6E6E 		.ascii	"conn must be in state NETCONN_CLOSE\000"
 1759      206D7573 
 1759      74206265 
 1759      20696E20 
 1759      73746174 
 1760              		.align	2
 1761              	.LC22:
 1762 0054 70636220 		.ascii	"pcb already closed\000"
 1762      616C7265 
 1762      61647920 
 1762      636C6F73 
 1762      656400
 1763 0067 00       		.align	2
 1764              	.LC23:
 1765 0068 436C6F73 		.ascii	"Closing a listen pcb may not fail!\000"
 1765      696E6720 
 1765      61206C69 
 1765      7374656E 
 1765      20706362 
 1766              		.section	.text.lwip_netconn_do_close_internal,"ax",%progbits
 1767              		.align	1
 1768              		.syntax unified
 1769              		.thumb
 1770              		.thumb_func
 1772              	lwip_netconn_do_close_internal:
 1773              	.LVL172:
 1774              	.LFB174:
 925:ThirdPackage/lwip220/api/api_msg.c ****   err_t err;
 1775              		.loc 1 925 1 is_stmt 1 view -0
 1776              		.cfi_startproc
 1777              		@ args = 0, pretend = 0, frame = 0
 1778              		@ frame_needed = 0, uses_anonymous_args = 0
 925:ThirdPackage/lwip220/api/api_msg.c ****   err_t err;
 1779              		.loc 1 925 1 is_stmt 0 view .LVU551
 1780 0000 2DE9F047 		push	{r4, r5, r6, r7, r8, r9, r10, lr}
 1781              	.LCFI9:
 1782              		.cfi_def_cfa_offset 32
 1783              		.cfi_offset 4, -32
 1784              		.cfi_offset 5, -28
 1785              		.cfi_offset 6, -24
 1786              		.cfi_offset 7, -20
 1787              		.cfi_offset 8, -16
 1788              		.cfi_offset 9, -12
 1789              		.cfi_offset 10, -8
 1790              		.cfi_offset 14, -4
 1791 0004 0F46     		mov	r7, r1
 926:ThirdPackage/lwip220/api/api_msg.c ****   u8_t shut, shut_rx, shut_tx, shut_close;
 1792              		.loc 1 926 3 is_stmt 1 view .LVU552
 927:ThirdPackage/lwip220/api/api_msg.c ****   u8_t close_finished = 0;
 1793              		.loc 1 927 3 view .LVU553
 928:ThirdPackage/lwip220/api/api_msg.c ****   struct tcp_pcb *tpcb;
 1794              		.loc 1 928 3 view .LVU554
 1795              	.LVL173:
 929:ThirdPackage/lwip220/api/api_msg.c **** #if LWIP_SO_LINGER
ARM GAS  C:\Users\86188\AppData\Local\Temp\cccggEfL.s 			page 71


 1796              		.loc 1 929 3 view .LVU555
 934:ThirdPackage/lwip220/api/api_msg.c ****   LWIP_ASSERT("this is for tcp netconns only", (NETCONNTYPE_GROUP(conn->type) == NETCONN_TCP));
 1797              		.loc 1 934 3 view .LVU556
 934:ThirdPackage/lwip220/api/api_msg.c ****   LWIP_ASSERT("this is for tcp netconns only", (NETCONNTYPE_GROUP(conn->type) == NETCONN_TCP));
 1798              		.loc 1 934 3 view .LVU557
 1799 0006 0446     		mov	r4, r0
 1800 0008 0028     		cmp	r0, #0
 1801 000a 5FD0     		beq	.L182
 1802              	.LVL174:
 1803              	.L155:
 934:ThirdPackage/lwip220/api/api_msg.c ****   LWIP_ASSERT("this is for tcp netconns only", (NETCONNTYPE_GROUP(conn->type) == NETCONN_TCP));
 1804              		.loc 1 934 3 discriminator 3 view .LVU558
 934:ThirdPackage/lwip220/api/api_msg.c ****   LWIP_ASSERT("this is for tcp netconns only", (NETCONNTYPE_GROUP(conn->type) == NETCONN_TCP));
 1805              		.loc 1 934 3 discriminator 3 view .LVU559
 935:ThirdPackage/lwip220/api/api_msg.c ****   LWIP_ASSERT("conn must be in state NETCONN_CLOSE", (conn->state == NETCONN_CLOSE));
 1806              		.loc 1 935 3 discriminator 3 view .LVU560
 935:ThirdPackage/lwip220/api/api_msg.c ****   LWIP_ASSERT("conn must be in state NETCONN_CLOSE", (conn->state == NETCONN_CLOSE));
 1807              		.loc 1 935 3 discriminator 3 view .LVU561
 1808 000c 2378     		ldrb	r3, [r4]	@ zero_extendqisi2
 1809 000e 03F0F003 		and	r3, r3, #240
 1810 0012 102B     		cmp	r3, #16
 1811 0014 62D1     		bne	.L183
 1812              	.L156:
 935:ThirdPackage/lwip220/api/api_msg.c ****   LWIP_ASSERT("conn must be in state NETCONN_CLOSE", (conn->state == NETCONN_CLOSE));
 1813              		.loc 1 935 3 discriminator 3 view .LVU562
 935:ThirdPackage/lwip220/api/api_msg.c ****   LWIP_ASSERT("conn must be in state NETCONN_CLOSE", (conn->state == NETCONN_CLOSE));
 1814              		.loc 1 935 3 discriminator 3 view .LVU563
 936:ThirdPackage/lwip220/api/api_msg.c ****   LWIP_ASSERT("pcb already closed", (conn->pcb.tcp != NULL));
 1815              		.loc 1 936 3 discriminator 3 view .LVU564
 936:ThirdPackage/lwip220/api/api_msg.c ****   LWIP_ASSERT("pcb already closed", (conn->pcb.tcp != NULL));
 1816              		.loc 1 936 3 discriminator 3 view .LVU565
 1817 0016 6378     		ldrb	r3, [r4, #1]	@ zero_extendqisi2
 1818 0018 042B     		cmp	r3, #4
 1819 001a 67D1     		bne	.L184
 1820              	.L157:
 936:ThirdPackage/lwip220/api/api_msg.c ****   LWIP_ASSERT("pcb already closed", (conn->pcb.tcp != NULL));
 1821              		.loc 1 936 3 discriminator 3 view .LVU566
 936:ThirdPackage/lwip220/api/api_msg.c ****   LWIP_ASSERT("pcb already closed", (conn->pcb.tcp != NULL));
 1822              		.loc 1 936 3 discriminator 3 view .LVU567
 937:ThirdPackage/lwip220/api/api_msg.c ****   LWIP_ASSERT("conn->current_msg != NULL", conn->current_msg != NULL);
 1823              		.loc 1 937 3 discriminator 3 view .LVU568
 937:ThirdPackage/lwip220/api/api_msg.c ****   LWIP_ASSERT("conn->current_msg != NULL", conn->current_msg != NULL);
 1824              		.loc 1 937 3 discriminator 3 view .LVU569
 1825 001c 6368     		ldr	r3, [r4, #4]
 1826 001e 002B     		cmp	r3, #0
 1827 0020 6CD0     		beq	.L185
 1828              	.L158:
 937:ThirdPackage/lwip220/api/api_msg.c ****   LWIP_ASSERT("conn->current_msg != NULL", conn->current_msg != NULL);
 1829              		.loc 1 937 3 discriminator 3 view .LVU570
 937:ThirdPackage/lwip220/api/api_msg.c ****   LWIP_ASSERT("conn->current_msg != NULL", conn->current_msg != NULL);
 1830              		.loc 1 937 3 discriminator 3 view .LVU571
 938:ThirdPackage/lwip220/api/api_msg.c **** 
 1831              		.loc 1 938 3 discriminator 3 view .LVU572
 938:ThirdPackage/lwip220/api/api_msg.c **** 
 1832              		.loc 1 938 3 discriminator 3 view .LVU573
 1833 0022 236A     		ldr	r3, [r4, #32]
 1834 0024 002B     		cmp	r3, #0
ARM GAS  C:\Users\86188\AppData\Local\Temp\cccggEfL.s 			page 72


 1835 0026 71D0     		beq	.L186
 1836              	.L159:
 938:ThirdPackage/lwip220/api/api_msg.c **** 
 1837              		.loc 1 938 3 discriminator 3 view .LVU574
 938:ThirdPackage/lwip220/api/api_msg.c **** 
 1838              		.loc 1 938 3 discriminator 3 view .LVU575
 940:ThirdPackage/lwip220/api/api_msg.c ****   shut = conn->current_msg->msg.sd.shut;
 1839              		.loc 1 940 3 discriminator 3 view .LVU576
 940:ThirdPackage/lwip220/api/api_msg.c ****   shut = conn->current_msg->msg.sd.shut;
 1840              		.loc 1 940 8 is_stmt 0 discriminator 3 view .LVU577
 1841 0028 6668     		ldr	r6, [r4, #4]
 1842              	.LVL175:
 941:ThirdPackage/lwip220/api/api_msg.c ****   shut_rx = shut & NETCONN_SHUT_RD;
 1843              		.loc 1 941 3 is_stmt 1 discriminator 3 view .LVU578
 941:ThirdPackage/lwip220/api/api_msg.c ****   shut_rx = shut & NETCONN_SHUT_RD;
 1844              		.loc 1 941 14 is_stmt 0 discriminator 3 view .LVU579
 1845 002a 236A     		ldr	r3, [r4, #32]
 941:ThirdPackage/lwip220/api/api_msg.c ****   shut_rx = shut & NETCONN_SHUT_RD;
 1846              		.loc 1 941 8 discriminator 3 view .LVU580
 1847 002c 1B7A     		ldrb	r3, [r3, #8]	@ zero_extendqisi2
 1848              	.LVL176:
 942:ThirdPackage/lwip220/api/api_msg.c ****   shut_tx = shut & NETCONN_SHUT_WR;
 1849              		.loc 1 942 3 is_stmt 1 discriminator 3 view .LVU581
 942:ThirdPackage/lwip220/api/api_msg.c ****   shut_tx = shut & NETCONN_SHUT_WR;
 1850              		.loc 1 942 11 is_stmt 0 discriminator 3 view .LVU582
 1851 002e 03F00109 		and	r9, r3, #1
 1852              	.LVL177:
 943:ThirdPackage/lwip220/api/api_msg.c ****   /* shutting down both ends is the same as closing
 1853              		.loc 1 943 3 is_stmt 1 discriminator 3 view .LVU583
 943:ThirdPackage/lwip220/api/api_msg.c ****   /* shutting down both ends is the same as closing
 1854              		.loc 1 943 11 is_stmt 0 discriminator 3 view .LVU584
 1855 0032 03F00208 		and	r8, r3, #2
 1856              	.LVL178:
 946:ThirdPackage/lwip220/api/api_msg.c ****     shut_close = 1;
 1857              		.loc 1 946 3 is_stmt 1 discriminator 3 view .LVU585
 946:ThirdPackage/lwip220/api/api_msg.c ****     shut_close = 1;
 1858              		.loc 1 946 6 is_stmt 0 discriminator 3 view .LVU586
 1859 0036 032B     		cmp	r3, #3
 1860 0038 10D0     		beq	.L160
 948:ThirdPackage/lwip220/api/api_msg.c ****              ((tpcb->state == FIN_WAIT_1) ||
