ARM GAS  C:\Users\86188\AppData\Local\Temp\ccZBSQgi.s 			page 1


   1              		.cpu cortex-m4
   2              		.arch armv7e-m
   3              		.fpu fpv4-sp-d16
   4              		.eabi_attribute 27, 1
   5              		.eabi_attribute 28, 1
   6              		.eabi_attribute 20, 1
   7              		.eabi_attribute 21, 1
   8              		.eabi_attribute 23, 3
   9              		.eabi_attribute 24, 1
  10              		.eabi_attribute 25, 1
  11              		.eabi_attribute 26, 1
  12              		.eabi_attribute 30, 1
  13              		.eabi_attribute 34, 1
  14              		.eabi_attribute 18, 4
  15              		.file	"ethernetif.c"
  16              		.text
  17              	.Ltext0:
  18              		.cfi_sections	.debug_frame
  19              		.section	.text.ETH_PHY_IO_DeInit,"ax",%progbits
  20              		.align	1
  21              		.global	ETH_PHY_IO_DeInit
  22              		.syntax unified
  23              		.thumb
  24              		.thumb_func
  26              	ETH_PHY_IO_DeInit:
  27              	.LFB173:
  28              		.file 1 "ThirdPackage/lwip_app/ethernetif.c"
   1:ThirdPackage/lwip_app/ethernetif.c **** /* USER CODE BEGIN Header */
   2:ThirdPackage/lwip_app/ethernetif.c **** /**
   3:ThirdPackage/lwip_app/ethernetif.c ****   ******************************************************************************
   4:ThirdPackage/lwip_app/ethernetif.c ****   * File Name          : ethernetif.c
   5:ThirdPackage/lwip_app/ethernetif.c ****   * Description        : This file provides code for the configuration
   6:ThirdPackage/lwip_app/ethernetif.c ****   *                      of the ethernetif.c MiddleWare.
   7:ThirdPackage/lwip_app/ethernetif.c ****   ******************************************************************************
   8:ThirdPackage/lwip_app/ethernetif.c ****   * @attention
   9:ThirdPackage/lwip_app/ethernetif.c ****   *
  10:ThirdPackage/lwip_app/ethernetif.c ****   * Copyright (c) 2024 STMicroelectronics.
  11:ThirdPackage/lwip_app/ethernetif.c ****   * All rights reserved.
  12:ThirdPackage/lwip_app/ethernetif.c ****   *
  13:ThirdPackage/lwip_app/ethernetif.c ****   * This software is licensed under terms that can be found in the LICENSE file
  14:ThirdPackage/lwip_app/ethernetif.c ****   * in the root directory of this software component.
  15:ThirdPackage/lwip_app/ethernetif.c ****   * If no LICENSE file comes with this software, it is provided AS-IS.
  16:ThirdPackage/lwip_app/ethernetif.c ****   *
  17:ThirdPackage/lwip_app/ethernetif.c ****   ******************************************************************************
  18:ThirdPackage/lwip_app/ethernetif.c ****   */
  19:ThirdPackage/lwip_app/ethernetif.c **** /* USER CODE END Header */
  20:ThirdPackage/lwip_app/ethernetif.c **** 
  21:ThirdPackage/lwip_app/ethernetif.c **** /* Includes ------------------------------------------------------------------*/
  22:ThirdPackage/lwip_app/ethernetif.c **** 
  23:ThirdPackage/lwip_app/ethernetif.c **** #include "lwip/opt.h"
  24:ThirdPackage/lwip_app/ethernetif.c **** #include "lwip/timeouts.h"
  25:ThirdPackage/lwip_app/ethernetif.c **** #include "netif/ethernet.h"
  26:ThirdPackage/lwip_app/ethernetif.c **** #include "netif/etharp.h"
  27:ThirdPackage/lwip_app/ethernetif.c **** #include "lwip/ethip6.h"
  28:ThirdPackage/lwip_app/ethernetif.c **** #include "ethernetif.h"
  29:ThirdPackage/lwip_app/ethernetif.c **** #include "dp83848.h"
  30:ThirdPackage/lwip_app/ethernetif.c **** #include <string.h>
ARM GAS  C:\Users\86188\AppData\Local\Temp\ccZBSQgi.s 			page 2


  31:ThirdPackage/lwip_app/ethernetif.c **** //#include "cmsis_os.h"
  32:ThirdPackage/lwip_app/ethernetif.c **** #include "FreeRTOS.h" 
  33:ThirdPackage/lwip_app/ethernetif.c **** #include "lwip/tcpip.h"
  34:ThirdPackage/lwip_app/ethernetif.c **** #include "arch/sys_arch.h"
  35:ThirdPackage/lwip_app/ethernetif.c **** 
  36:ThirdPackage/lwip_app/ethernetif.c **** /* Within 'USER CODE' section, code will be kept by default at each generation */
  37:ThirdPackage/lwip_app/ethernetif.c **** /* USER CODE BEGIN 0 */
  38:ThirdPackage/lwip_app/ethernetif.c **** 
  39:ThirdPackage/lwip_app/ethernetif.c **** /* USER CODE END 0 */
  40:ThirdPackage/lwip_app/ethernetif.c **** 
  41:ThirdPackage/lwip_app/ethernetif.c **** /* Private define ------------------------------------------------------------*/
  42:ThirdPackage/lwip_app/ethernetif.c **** /* The time to block waiting for input. */
  43:ThirdPackage/lwip_app/ethernetif.c **** #define TIME_WAITING_FOR_INPUT ( portMAX_DELAY )
  44:ThirdPackage/lwip_app/ethernetif.c **** /* USER CODE BEGIN OS_THREAD_STACK_SIZE_WITH_RTOS */
  45:ThirdPackage/lwip_app/ethernetif.c **** /* Stack size of the interface thread */
  46:ThirdPackage/lwip_app/ethernetif.c **** #define INTERFACE_THREAD_STACK_SIZE ( 350 )
  47:ThirdPackage/lwip_app/ethernetif.c **** /* USER CODE END OS_THREAD_STACK_SIZE_WITH_RTOS */
  48:ThirdPackage/lwip_app/ethernetif.c **** /* Network interface name */
  49:ThirdPackage/lwip_app/ethernetif.c **** #define IFNAME0 's'
  50:ThirdPackage/lwip_app/ethernetif.c **** #define IFNAME1 't'
  51:ThirdPackage/lwip_app/ethernetif.c **** 
  52:ThirdPackage/lwip_app/ethernetif.c **** /* ETH Setting  */
  53:ThirdPackage/lwip_app/ethernetif.c **** #define ETH_DMA_TRANSMIT_TIMEOUT               ( 20U )
  54:ThirdPackage/lwip_app/ethernetif.c **** #define ETH_TX_BUFFER_MAX             ((ETH_TX_DESC_CNT) * 2U)
  55:ThirdPackage/lwip_app/ethernetif.c **** 
  56:ThirdPackage/lwip_app/ethernetif.c **** /* USER CODE BEGIN 1 */
  57:ThirdPackage/lwip_app/ethernetif.c **** 
  58:ThirdPackage/lwip_app/ethernetif.c **** /* USER CODE END 1 */
  59:ThirdPackage/lwip_app/ethernetif.c **** 
  60:ThirdPackage/lwip_app/ethernetif.c **** /* Private variables ---------------------------------------------------------*/
  61:ThirdPackage/lwip_app/ethernetif.c **** /*
  62:ThirdPackage/lwip_app/ethernetif.c **** @Note: This interface is implemented to operate in zero-copy mode only:
  63:ThirdPackage/lwip_app/ethernetif.c ****         - Rx buffers will be allocated from LwIP stack memory heap,
  64:ThirdPackage/lwip_app/ethernetif.c ****           then passed to ETH HAL driver.
  65:ThirdPackage/lwip_app/ethernetif.c ****         - Tx buffers will be allocated from LwIP stack memory heap,
  66:ThirdPackage/lwip_app/ethernetif.c ****           then passed to ETH HAL driver.
  67:ThirdPackage/lwip_app/ethernetif.c **** 
  68:ThirdPackage/lwip_app/ethernetif.c **** @Notes:
  69:ThirdPackage/lwip_app/ethernetif.c ****   1.a. ETH DMA Rx descriptors must be contiguous, the default count is 4,
  70:ThirdPackage/lwip_app/ethernetif.c ****        to customize it please redefine ETH_RX_DESC_CNT in ETH GUI (Rx Descriptor Length)
  71:ThirdPackage/lwip_app/ethernetif.c ****        so that updated value will be generated in stm32xxxx_hal_conf.h
  72:ThirdPackage/lwip_app/ethernetif.c ****   1.b. ETH DMA Tx descriptors must be contiguous, the default count is 4,
  73:ThirdPackage/lwip_app/ethernetif.c ****        to customize it please redefine ETH_TX_DESC_CNT in ETH GUI (Tx Descriptor Length)
  74:ThirdPackage/lwip_app/ethernetif.c ****        so that updated value will be generated in stm32xxxx_hal_conf.h
  75:ThirdPackage/lwip_app/ethernetif.c **** 
  76:ThirdPackage/lwip_app/ethernetif.c ****   2.a. Rx Buffers number must be between ETH_RX_DESC_CNT and 2*ETH_RX_DESC_CNT
  77:ThirdPackage/lwip_app/ethernetif.c ****   2.b. Rx Buffers must have the same size: ETH_RX_BUF_SIZE, this value must
  78:ThirdPackage/lwip_app/ethernetif.c ****        passed to ETH DMA in the init field (heth.Init.RxBuffLen)
  79:ThirdPackage/lwip_app/ethernetif.c ****   2.c  The RX Ruffers addresses and sizes must be properly defined to be aligned
  80:ThirdPackage/lwip_app/ethernetif.c ****        to L1-CACHE line size (32 bytes).
  81:ThirdPackage/lwip_app/ethernetif.c **** */
  82:ThirdPackage/lwip_app/ethernetif.c **** 
  83:ThirdPackage/lwip_app/ethernetif.c **** /* Data Type Definitions */
  84:ThirdPackage/lwip_app/ethernetif.c **** typedef enum
  85:ThirdPackage/lwip_app/ethernetif.c **** {
  86:ThirdPackage/lwip_app/ethernetif.c ****   RX_ALLOC_OK       = 0x00,
  87:ThirdPackage/lwip_app/ethernetif.c ****   RX_ALLOC_ERROR    = 0x01
ARM GAS  C:\Users\86188\AppData\Local\Temp\ccZBSQgi.s 			page 3


  88:ThirdPackage/lwip_app/ethernetif.c **** } RxAllocStatusTypeDef;
  89:ThirdPackage/lwip_app/ethernetif.c **** 
  90:ThirdPackage/lwip_app/ethernetif.c **** typedef struct
  91:ThirdPackage/lwip_app/ethernetif.c **** {
  92:ThirdPackage/lwip_app/ethernetif.c ****   struct pbuf_custom pbuf_custom;
  93:ThirdPackage/lwip_app/ethernetif.c ****   uint8_t buff[(ETH_RX_BUF_SIZE + 31) & ~31] __ALIGNED(32);
  94:ThirdPackage/lwip_app/ethernetif.c **** } RxBuff_t;
  95:ThirdPackage/lwip_app/ethernetif.c **** 
  96:ThirdPackage/lwip_app/ethernetif.c **** /* Memory Pool Declaration */
  97:ThirdPackage/lwip_app/ethernetif.c **** #define ETH_RX_BUFFER_CNT             12U
  98:ThirdPackage/lwip_app/ethernetif.c **** LWIP_MEMPOOL_DECLARE(RX_POOL, ETH_RX_BUFFER_CNT, sizeof(RxBuff_t), "Zero-copy RX PBUF pool");
  99:ThirdPackage/lwip_app/ethernetif.c **** 
 100:ThirdPackage/lwip_app/ethernetif.c **** /* Variable Definitions */
 101:ThirdPackage/lwip_app/ethernetif.c **** static uint8_t RxAllocStatus;
 102:ThirdPackage/lwip_app/ethernetif.c **** 
 103:ThirdPackage/lwip_app/ethernetif.c **** ETH_DMADescTypeDef  DMARxDscrTab[ETH_RX_DESC_CNT]; /* Ethernet Rx DMA Descriptors */
 104:ThirdPackage/lwip_app/ethernetif.c **** ETH_DMADescTypeDef  DMATxDscrTab[ETH_TX_DESC_CNT]; /* Ethernet Tx DMA Descriptors */
 105:ThirdPackage/lwip_app/ethernetif.c **** 
 106:ThirdPackage/lwip_app/ethernetif.c **** /* USER CODE BEGIN 2 */
 107:ThirdPackage/lwip_app/ethernetif.c **** 
 108:ThirdPackage/lwip_app/ethernetif.c **** /* USER CODE END 2 */
 109:ThirdPackage/lwip_app/ethernetif.c **** 
 110:ThirdPackage/lwip_app/ethernetif.c **** SemaphoreHandle_t RxPktSemaphore = NULL;   /* Semaphore to signal incoming packets */
 111:ThirdPackage/lwip_app/ethernetif.c **** SemaphoreHandle_t TxPktSemaphore = NULL;   /* Semaphore to signal transmit packet complete */
 112:ThirdPackage/lwip_app/ethernetif.c **** 
 113:ThirdPackage/lwip_app/ethernetif.c **** /* Global Ethernet handle */
 114:ThirdPackage/lwip_app/ethernetif.c **** ETH_HandleTypeDef heth;
 115:ThirdPackage/lwip_app/ethernetif.c **** ETH_TxPacketConfig TxConfig;
 116:ThirdPackage/lwip_app/ethernetif.c **** 
 117:ThirdPackage/lwip_app/ethernetif.c **** /* Private function prototypes -----------------------------------------------*/
 118:ThirdPackage/lwip_app/ethernetif.c **** void ethernetif_input(void *argument);
 119:ThirdPackage/lwip_app/ethernetif.c **** int32_t ETH_PHY_IO_Init(void);
 120:ThirdPackage/lwip_app/ethernetif.c **** int32_t ETH_PHY_IO_DeInit (void);
 121:ThirdPackage/lwip_app/ethernetif.c **** int32_t ETH_PHY_IO_ReadReg(uint32_t DevAddr, uint32_t RegAddr, uint32_t *pRegVal);
 122:ThirdPackage/lwip_app/ethernetif.c **** int32_t ETH_PHY_IO_WriteReg(uint32_t DevAddr, uint32_t RegAddr, uint32_t RegVal);
 123:ThirdPackage/lwip_app/ethernetif.c **** int32_t ETH_PHY_IO_GetTick(void);
 124:ThirdPackage/lwip_app/ethernetif.c **** 
 125:ThirdPackage/lwip_app/ethernetif.c **** dp83848_Object_t DP83848;
 126:ThirdPackage/lwip_app/ethernetif.c **** dp83848_IOCtx_t  DP83848_IOCtx = {ETH_PHY_IO_Init,
 127:ThirdPackage/lwip_app/ethernetif.c ****                                   ETH_PHY_IO_DeInit,
 128:ThirdPackage/lwip_app/ethernetif.c ****                                   ETH_PHY_IO_WriteReg,
 129:ThirdPackage/lwip_app/ethernetif.c ****                                   ETH_PHY_IO_ReadReg,
 130:ThirdPackage/lwip_app/ethernetif.c ****                                   ETH_PHY_IO_GetTick};
 131:ThirdPackage/lwip_app/ethernetif.c **** 
 132:ThirdPackage/lwip_app/ethernetif.c **** /* USER CODE BEGIN 3 */
 133:ThirdPackage/lwip_app/ethernetif.c **** 
 134:ThirdPackage/lwip_app/ethernetif.c **** /* USER CODE END 3 */
 135:ThirdPackage/lwip_app/ethernetif.c **** 
 136:ThirdPackage/lwip_app/ethernetif.c **** /* Private functions ---------------------------------------------------------*/
 137:ThirdPackage/lwip_app/ethernetif.c **** void pbuf_free_custom(struct pbuf *p);
 138:ThirdPackage/lwip_app/ethernetif.c **** 
 139:ThirdPackage/lwip_app/ethernetif.c **** /**
 140:ThirdPackage/lwip_app/ethernetif.c ****   * @brief  Ethernet Rx Transfer completed callback
 141:ThirdPackage/lwip_app/ethernetif.c ****   * @param  handlerEth: ETH handler
 142:ThirdPackage/lwip_app/ethernetif.c ****   * @retval None
 143:ThirdPackage/lwip_app/ethernetif.c ****   */
 144:ThirdPackage/lwip_app/ethernetif.c **** void HAL_ETH_RxCpltCallback(ETH_HandleTypeDef *handlerEth)
ARM GAS  C:\Users\86188\AppData\Local\Temp\ccZBSQgi.s 			page 4


 145:ThirdPackage/lwip_app/ethernetif.c **** {
 146:ThirdPackage/lwip_app/ethernetif.c ****   //xSemaphoreGive(RxPktSemaphore);
 147:ThirdPackage/lwip_app/ethernetif.c ****   BaseType_t xHigherPriorityTaskWoken = pdFALSE;
 148:ThirdPackage/lwip_app/ethernetif.c ****   xSemaphoreGiveFromISR(RxPktSemaphore,&xHigherPriorityTaskWoken);
 149:ThirdPackage/lwip_app/ethernetif.c ****   portYIELD_FROM_ISR(xHigherPriorityTaskWoken);
 150:ThirdPackage/lwip_app/ethernetif.c **** }
 151:ThirdPackage/lwip_app/ethernetif.c **** /**
 152:ThirdPackage/lwip_app/ethernetif.c ****   * @brief  Ethernet Tx Transfer completed callback
 153:ThirdPackage/lwip_app/ethernetif.c ****   * @param  handlerEth: ETH handler
 154:ThirdPackage/lwip_app/ethernetif.c ****   * @retval None
 155:ThirdPackage/lwip_app/ethernetif.c ****   */
 156:ThirdPackage/lwip_app/ethernetif.c **** void HAL_ETH_TxCpltCallback(ETH_HandleTypeDef *handlerEth)
 157:ThirdPackage/lwip_app/ethernetif.c **** {
 158:ThirdPackage/lwip_app/ethernetif.c ****   //xSemaphoreGive(TxPktSemaphore);
 159:ThirdPackage/lwip_app/ethernetif.c ****   BaseType_t xHigherPriorityTaskWoken = pdFALSE;
 160:ThirdPackage/lwip_app/ethernetif.c ****   xSemaphoreGiveFromISR(TxPktSemaphore,&xHigherPriorityTaskWoken);
 161:ThirdPackage/lwip_app/ethernetif.c ****   portYIELD_FROM_ISR(xHigherPriorityTaskWoken);
 162:ThirdPackage/lwip_app/ethernetif.c **** }
 163:ThirdPackage/lwip_app/ethernetif.c **** /**
 164:ThirdPackage/lwip_app/ethernetif.c ****   * @brief  Ethernet DMA transfer error callback
 165:ThirdPackage/lwip_app/ethernetif.c ****   * @param  handlerEth: ETH handler
 166:ThirdPackage/lwip_app/ethernetif.c ****   * @retval None
 167:ThirdPackage/lwip_app/ethernetif.c ****   */
 168:ThirdPackage/lwip_app/ethernetif.c **** void HAL_ETH_ErrorCallback(ETH_HandleTypeDef *handlerEth)
 169:ThirdPackage/lwip_app/ethernetif.c **** {
 170:ThirdPackage/lwip_app/ethernetif.c ****   if((HAL_ETH_GetDMAError(handlerEth) & ETH_DMASR_RBUS) == ETH_DMASR_RBUS)
 171:ThirdPackage/lwip_app/ethernetif.c ****   {
 172:ThirdPackage/lwip_app/ethernetif.c ****      //xSemaphoreGive(RxPktSemaphore);
 173:ThirdPackage/lwip_app/ethernetif.c ****      BaseType_t xHigherPriorityTaskWoken = pdFALSE;
 174:ThirdPackage/lwip_app/ethernetif.c ****      xSemaphoreGiveFromISR(RxPktSemaphore,&xHigherPriorityTaskWoken);
 175:ThirdPackage/lwip_app/ethernetif.c ****      portYIELD_FROM_ISR(xHigherPriorityTaskWoken);
 176:ThirdPackage/lwip_app/ethernetif.c ****   }
 177:ThirdPackage/lwip_app/ethernetif.c **** }
 178:ThirdPackage/lwip_app/ethernetif.c **** 
 179:ThirdPackage/lwip_app/ethernetif.c **** /* USER CODE BEGIN 4 */
 180:ThirdPackage/lwip_app/ethernetif.c **** 
 181:ThirdPackage/lwip_app/ethernetif.c **** /* USER CODE END 4 */
 182:ThirdPackage/lwip_app/ethernetif.c **** 
 183:ThirdPackage/lwip_app/ethernetif.c **** /*******************************************************************************
 184:ThirdPackage/lwip_app/ethernetif.c ****                        LL Driver Interface ( LwIP stack --> ETH)
 185:ThirdPackage/lwip_app/ethernetif.c **** *******************************************************************************/
 186:ThirdPackage/lwip_app/ethernetif.c **** /**
 187:ThirdPackage/lwip_app/ethernetif.c ****  * @brief In this function, the hardware should be initialized.
 188:ThirdPackage/lwip_app/ethernetif.c ****  * Called from ethernetif_init().
 189:ThirdPackage/lwip_app/ethernetif.c ****  *
 190:ThirdPackage/lwip_app/ethernetif.c ****  * @param netif the already initialized lwip network interface structure
 191:ThirdPackage/lwip_app/ethernetif.c ****  *        for this ethernetif
 192:ThirdPackage/lwip_app/ethernetif.c ****  */
 193:ThirdPackage/lwip_app/ethernetif.c **** static void low_level_init(struct netif *netif)
 194:ThirdPackage/lwip_app/ethernetif.c **** {
 195:ThirdPackage/lwip_app/ethernetif.c ****   HAL_StatusTypeDef hal_eth_init_status = HAL_OK;
 196:ThirdPackage/lwip_app/ethernetif.c ****   uint32_t duplex, speed = 0;
 197:ThirdPackage/lwip_app/ethernetif.c ****   int32_t PHYLinkState = 0;
 198:ThirdPackage/lwip_app/ethernetif.c ****   ETH_MACConfigTypeDef MACConf = {0};
 199:ThirdPackage/lwip_app/ethernetif.c ****   /* Start ETH HAL Init */
 200:ThirdPackage/lwip_app/ethernetif.c **** 
 201:ThirdPackage/lwip_app/ethernetif.c ****    uint8_t MACAddr[6] ;
ARM GAS  C:\Users\86188\AppData\Local\Temp\ccZBSQgi.s 			page 5


 202:ThirdPackage/lwip_app/ethernetif.c ****   heth.Instance = ETH;
 203:ThirdPackage/lwip_app/ethernetif.c ****   MACAddr[0] = 0x00;
 204:ThirdPackage/lwip_app/ethernetif.c ****   MACAddr[1] = 0x80;
 205:ThirdPackage/lwip_app/ethernetif.c ****   MACAddr[2] = 0xE1;
 206:ThirdPackage/lwip_app/ethernetif.c ****   MACAddr[3] = 0x00;
 207:ThirdPackage/lwip_app/ethernetif.c ****   MACAddr[4] = 0x00;
 208:ThirdPackage/lwip_app/ethernetif.c ****   MACAddr[5] = 0x00;
 209:ThirdPackage/lwip_app/ethernetif.c ****   heth.Init.MACAddr = &MACAddr[0];
 210:ThirdPackage/lwip_app/ethernetif.c ****   heth.Init.MediaInterface = HAL_ETH_RMII_MODE;
 211:ThirdPackage/lwip_app/ethernetif.c ****   heth.Init.TxDesc = DMATxDscrTab;
 212:ThirdPackage/lwip_app/ethernetif.c ****   heth.Init.RxDesc = DMARxDscrTab;
 213:ThirdPackage/lwip_app/ethernetif.c ****   heth.Init.RxBuffLen = 1536;
 214:ThirdPackage/lwip_app/ethernetif.c **** 
 215:ThirdPackage/lwip_app/ethernetif.c ****   /* USER CODE BEGIN MACADDRESS */
 216:ThirdPackage/lwip_app/ethernetif.c **** 
 217:ThirdPackage/lwip_app/ethernetif.c ****   /* USER CODE END MACADDRESS */
 218:ThirdPackage/lwip_app/ethernetif.c **** 
 219:ThirdPackage/lwip_app/ethernetif.c ****   hal_eth_init_status = HAL_ETH_Init(&heth);
 220:ThirdPackage/lwip_app/ethernetif.c **** 
 221:ThirdPackage/lwip_app/ethernetif.c ****   memset(&TxConfig, 0 , sizeof(ETH_TxPacketConfig));
 222:ThirdPackage/lwip_app/ethernetif.c ****   TxConfig.Attributes = ETH_TX_PACKETS_FEATURES_CSUM | ETH_TX_PACKETS_FEATURES_CRCPAD;
 223:ThirdPackage/lwip_app/ethernetif.c ****   TxConfig.ChecksumCtrl = ETH_CHECKSUM_IPHDR_PAYLOAD_INSERT_PHDR_CALC;
 224:ThirdPackage/lwip_app/ethernetif.c ****   TxConfig.CRCPadCtrl = ETH_CRC_PAD_INSERT;
 225:ThirdPackage/lwip_app/ethernetif.c **** 
 226:ThirdPackage/lwip_app/ethernetif.c ****   /* End ETH HAL Init */
 227:ThirdPackage/lwip_app/ethernetif.c **** 
 228:ThirdPackage/lwip_app/ethernetif.c ****   /* Initialize the RX POOL */
 229:ThirdPackage/lwip_app/ethernetif.c ****   LWIP_MEMPOOL_INIT(RX_POOL);
 230:ThirdPackage/lwip_app/ethernetif.c **** 
 231:ThirdPackage/lwip_app/ethernetif.c **** #if LWIP_ARP || LWIP_ETHERNET
 232:ThirdPackage/lwip_app/ethernetif.c **** 
 233:ThirdPackage/lwip_app/ethernetif.c ****   /* set MAC hardware address length */
 234:ThirdPackage/lwip_app/ethernetif.c ****   netif->hwaddr_len = ETH_HWADDR_LEN;
 235:ThirdPackage/lwip_app/ethernetif.c **** 
 236:ThirdPackage/lwip_app/ethernetif.c ****   /* set MAC hardware address */
 237:ThirdPackage/lwip_app/ethernetif.c ****   netif->hwaddr[0] =  heth.Init.MACAddr[0];
 238:ThirdPackage/lwip_app/ethernetif.c ****   netif->hwaddr[1] =  heth.Init.MACAddr[1];
 239:ThirdPackage/lwip_app/ethernetif.c ****   netif->hwaddr[2] =  heth.Init.MACAddr[2];
 240:ThirdPackage/lwip_app/ethernetif.c ****   netif->hwaddr[3] =  heth.Init.MACAddr[3];
 241:ThirdPackage/lwip_app/ethernetif.c ****   netif->hwaddr[4] =  heth.Init.MACAddr[4];
 242:ThirdPackage/lwip_app/ethernetif.c ****   netif->hwaddr[5] =  heth.Init.MACAddr[5];
 243:ThirdPackage/lwip_app/ethernetif.c **** 
 244:ThirdPackage/lwip_app/ethernetif.c ****   /* maximum transfer unit */
 245:ThirdPackage/lwip_app/ethernetif.c ****   netif->mtu = ETH_MAX_PAYLOAD;
 246:ThirdPackage/lwip_app/ethernetif.c **** 
 247:ThirdPackage/lwip_app/ethernetif.c ****   /* Accept broadcast address and ARP traffic */
 248:ThirdPackage/lwip_app/ethernetif.c ****   /* don't set NETIF_FLAG_ETHARP if this device is not an ethernet one */
 249:ThirdPackage/lwip_app/ethernetif.c ****   #if LWIP_ARP
 250:ThirdPackage/lwip_app/ethernetif.c ****     netif->flags |= NETIF_FLAG_BROADCAST | NETIF_FLAG_ETHARP;
 251:ThirdPackage/lwip_app/ethernetif.c ****   #else
 252:ThirdPackage/lwip_app/ethernetif.c ****     netif->flags |= NETIF_FLAG_BROADCAST;
 253:ThirdPackage/lwip_app/ethernetif.c ****   #endif /* LWIP_ARP */
 254:ThirdPackage/lwip_app/ethernetif.c **** 
 255:ThirdPackage/lwip_app/ethernetif.c ****   /* create a binary semaphore used for informing ethernetif of frame reception */
 256:ThirdPackage/lwip_app/ethernetif.c ****   RxPktSemaphore = xSemaphoreCreateBinary();
 257:ThirdPackage/lwip_app/ethernetif.c **** 
 258:ThirdPackage/lwip_app/ethernetif.c ****   /* create a binary semaphore used for informing ethernetif of frame transmission */
ARM GAS  C:\Users\86188\AppData\Local\Temp\ccZBSQgi.s 			page 6


 259:ThirdPackage/lwip_app/ethernetif.c ****   TxPktSemaphore = xSemaphoreCreateBinary();
 260:ThirdPackage/lwip_app/ethernetif.c **** 
 261:ThirdPackage/lwip_app/ethernetif.c ****   xSemaphoreGive(TxPktSemaphore);
 262:ThirdPackage/lwip_app/ethernetif.c ****   xSemaphoreGive(RxPktSemaphore);
 263:ThirdPackage/lwip_app/ethernetif.c **** 
 264:ThirdPackage/lwip_app/ethernetif.c ****   /* create the task that handles the ETH_MAC */
 265:ThirdPackage/lwip_app/ethernetif.c **** /* USER CODE BEGIN OS_THREAD_DEF_CREATE_CMSIS_RTOS_V1 */
 266:ThirdPackage/lwip_app/ethernetif.c **** TaskHandle_t EthIf;
 267:ThirdPackage/lwip_app/ethernetif.c **** xTaskCreate( ethernetif_input,
 268:ThirdPackage/lwip_app/ethernetif.c ****                 "EthIf", /*lint !e971 Unqualified char types are allowed for strings and single cha
 269:ThirdPackage/lwip_app/ethernetif.c ****                 INTERFACE_THREAD_STACK_SIZE,
 270:ThirdPackage/lwip_app/ethernetif.c ****                 0,
 271:ThirdPackage/lwip_app/ethernetif.c ****                 4,
 272:ThirdPackage/lwip_app/ethernetif.c ****                 &EthIf);
 273:ThirdPackage/lwip_app/ethernetif.c **** /* USER CODE END OS_THREAD_DEF_CREATE_CMSIS_RTOS_V1 */
 274:ThirdPackage/lwip_app/ethernetif.c **** 
 275:ThirdPackage/lwip_app/ethernetif.c **** /* USER CODE BEGIN PHY_PRE_CONFIG */
 276:ThirdPackage/lwip_app/ethernetif.c **** 
 277:ThirdPackage/lwip_app/ethernetif.c **** /* USER CODE END PHY_PRE_CONFIG */
 278:ThirdPackage/lwip_app/ethernetif.c ****   /* Set PHY IO functions */
 279:ThirdPackage/lwip_app/ethernetif.c ****   DP83848_RegisterBusIO(&DP83848, &DP83848_IOCtx);
 280:ThirdPackage/lwip_app/ethernetif.c **** 
 281:ThirdPackage/lwip_app/ethernetif.c ****   /* Initialize the DP83848 ETH PHY */
 282:ThirdPackage/lwip_app/ethernetif.c ****   DP83848_Init(&DP83848);
 283:ThirdPackage/lwip_app/ethernetif.c **** 
 284:ThirdPackage/lwip_app/ethernetif.c ****   if (hal_eth_init_status == HAL_OK)
 285:ThirdPackage/lwip_app/ethernetif.c ****   {
 286:ThirdPackage/lwip_app/ethernetif.c ****     PHYLinkState = DP83848_GetLinkState(&DP83848);
 287:ThirdPackage/lwip_app/ethernetif.c **** 
 288:ThirdPackage/lwip_app/ethernetif.c ****     /* Get link state */
 289:ThirdPackage/lwip_app/ethernetif.c ****     if(PHYLinkState <= DP83848_STATUS_LINK_DOWN)
 290:ThirdPackage/lwip_app/ethernetif.c ****     {
 291:ThirdPackage/lwip_app/ethernetif.c ****       netif_set_link_down(netif);
 292:ThirdPackage/lwip_app/ethernetif.c ****       netif_set_down(netif);
 293:ThirdPackage/lwip_app/ethernetif.c ****     }
 294:ThirdPackage/lwip_app/ethernetif.c ****     else
 295:ThirdPackage/lwip_app/ethernetif.c ****     {
 296:ThirdPackage/lwip_app/ethernetif.c ****       switch (PHYLinkState)
 297:ThirdPackage/lwip_app/ethernetif.c ****       {
 298:ThirdPackage/lwip_app/ethernetif.c ****       case DP83848_STATUS_100MBITS_FULLDUPLEX:
 299:ThirdPackage/lwip_app/ethernetif.c ****         duplex = ETH_FULLDUPLEX_MODE;
 300:ThirdPackage/lwip_app/ethernetif.c ****         speed = ETH_SPEED_100M;
 301:ThirdPackage/lwip_app/ethernetif.c ****         break;
 302:ThirdPackage/lwip_app/ethernetif.c ****       case DP83848_STATUS_100MBITS_HALFDUPLEX:
 303:ThirdPackage/lwip_app/ethernetif.c ****         duplex = ETH_HALFDUPLEX_MODE;
 304:ThirdPackage/lwip_app/ethernetif.c ****         speed = ETH_SPEED_100M;
 305:ThirdPackage/lwip_app/ethernetif.c ****         break;
 306:ThirdPackage/lwip_app/ethernetif.c ****       case DP83848_STATUS_10MBITS_FULLDUPLEX:
 307:ThirdPackage/lwip_app/ethernetif.c ****         duplex = ETH_FULLDUPLEX_MODE;
 308:ThirdPackage/lwip_app/ethernetif.c ****         speed = ETH_SPEED_10M;
 309:ThirdPackage/lwip_app/ethernetif.c ****         break;
 310:ThirdPackage/lwip_app/ethernetif.c ****       case DP83848_STATUS_10MBITS_HALFDUPLEX:
 311:ThirdPackage/lwip_app/ethernetif.c ****         duplex = ETH_HALFDUPLEX_MODE;
 312:ThirdPackage/lwip_app/ethernetif.c ****         speed = ETH_SPEED_10M;
 313:ThirdPackage/lwip_app/ethernetif.c ****         break;
 314:ThirdPackage/lwip_app/ethernetif.c ****       default:
 315:ThirdPackage/lwip_app/ethernetif.c ****         duplex = ETH_FULLDUPLEX_MODE;
ARM GAS  C:\Users\86188\AppData\Local\Temp\ccZBSQgi.s 			page 7


 316:ThirdPackage/lwip_app/ethernetif.c ****         speed = ETH_SPEED_100M;
 317:ThirdPackage/lwip_app/ethernetif.c ****         break;
 318:ThirdPackage/lwip_app/ethernetif.c ****       }
 319:ThirdPackage/lwip_app/ethernetif.c **** 
 320:ThirdPackage/lwip_app/ethernetif.c ****     /* Get MAC Config MAC */
 321:ThirdPackage/lwip_app/ethernetif.c ****     HAL_ETH_GetMACConfig(&heth, &MACConf);
 322:ThirdPackage/lwip_app/ethernetif.c ****     MACConf.DuplexMode = duplex;
 323:ThirdPackage/lwip_app/ethernetif.c ****     MACConf.Speed = speed;
 324:ThirdPackage/lwip_app/ethernetif.c ****     HAL_ETH_SetMACConfig(&heth, &MACConf);
 325:ThirdPackage/lwip_app/ethernetif.c **** 
 326:ThirdPackage/lwip_app/ethernetif.c ****     HAL_ETH_Start_IT(&heth);
 327:ThirdPackage/lwip_app/ethernetif.c ****     netif_set_up(netif);
 328:ThirdPackage/lwip_app/ethernetif.c ****     netif_set_link_up(netif);
 329:ThirdPackage/lwip_app/ethernetif.c **** 
 330:ThirdPackage/lwip_app/ethernetif.c **** /* USER CODE BEGIN PHY_POST_CONFIG */
 331:ThirdPackage/lwip_app/ethernetif.c **** 
 332:ThirdPackage/lwip_app/ethernetif.c **** /* USER CODE END PHY_POST_CONFIG */
 333:ThirdPackage/lwip_app/ethernetif.c ****     }
 334:ThirdPackage/lwip_app/ethernetif.c **** 
 335:ThirdPackage/lwip_app/ethernetif.c ****   }
 336:ThirdPackage/lwip_app/ethernetif.c ****   else
 337:ThirdPackage/lwip_app/ethernetif.c ****   {
 338:ThirdPackage/lwip_app/ethernetif.c ****     Error_Handler();
 339:ThirdPackage/lwip_app/ethernetif.c ****   }
 340:ThirdPackage/lwip_app/ethernetif.c **** #endif /* LWIP_ARP || LWIP_ETHERNET */
 341:ThirdPackage/lwip_app/ethernetif.c **** 
 342:ThirdPackage/lwip_app/ethernetif.c **** /* USER CODE BEGIN LOW_LEVEL_INIT */
 343:ThirdPackage/lwip_app/ethernetif.c **** 
 344:ThirdPackage/lwip_app/ethernetif.c **** /* USER CODE END LOW_LEVEL_INIT */
 345:ThirdPackage/lwip_app/ethernetif.c **** }
 346:ThirdPackage/lwip_app/ethernetif.c **** 
 347:ThirdPackage/lwip_app/ethernetif.c **** /**
 348:ThirdPackage/lwip_app/ethernetif.c ****  * @brief This function should do the actual transmission of the packet. The packet is
 349:ThirdPackage/lwip_app/ethernetif.c ****  * contained in the pbuf that is passed to the function. This pbuf
 350:ThirdPackage/lwip_app/ethernetif.c ****  * might be chained.
 351:ThirdPackage/lwip_app/ethernetif.c ****  *
 352:ThirdPackage/lwip_app/ethernetif.c ****  * @param netif the lwip network interface structure for this ethernetif
 353:ThirdPackage/lwip_app/ethernetif.c ****  * @param p the MAC packet to send (e.g. IP packet including MAC addresses and type)
 354:ThirdPackage/lwip_app/ethernetif.c ****  * @return ERR_OK if the packet could be sent
 355:ThirdPackage/lwip_app/ethernetif.c ****  *         an err_t value if the packet couldn't be sent
 356:ThirdPackage/lwip_app/ethernetif.c ****  *
 357:ThirdPackage/lwip_app/ethernetif.c ****  * @note Returning ERR_MEM here if a DMA queue of your MAC is full can lead to
 358:ThirdPackage/lwip_app/ethernetif.c ****  *       strange results. You might consider waiting for space in the DMA queue
 359:ThirdPackage/lwip_app/ethernetif.c ****  *       to become available since the stack doesn't retry to send a packet
 360:ThirdPackage/lwip_app/ethernetif.c ****  *       dropped because of memory failure (except for the TCP timers).
 361:ThirdPackage/lwip_app/ethernetif.c ****  */
 362:ThirdPackage/lwip_app/ethernetif.c **** 
 363:ThirdPackage/lwip_app/ethernetif.c **** static err_t low_level_output(struct netif *netif, struct pbuf *p)
 364:ThirdPackage/lwip_app/ethernetif.c **** {
 365:ThirdPackage/lwip_app/ethernetif.c ****   uint32_t i = 0U;
 366:ThirdPackage/lwip_app/ethernetif.c ****   struct pbuf *q = NULL;
 367:ThirdPackage/lwip_app/ethernetif.c ****   err_t errval = ERR_OK;
 368:ThirdPackage/lwip_app/ethernetif.c ****   ETH_BufferTypeDef Txbuffer[ETH_TX_DESC_CNT] = {0};
 369:ThirdPackage/lwip_app/ethernetif.c **** 
 370:ThirdPackage/lwip_app/ethernetif.c ****   memset(Txbuffer, 0 , ETH_TX_DESC_CNT*sizeof(ETH_BufferTypeDef));
 371:ThirdPackage/lwip_app/ethernetif.c **** 
 372:ThirdPackage/lwip_app/ethernetif.c ****   for(q = p; q != NULL; q = q->next)
ARM GAS  C:\Users\86188\AppData\Local\Temp\ccZBSQgi.s 			page 8


 373:ThirdPackage/lwip_app/ethernetif.c ****   {
 374:ThirdPackage/lwip_app/ethernetif.c ****     if(i >= ETH_TX_DESC_CNT)
 375:ThirdPackage/lwip_app/ethernetif.c ****       return ERR_IF;
 376:ThirdPackage/lwip_app/ethernetif.c **** 
 377:ThirdPackage/lwip_app/ethernetif.c ****     Txbuffer[i].buffer = q->payload;
 378:ThirdPackage/lwip_app/ethernetif.c ****     Txbuffer[i].len = q->len;
 379:ThirdPackage/lwip_app/ethernetif.c **** 
 380:ThirdPackage/lwip_app/ethernetif.c ****     if(i>0)
 381:ThirdPackage/lwip_app/ethernetif.c ****     {
 382:ThirdPackage/lwip_app/ethernetif.c ****       Txbuffer[i-1].next = &Txbuffer[i];
 383:ThirdPackage/lwip_app/ethernetif.c ****     }
 384:ThirdPackage/lwip_app/ethernetif.c **** 
 385:ThirdPackage/lwip_app/ethernetif.c ****     if(q->next == NULL)
 386:ThirdPackage/lwip_app/ethernetif.c ****     {
 387:ThirdPackage/lwip_app/ethernetif.c ****       Txbuffer[i].next = NULL;
 388:ThirdPackage/lwip_app/ethernetif.c ****     }
 389:ThirdPackage/lwip_app/ethernetif.c **** 
 390:ThirdPackage/lwip_app/ethernetif.c ****     i++;
 391:ThirdPackage/lwip_app/ethernetif.c ****   }
 392:ThirdPackage/lwip_app/ethernetif.c **** 
 393:ThirdPackage/lwip_app/ethernetif.c ****   TxConfig.Length = p->tot_len;
 394:ThirdPackage/lwip_app/ethernetif.c ****   TxConfig.TxBuffer = Txbuffer;
 395:ThirdPackage/lwip_app/ethernetif.c ****   TxConfig.pData = p;
 396:ThirdPackage/lwip_app/ethernetif.c **** 
 397:ThirdPackage/lwip_app/ethernetif.c ****   pbuf_ref(p);
 398:ThirdPackage/lwip_app/ethernetif.c **** 
 399:ThirdPackage/lwip_app/ethernetif.c ****   // HAL_ETH_Transmit(&heth, &TxConfig,3000);
 400:ThirdPackage/lwip_app/ethernetif.c ****   HAL_ETH_Transmit_IT(&heth, &TxConfig);
 401:ThirdPackage/lwip_app/ethernetif.c ****   // xSemaphoreTake(TxPktSemaphore, TIME_WAITING_FOR_INPUT);
 402:ThirdPackage/lwip_app/ethernetif.c ****   while(xSemaphoreTake(TxPktSemaphore, TIME_WAITING_FOR_INPUT)!=pdTRUE)
 403:ThirdPackage/lwip_app/ethernetif.c ****   {
 404:ThirdPackage/lwip_app/ethernetif.c ****   }
 405:ThirdPackage/lwip_app/ethernetif.c **** 
 406:ThirdPackage/lwip_app/ethernetif.c ****   HAL_ETH_ReleaseTxPacket(&heth);
 407:ThirdPackage/lwip_app/ethernetif.c **** 
 408:ThirdPackage/lwip_app/ethernetif.c ****   return errval;
 409:ThirdPackage/lwip_app/ethernetif.c **** }
 410:ThirdPackage/lwip_app/ethernetif.c **** 
 411:ThirdPackage/lwip_app/ethernetif.c **** /**
 412:ThirdPackage/lwip_app/ethernetif.c ****  * @brief Should allocate a pbuf and transfer the bytes of the incoming
 413:ThirdPackage/lwip_app/ethernetif.c ****  * packet from the interface into the pbuf.
 414:ThirdPackage/lwip_app/ethernetif.c ****  *
 415:ThirdPackage/lwip_app/ethernetif.c ****  * @param netif the lwip network interface structure for this ethernetif
 416:ThirdPackage/lwip_app/ethernetif.c ****  * @return a pbuf filled with the received packet (including MAC header)
 417:ThirdPackage/lwip_app/ethernetif.c ****  *         NULL on memory error
 418:ThirdPackage/lwip_app/ethernetif.c ****    */
 419:ThirdPackage/lwip_app/ethernetif.c **** static struct pbuf * low_level_input(struct netif *netif)
 420:ThirdPackage/lwip_app/ethernetif.c **** {
 421:ThirdPackage/lwip_app/ethernetif.c ****   struct pbuf *p = NULL;
 422:ThirdPackage/lwip_app/ethernetif.c **** 
 423:ThirdPackage/lwip_app/ethernetif.c ****   if(RxAllocStatus == RX_ALLOC_OK)
 424:ThirdPackage/lwip_app/ethernetif.c ****   {
 425:ThirdPackage/lwip_app/ethernetif.c ****     HAL_ETH_ReadData(&heth, (void **)&p);
 426:ThirdPackage/lwip_app/ethernetif.c ****   }
 427:ThirdPackage/lwip_app/ethernetif.c **** 
 428:ThirdPackage/lwip_app/ethernetif.c ****   return p;
 429:ThirdPackage/lwip_app/ethernetif.c **** }
ARM GAS  C:\Users\86188\AppData\Local\Temp\ccZBSQgi.s 			page 9


 430:ThirdPackage/lwip_app/ethernetif.c **** 
 431:ThirdPackage/lwip_app/ethernetif.c **** /**
 432:ThirdPackage/lwip_app/ethernetif.c ****  * @brief This function should be called when a packet is ready to be read
 433:ThirdPackage/lwip_app/ethernetif.c ****  * from the interface. It uses the function low_level_input() that
 434:ThirdPackage/lwip_app/ethernetif.c ****  * should handle the actual reception of bytes from the network
 435:ThirdPackage/lwip_app/ethernetif.c ****  * interface. Then the type of the received packet is determined and
 436:ThirdPackage/lwip_app/ethernetif.c ****  * the appropriate input function is called.
 437:ThirdPackage/lwip_app/ethernetif.c ****  *
 438:ThirdPackage/lwip_app/ethernetif.c ****  * @param netif the lwip network interface structure for this ethernetif
 439:ThirdPackage/lwip_app/ethernetif.c ****  */
 440:ThirdPackage/lwip_app/ethernetif.c **** extern struct netif gnetif;
 441:ThirdPackage/lwip_app/ethernetif.c **** void ethernetif_input(void *argument)
 442:ThirdPackage/lwip_app/ethernetif.c **** {
 443:ThirdPackage/lwip_app/ethernetif.c ****   struct pbuf *p = NULL;
 444:ThirdPackage/lwip_app/ethernetif.c ****   struct netif *netif = (struct netif *) &gnetif;
 445:ThirdPackage/lwip_app/ethernetif.c **** 
 446:ThirdPackage/lwip_app/ethernetif.c ****   for( ;; )
 447:ThirdPackage/lwip_app/ethernetif.c ****   {
 448:ThirdPackage/lwip_app/ethernetif.c ****     if (xSemaphoreTake(RxPktSemaphore, TIME_WAITING_FOR_INPUT) == pdTRUE)
 449:ThirdPackage/lwip_app/ethernetif.c ****     {
 450:ThirdPackage/lwip_app/ethernetif.c ****       do
 451:ThirdPackage/lwip_app/ethernetif.c ****       {
 452:ThirdPackage/lwip_app/ethernetif.c ****         p = low_level_input( netif );
 453:ThirdPackage/lwip_app/ethernetif.c ****         if (p != NULL)
 454:ThirdPackage/lwip_app/ethernetif.c ****         {
 455:ThirdPackage/lwip_app/ethernetif.c ****           if (netif->input( p, netif) != ERR_OK )
 456:ThirdPackage/lwip_app/ethernetif.c ****           {
 457:ThirdPackage/lwip_app/ethernetif.c ****             pbuf_free(p);
 458:ThirdPackage/lwip_app/ethernetif.c ****           }
 459:ThirdPackage/lwip_app/ethernetif.c ****         }
 460:ThirdPackage/lwip_app/ethernetif.c ****       } while(p!=NULL);
 461:ThirdPackage/lwip_app/ethernetif.c ****     }
 462:ThirdPackage/lwip_app/ethernetif.c ****   }
 463:ThirdPackage/lwip_app/ethernetif.c **** }
 464:ThirdPackage/lwip_app/ethernetif.c **** 
 465:ThirdPackage/lwip_app/ethernetif.c **** #if !LWIP_ARP
 466:ThirdPackage/lwip_app/ethernetif.c **** /**
 467:ThirdPackage/lwip_app/ethernetif.c ****  * This function has to be completed by user in case of ARP OFF.
 468:ThirdPackage/lwip_app/ethernetif.c ****  *
 469:ThirdPackage/lwip_app/ethernetif.c ****  * @param netif the lwip network interface structure for this ethernetif
 470:ThirdPackage/lwip_app/ethernetif.c ****  * @return ERR_OK if ...
 471:ThirdPackage/lwip_app/ethernetif.c ****  */
 472:ThirdPackage/lwip_app/ethernetif.c **** static err_t low_level_output_arp_off(struct netif *netif, struct pbuf *q, const ip4_addr_t *ipaddr
 473:ThirdPackage/lwip_app/ethernetif.c **** {
 474:ThirdPackage/lwip_app/ethernetif.c ****   err_t errval;
 475:ThirdPackage/lwip_app/ethernetif.c ****   errval = ERR_OK;
 476:ThirdPackage/lwip_app/ethernetif.c **** 
 477:ThirdPackage/lwip_app/ethernetif.c **** /* USER CODE BEGIN 5 */
 478:ThirdPackage/lwip_app/ethernetif.c **** 
 479:ThirdPackage/lwip_app/ethernetif.c **** /* USER CODE END 5 */
 480:ThirdPackage/lwip_app/ethernetif.c **** 
 481:ThirdPackage/lwip_app/ethernetif.c ****   return errval;
 482:ThirdPackage/lwip_app/ethernetif.c **** 
 483:ThirdPackage/lwip_app/ethernetif.c **** }
 484:ThirdPackage/lwip_app/ethernetif.c **** #endif /* LWIP_ARP */
 485:ThirdPackage/lwip_app/ethernetif.c **** 
 486:ThirdPackage/lwip_app/ethernetif.c **** /**
ARM GAS  C:\Users\86188\AppData\Local\Temp\ccZBSQgi.s 			page 10


 487:ThirdPackage/lwip_app/ethernetif.c ****  * @brief Should be called at the beginning of the program to set up the
 488:ThirdPackage/lwip_app/ethernetif.c ****  * network interface. It calls the function low_level_init() to do the
 489:ThirdPackage/lwip_app/ethernetif.c ****  * actual setup of the hardware.
 490:ThirdPackage/lwip_app/ethernetif.c ****  *
 491:ThirdPackage/lwip_app/ethernetif.c ****  * This function should be passed as a parameter to netif_add().
 492:ThirdPackage/lwip_app/ethernetif.c ****  *
 493:ThirdPackage/lwip_app/ethernetif.c ****  * @param netif the lwip network interface structure for this ethernetif
 494:ThirdPackage/lwip_app/ethernetif.c ****  * @return ERR_OK if the loopif is initialized
 495:ThirdPackage/lwip_app/ethernetif.c ****  *         ERR_MEM if private data couldn't be allocated
 496:ThirdPackage/lwip_app/ethernetif.c ****  *         any other err_t on error
 497:ThirdPackage/lwip_app/ethernetif.c ****  */
 498:ThirdPackage/lwip_app/ethernetif.c **** err_t ethernetif_init(struct netif *netif)
 499:ThirdPackage/lwip_app/ethernetif.c **** {
 500:ThirdPackage/lwip_app/ethernetif.c ****   LWIP_ASSERT("netif != NULL", (netif != NULL));
 501:ThirdPackage/lwip_app/ethernetif.c **** 
 502:ThirdPackage/lwip_app/ethernetif.c **** #if LWIP_NETIF_HOSTNAME
 503:ThirdPackage/lwip_app/ethernetif.c ****   /* Initialize interface hostname */
 504:ThirdPackage/lwip_app/ethernetif.c ****   netif->hostname = "lwip";
 505:ThirdPackage/lwip_app/ethernetif.c **** #endif /* LWIP_NETIF_HOSTNAME */
 506:ThirdPackage/lwip_app/ethernetif.c **** 
 507:ThirdPackage/lwip_app/ethernetif.c ****   /*
 508:ThirdPackage/lwip_app/ethernetif.c ****    * Initialize the snmp variables and counters inside the struct netif.
 509:ThirdPackage/lwip_app/ethernetif.c ****    * The last argument should be replaced with your link speed, in units
 510:ThirdPackage/lwip_app/ethernetif.c ****    * of bits per second.
 511:ThirdPackage/lwip_app/ethernetif.c ****    */
 512:ThirdPackage/lwip_app/ethernetif.c ****   // MIB2_INIT_NETIF(netif, snmp_ifType_ethernet_csmacd, LINK_SPEED_OF_YOUR_NETIF_IN_BPS);
 513:ThirdPackage/lwip_app/ethernetif.c **** 
 514:ThirdPackage/lwip_app/ethernetif.c ****   netif->name[0] = IFNAME0;
 515:ThirdPackage/lwip_app/ethernetif.c ****   netif->name[1] = IFNAME1;
 516:ThirdPackage/lwip_app/ethernetif.c ****   /* We directly use etharp_output() here to save a function call.
 517:ThirdPackage/lwip_app/ethernetif.c ****    * You can instead declare your own function an call etharp_output()
 518:ThirdPackage/lwip_app/ethernetif.c ****    * from it if you have to do some checks before sending (e.g. if link
 519:ThirdPackage/lwip_app/ethernetif.c ****    * is available...) */
 520:ThirdPackage/lwip_app/ethernetif.c **** 
 521:ThirdPackage/lwip_app/ethernetif.c **** #if LWIP_IPV4
 522:ThirdPackage/lwip_app/ethernetif.c **** #if LWIP_ARP || LWIP_ETHERNET
 523:ThirdPackage/lwip_app/ethernetif.c **** #if LWIP_ARP
 524:ThirdPackage/lwip_app/ethernetif.c ****   netif->output = etharp_output;
 525:ThirdPackage/lwip_app/ethernetif.c **** #else
 526:ThirdPackage/lwip_app/ethernetif.c ****   /* The user should write its own code in low_level_output_arp_off function */
 527:ThirdPackage/lwip_app/ethernetif.c ****   netif->output = low_level_output_arp_off;
 528:ThirdPackage/lwip_app/ethernetif.c **** #endif /* LWIP_ARP */
 529:ThirdPackage/lwip_app/ethernetif.c **** #endif /* LWIP_ARP || LWIP_ETHERNET */
 530:ThirdPackage/lwip_app/ethernetif.c **** #endif /* LWIP_IPV4 */
 531:ThirdPackage/lwip_app/ethernetif.c **** 
 532:ThirdPackage/lwip_app/ethernetif.c **** #if LWIP_IPV6
 533:ThirdPackage/lwip_app/ethernetif.c ****   netif->output_ip6 = ethip6_output;
 534:ThirdPackage/lwip_app/ethernetif.c **** #endif /* LWIP_IPV6 */
 535:ThirdPackage/lwip_app/ethernetif.c **** 
 536:ThirdPackage/lwip_app/ethernetif.c ****   netif->linkoutput = low_level_output;
 537:ThirdPackage/lwip_app/ethernetif.c **** 
 538:ThirdPackage/lwip_app/ethernetif.c ****   /* initialize the hardware */
 539:ThirdPackage/lwip_app/ethernetif.c ****   low_level_init(netif);
 540:ThirdPackage/lwip_app/ethernetif.c **** 
 541:ThirdPackage/lwip_app/ethernetif.c ****   return ERR_OK;
 542:ThirdPackage/lwip_app/ethernetif.c **** }
 543:ThirdPackage/lwip_app/ethernetif.c **** 
ARM GAS  C:\Users\86188\AppData\Local\Temp\ccZBSQgi.s 			page 11


 544:ThirdPackage/lwip_app/ethernetif.c **** /**
 545:ThirdPackage/lwip_app/ethernetif.c ****   * @brief  Custom Rx pbuf free callback
 546:ThirdPackage/lwip_app/ethernetif.c ****   * @param  pbuf: pbuf to be freed
 547:ThirdPackage/lwip_app/ethernetif.c ****   * @retval None
 548:ThirdPackage/lwip_app/ethernetif.c ****   */
 549:ThirdPackage/lwip_app/ethernetif.c **** void pbuf_free_custom(struct pbuf *p)
 550:ThirdPackage/lwip_app/ethernetif.c **** {
 551:ThirdPackage/lwip_app/ethernetif.c ****   struct pbuf_custom* custom_pbuf = (struct pbuf_custom*)p;
 552:ThirdPackage/lwip_app/ethernetif.c ****   LWIP_MEMPOOL_FREE(RX_POOL, custom_pbuf);
 553:ThirdPackage/lwip_app/ethernetif.c **** 
 554:ThirdPackage/lwip_app/ethernetif.c ****   /* If the Rx Buffer Pool was exhausted, signal the ethernetif_input task to
 555:ThirdPackage/lwip_app/ethernetif.c ****    * call HAL_ETH_GetRxDataBuffer to rebuild the Rx descriptors. */
 556:ThirdPackage/lwip_app/ethernetif.c **** 
 557:ThirdPackage/lwip_app/ethernetif.c ****   if (RxAllocStatus == RX_ALLOC_ERROR)
 558:ThirdPackage/lwip_app/ethernetif.c ****   {
 559:ThirdPackage/lwip_app/ethernetif.c ****     RxAllocStatus = RX_ALLOC_OK;
 560:ThirdPackage/lwip_app/ethernetif.c ****     xSemaphoreGive(RxPktSemaphore);
 561:ThirdPackage/lwip_app/ethernetif.c ****   }
 562:ThirdPackage/lwip_app/ethernetif.c **** }
 563:ThirdPackage/lwip_app/ethernetif.c **** 
 564:ThirdPackage/lwip_app/ethernetif.c **** /* USER CODE BEGIN 6 */
 565:ThirdPackage/lwip_app/ethernetif.c **** 
 566:ThirdPackage/lwip_app/ethernetif.c **** /**
 567:ThirdPackage/lwip_app/ethernetif.c **** * @brief  Returns the current time in milliseconds
 568:ThirdPackage/lwip_app/ethernetif.c **** *         when LWIP_TIMERS == 1 and NO_SYS == 1
 569:ThirdPackage/lwip_app/ethernetif.c **** * @param  None
 570:ThirdPackage/lwip_app/ethernetif.c **** * @retval Current Time value
 571:ThirdPackage/lwip_app/ethernetif.c **** */
 572:ThirdPackage/lwip_app/ethernetif.c **** u32_t sys_now(void)
 573:ThirdPackage/lwip_app/ethernetif.c **** {
 574:ThirdPackage/lwip_app/ethernetif.c ****   return HAL_GetTick();
 575:ThirdPackage/lwip_app/ethernetif.c **** }
 576:ThirdPackage/lwip_app/ethernetif.c **** 
 577:ThirdPackage/lwip_app/ethernetif.c **** /* USER CODE END 6 */
 578:ThirdPackage/lwip_app/ethernetif.c **** 
 579:ThirdPackage/lwip_app/ethernetif.c **** /**
 580:ThirdPackage/lwip_app/ethernetif.c ****   * @brief  Initializes the ETH MSP.
 581:ThirdPackage/lwip_app/ethernetif.c ****   * @param  ethHandle: ETH handle
 582:ThirdPackage/lwip_app/ethernetif.c ****   * @retval None
 583:ThirdPackage/lwip_app/ethernetif.c ****   */
 584:ThirdPackage/lwip_app/ethernetif.c **** 
 585:ThirdPackage/lwip_app/ethernetif.c **** void HAL_ETH_MspInit(ETH_HandleTypeDef* ethHandle)
 586:ThirdPackage/lwip_app/ethernetif.c **** {
 587:ThirdPackage/lwip_app/ethernetif.c ****   GPIO_InitTypeDef GPIO_InitStruct = {0};
 588:ThirdPackage/lwip_app/ethernetif.c ****   if(ethHandle->Instance==ETH)
 589:ThirdPackage/lwip_app/ethernetif.c ****   {
 590:ThirdPackage/lwip_app/ethernetif.c ****   /* USER CODE BEGIN ETH_MspInit 0 */
 591:ThirdPackage/lwip_app/ethernetif.c **** 
 592:ThirdPackage/lwip_app/ethernetif.c ****   /* USER CODE END ETH_MspInit 0 */
 593:ThirdPackage/lwip_app/ethernetif.c ****     /* Enable Peripheral clock */
 594:ThirdPackage/lwip_app/ethernetif.c ****     __HAL_RCC_ETH_CLK_ENABLE();
 595:ThirdPackage/lwip_app/ethernetif.c **** 
 596:ThirdPackage/lwip_app/ethernetif.c ****     __HAL_RCC_GPIOC_CLK_ENABLE();
 597:ThirdPackage/lwip_app/ethernetif.c ****     __HAL_RCC_GPIOA_CLK_ENABLE();
 598:ThirdPackage/lwip_app/ethernetif.c ****     __HAL_RCC_GPIOB_CLK_ENABLE();
 599:ThirdPackage/lwip_app/ethernetif.c ****     /**ETH GPIO Configuration
 600:ThirdPackage/lwip_app/ethernetif.c ****     PC1     ------> ETH_MDC
ARM GAS  C:\Users\86188\AppData\Local\Temp\ccZBSQgi.s 			page 12


 601:ThirdPackage/lwip_app/ethernetif.c ****     PA1     ------> ETH_REF_CLK
 602:ThirdPackage/lwip_app/ethernetif.c ****     PA2     ------> ETH_MDIO
 603:ThirdPackage/lwip_app/ethernetif.c ****     PA7     ------> ETH_CRS_DV
 604:ThirdPackage/lwip_app/ethernetif.c ****     PC4     ------> ETH_RXD0
 605:ThirdPackage/lwip_app/ethernetif.c ****     PC5     ------> ETH_RXD1
 606:ThirdPackage/lwip_app/ethernetif.c ****     PB11     ------> ETH_TX_EN
 607:ThirdPackage/lwip_app/ethernetif.c ****     PB12     ------> ETH_TXD0
 608:ThirdPackage/lwip_app/ethernetif.c ****     PB13     ------> ETH_TXD1
 609:ThirdPackage/lwip_app/ethernetif.c ****     */
 610:ThirdPackage/lwip_app/ethernetif.c ****     GPIO_InitStruct.Pin = GPIO_PIN_1|GPIO_PIN_4|GPIO_PIN_5;
 611:ThirdPackage/lwip_app/ethernetif.c ****     GPIO_InitStruct.Mode = GPIO_MODE_AF_PP;
 612:ThirdPackage/lwip_app/ethernetif.c ****     GPIO_InitStruct.Pull = GPIO_NOPULL;
 613:ThirdPackage/lwip_app/ethernetif.c ****     GPIO_InitStruct.Speed = GPIO_SPEED_FREQ_VERY_HIGH;
 614:ThirdPackage/lwip_app/ethernetif.c ****     GPIO_InitStruct.Alternate = GPIO_AF11_ETH;
 615:ThirdPackage/lwip_app/ethernetif.c ****     HAL_GPIO_Init(GPIOC, &GPIO_InitStruct);
 616:ThirdPackage/lwip_app/ethernetif.c **** 
 617:ThirdPackage/lwip_app/ethernetif.c ****     GPIO_InitStruct.Pin = GPIO_PIN_1|GPIO_PIN_2|GPIO_PIN_7;
 618:ThirdPackage/lwip_app/ethernetif.c ****     GPIO_InitStruct.Mode = GPIO_MODE_AF_PP;
 619:ThirdPackage/lwip_app/ethernetif.c ****     GPIO_InitStruct.Pull = GPIO_NOPULL;
 620:ThirdPackage/lwip_app/ethernetif.c ****     GPIO_InitStruct.Speed = GPIO_SPEED_FREQ_VERY_HIGH;
 621:ThirdPackage/lwip_app/ethernetif.c ****     GPIO_InitStruct.Alternate = GPIO_AF11_ETH;
 622:ThirdPackage/lwip_app/ethernetif.c ****     HAL_GPIO_Init(GPIOA, &GPIO_InitStruct);
 623:ThirdPackage/lwip_app/ethernetif.c **** 
 624:ThirdPackage/lwip_app/ethernetif.c ****     GPIO_InitStruct.Pin = GPIO_PIN_11|GPIO_PIN_12|GPIO_PIN_13;
 625:ThirdPackage/lwip_app/ethernetif.c ****     GPIO_InitStruct.Mode = GPIO_MODE_AF_PP;
 626:ThirdPackage/lwip_app/ethernetif.c ****     GPIO_InitStruct.Pull = GPIO_NOPULL;
 627:ThirdPackage/lwip_app/ethernetif.c ****     GPIO_InitStruct.Speed = GPIO_SPEED_FREQ_VERY_HIGH;
 628:ThirdPackage/lwip_app/ethernetif.c ****     GPIO_InitStruct.Alternate = GPIO_AF11_ETH;
 629:ThirdPackage/lwip_app/ethernetif.c ****     HAL_GPIO_Init(GPIOB, &GPIO_InitStruct);
 630:ThirdPackage/lwip_app/ethernetif.c **** 
 631:ThirdPackage/lwip_app/ethernetif.c ****     /* Peripheral interrupt init */
 632:ThirdPackage/lwip_app/ethernetif.c ****     HAL_NVIC_SetPriority(ETH_IRQn, 15, 0);
 633:ThirdPackage/lwip_app/ethernetif.c ****     HAL_NVIC_EnableIRQ(ETH_IRQn);
 634:ThirdPackage/lwip_app/ethernetif.c ****   /* USER CODE BEGIN ETH_MspInit 1 */
 635:ThirdPackage/lwip_app/ethernetif.c **** 
 636:ThirdPackage/lwip_app/ethernetif.c ****   /* USER CODE END ETH_MspInit 1 */
 637:ThirdPackage/lwip_app/ethernetif.c ****   }
 638:ThirdPackage/lwip_app/ethernetif.c **** }
 639:ThirdPackage/lwip_app/ethernetif.c **** 
 640:ThirdPackage/lwip_app/ethernetif.c **** void HAL_ETH_MspDeInit(ETH_HandleTypeDef* ethHandle)
 641:ThirdPackage/lwip_app/ethernetif.c **** {
 642:ThirdPackage/lwip_app/ethernetif.c ****   if(ethHandle->Instance==ETH)
 643:ThirdPackage/lwip_app/ethernetif.c ****   {
 644:ThirdPackage/lwip_app/ethernetif.c ****   /* USER CODE BEGIN ETH_MspDeInit 0 */
 645:ThirdPackage/lwip_app/ethernetif.c **** 
 646:ThirdPackage/lwip_app/ethernetif.c ****   /* USER CODE END ETH_MspDeInit 0 */
 647:ThirdPackage/lwip_app/ethernetif.c ****     /* Peripheral clock disable */
 648:ThirdPackage/lwip_app/ethernetif.c ****     __HAL_RCC_ETH_CLK_DISABLE();
 649:ThirdPackage/lwip_app/ethernetif.c **** 
 650:ThirdPackage/lwip_app/ethernetif.c ****     /**ETH GPIO Configuration
 651:ThirdPackage/lwip_app/ethernetif.c ****     PC1     ------> ETH_MDC
 652:ThirdPackage/lwip_app/ethernetif.c ****     PA1     ------> ETH_REF_CLK
 653:ThirdPackage/lwip_app/ethernetif.c ****     PA2     ------> ETH_MDIO
 654:ThirdPackage/lwip_app/ethernetif.c ****     PA7     ------> ETH_CRS_DV
 655:ThirdPackage/lwip_app/ethernetif.c ****     PC4     ------> ETH_RXD0
 656:ThirdPackage/lwip_app/ethernetif.c ****     PC5     ------> ETH_RXD1
 657:ThirdPackage/lwip_app/ethernetif.c ****     PB11     ------> ETH_TX_EN
ARM GAS  C:\Users\86188\AppData\Local\Temp\ccZBSQgi.s 			page 13


 658:ThirdPackage/lwip_app/ethernetif.c ****     PB12     ------> ETH_TXD0
 659:ThirdPackage/lwip_app/ethernetif.c ****     PB13     ------> ETH_TXD1
 660:ThirdPackage/lwip_app/ethernetif.c ****     */
 661:ThirdPackage/lwip_app/ethernetif.c ****     HAL_GPIO_DeInit(GPIOC, GPIO_PIN_1|GPIO_PIN_4|GPIO_PIN_5);
 662:ThirdPackage/lwip_app/ethernetif.c **** 
 663:ThirdPackage/lwip_app/ethernetif.c ****     HAL_GPIO_DeInit(GPIOA, GPIO_PIN_1|GPIO_PIN_2|GPIO_PIN_7);
 664:ThirdPackage/lwip_app/ethernetif.c **** 
 665:ThirdPackage/lwip_app/ethernetif.c ****     HAL_GPIO_DeInit(GPIOB, GPIO_PIN_11|GPIO_PIN_12|GPIO_PIN_13);
 666:ThirdPackage/lwip_app/ethernetif.c **** 
 667:ThirdPackage/lwip_app/ethernetif.c ****     /* Peripheral interrupt Deinit*/
 668:ThirdPackage/lwip_app/ethernetif.c ****     HAL_NVIC_DisableIRQ(ETH_IRQn);
 669:ThirdPackage/lwip_app/ethernetif.c **** 
 670:ThirdPackage/lwip_app/ethernetif.c ****   /* USER CODE BEGIN ETH_MspDeInit 1 */
 671:ThirdPackage/lwip_app/ethernetif.c **** 
 672:ThirdPackage/lwip_app/ethernetif.c ****   /* USER CODE END ETH_MspDeInit 1 */
 673:ThirdPackage/lwip_app/ethernetif.c ****   }
 674:ThirdPackage/lwip_app/ethernetif.c **** }
 675:ThirdPackage/lwip_app/ethernetif.c **** 
 676:ThirdPackage/lwip_app/ethernetif.c **** /*******************************************************************************
 677:ThirdPackage/lwip_app/ethernetif.c ****                        PHI IO Functions
 678:ThirdPackage/lwip_app/ethernetif.c **** *******************************************************************************/
 679:ThirdPackage/lwip_app/ethernetif.c **** /**
 680:ThirdPackage/lwip_app/ethernetif.c ****   * @brief  Initializes the MDIO interface GPIO and clocks.
 681:ThirdPackage/lwip_app/ethernetif.c ****   * @param  None
 682:ThirdPackage/lwip_app/ethernetif.c ****   * @retval 0 if OK, -1 if ERROR
 683:ThirdPackage/lwip_app/ethernetif.c ****   */
 684:ThirdPackage/lwip_app/ethernetif.c **** int32_t ETH_PHY_IO_Init(void)
 685:ThirdPackage/lwip_app/ethernetif.c **** {
 686:ThirdPackage/lwip_app/ethernetif.c ****   /* We assume that MDIO GPIO configuration is already done
 687:ThirdPackage/lwip_app/ethernetif.c ****      in the ETH_MspInit() else it should be done here
 688:ThirdPackage/lwip_app/ethernetif.c ****   */
 689:ThirdPackage/lwip_app/ethernetif.c **** 
 690:ThirdPackage/lwip_app/ethernetif.c ****   /* Configure the MDIO Clock */
 691:ThirdPackage/lwip_app/ethernetif.c ****   HAL_ETH_SetMDIOClockRange(&heth);
 692:ThirdPackage/lwip_app/ethernetif.c **** 
 693:ThirdPackage/lwip_app/ethernetif.c ****   return 0;
 694:ThirdPackage/lwip_app/ethernetif.c **** }
 695:ThirdPackage/lwip_app/ethernetif.c **** 
 696:ThirdPackage/lwip_app/ethernetif.c **** /**
 697:ThirdPackage/lwip_app/ethernetif.c ****   * @brief  De-Initializes the MDIO interface .
 698:ThirdPackage/lwip_app/ethernetif.c ****   * @param  None
 699:ThirdPackage/lwip_app/ethernetif.c ****   * @retval 0 if OK, -1 if ERROR
 700:ThirdPackage/lwip_app/ethernetif.c ****   */
 701:ThirdPackage/lwip_app/ethernetif.c **** int32_t ETH_PHY_IO_DeInit (void)
 702:ThirdPackage/lwip_app/ethernetif.c **** {
  29              		.loc 1 702 1 view -0
  30              		.cfi_startproc
  31              		@ args = 0, pretend = 0, frame = 0
  32              		@ frame_needed = 0, uses_anonymous_args = 0
  33              		@ link register save eliminated.
 703:ThirdPackage/lwip_app/ethernetif.c ****   return 0;
  34              		.loc 1 703 3 view .LVU1
 704:ThirdPackage/lwip_app/ethernetif.c **** }
  35              		.loc 1 704 1 is_stmt 0 view .LVU2
  36 0000 0020     		movs	r0, #0
  37 0002 7047     		bx	lr
  38              		.cfi_endproc
ARM GAS  C:\Users\86188\AppData\Local\Temp\ccZBSQgi.s 			page 14


  39              	.LFE173:
  41              		.section	.text.low_level_input,"ax",%progbits
  42              		.align	1
  43              		.syntax unified
  44              		.thumb
  45              		.thumb_func
  47              	low_level_input:
  48              	.LVL0:
  49              	.LFB165:
 420:ThirdPackage/lwip_app/ethernetif.c ****   struct pbuf *p = NULL;
  50              		.loc 1 420 1 is_stmt 1 view -0
  51              		.cfi_startproc
  52              		@ args = 0, pretend = 0, frame = 8
  53              		@ frame_needed = 0, uses_anonymous_args = 0
 420:ThirdPackage/lwip_app/ethernetif.c ****   struct pbuf *p = NULL;
  54              		.loc 1 420 1 is_stmt 0 view .LVU4
  55 0000 00B5     		push	{lr}
  56              	.LCFI0:
  57              		.cfi_def_cfa_offset 4
  58              		.cfi_offset 14, -4
  59 0002 83B0     		sub	sp, sp, #12
  60              	.LCFI1:
  61              		.cfi_def_cfa_offset 16
 421:ThirdPackage/lwip_app/ethernetif.c **** 
  62              		.loc 1 421 3 is_stmt 1 view .LVU5
 421:ThirdPackage/lwip_app/ethernetif.c **** 
  63              		.loc 1 421 16 is_stmt 0 view .LVU6
  64 0004 0023     		movs	r3, #0
  65 0006 0193     		str	r3, [sp, #4]
 423:ThirdPackage/lwip_app/ethernetif.c ****   {
  66              		.loc 1 423 3 is_stmt 1 view .LVU7
 423:ThirdPackage/lwip_app/ethernetif.c ****   {
  67              		.loc 1 423 20 is_stmt 0 view .LVU8
  68 0008 054B     		ldr	r3, .L6
  69 000a 1B78     		ldrb	r3, [r3]	@ zero_extendqisi2
 423:ThirdPackage/lwip_app/ethernetif.c ****   {
  70              		.loc 1 423 5 view .LVU9
  71 000c 1BB1     		cbz	r3, .L5
  72              	.LVL1:
  73              	.L3:
 428:ThirdPackage/lwip_app/ethernetif.c **** }
  74              		.loc 1 428 3 is_stmt 1 view .LVU10
 429:ThirdPackage/lwip_app/ethernetif.c **** 
  75              		.loc 1 429 1 is_stmt 0 view .LVU11
  76 000e 0198     		ldr	r0, [sp, #4]
  77 0010 03B0     		add	sp, sp, #12
  78              	.LCFI2:
  79              		.cfi_remember_state
  80              		.cfi_def_cfa_offset 4
  81              		@ sp needed
  82 0012 5DF804FB 		ldr	pc, [sp], #4
  83              	.LVL2:
  84              	.L5:
  85              	.LCFI3:
  86              		.cfi_restore_state
 425:ThirdPackage/lwip_app/ethernetif.c ****   }
  87              		.loc 1 425 5 is_stmt 1 view .LVU12
ARM GAS  C:\Users\86188\AppData\Local\Temp\ccZBSQgi.s 			page 15


  88 0016 01A9     		add	r1, sp, #4
  89 0018 0248     		ldr	r0, .L6+4
  90              	.LVL3:
 425:ThirdPackage/lwip_app/ethernetif.c ****   }
  91              		.loc 1 425 5 is_stmt 0 view .LVU13
  92 001a FFF7FEFF 		bl	HAL_ETH_ReadData
  93              	.LVL4:
  94 001e F6E7     		b	.L3
  95              	.L7:
  96              		.align	2
  97              	.L6:
  98 0020 00000000 		.word	.LANCHOR0
  99 0024 00000000 		.word	.LANCHOR1
 100              		.cfi_endproc
 101              	.LFE165:
 103              		.section	.text.ethernetif_input,"ax",%progbits
 104              		.align	1
 105              		.global	ethernetif_input
 106              		.syntax unified
 107              		.thumb
 108              		.thumb_func
 110              	ethernetif_input:
 111              	.LFB166:
 442:ThirdPackage/lwip_app/ethernetif.c ****   struct pbuf *p = NULL;
 112              		.loc 1 442 1 is_stmt 1 view -0
 113              		.cfi_startproc
 114              		@ args = 0, pretend = 0, frame = 0
 115              		@ frame_needed = 0, uses_anonymous_args = 0
 116              	.LVL5:
 442:ThirdPackage/lwip_app/ethernetif.c ****   struct pbuf *p = NULL;
 117              		.loc 1 442 1 is_stmt 0 view .LVU15
 118 0000 10B5     		push	{r4, lr}
 119              	.LCFI4:
 120              		.cfi_def_cfa_offset 8
 121              		.cfi_offset 4, -8
 122              		.cfi_offset 14, -4
 123              	.LVL6:
 124              	.L9:
 446:ThirdPackage/lwip_app/ethernetif.c ****   {
 125              		.loc 1 446 3 is_stmt 1 view .LVU16
 448:ThirdPackage/lwip_app/ethernetif.c ****     {
 126              		.loc 1 448 5 view .LVU17
 448:ThirdPackage/lwip_app/ethernetif.c ****     {
 127              		.loc 1 448 9 is_stmt 0 view .LVU18
 128 0002 4FF0FF31 		mov	r1, #-1
 129 0006 0C4B     		ldr	r3, .L14
 130 0008 1868     		ldr	r0, [r3]
 131 000a FFF7FEFF 		bl	xQueueSemaphoreTake
 132              	.LVL7:
 448:ThirdPackage/lwip_app/ethernetif.c ****     {
 133              		.loc 1 448 8 view .LVU19
 134 000e 0128     		cmp	r0, #1
 135 0010 F7D1     		bne	.L9
 136 0012 01E0     		b	.L11
 137              	.LVL8:
 138              	.L10:
 460:ThirdPackage/lwip_app/ethernetif.c ****     }
ARM GAS  C:\Users\86188\AppData\Local\Temp\ccZBSQgi.s 			page 16


 139              		.loc 1 460 14 is_stmt 1 view .LVU20
 460:ThirdPackage/lwip_app/ethernetif.c ****     }
 140              		.loc 1 460 7 is_stmt 0 view .LVU21
 141 0014 002C     		cmp	r4, #0
 142 0016 F4D0     		beq	.L9
 143              	.LVL9:
 144              	.L11:
 450:ThirdPackage/lwip_app/ethernetif.c ****       {
 145              		.loc 1 450 7 is_stmt 1 view .LVU22
 452:ThirdPackage/lwip_app/ethernetif.c ****         if (p != NULL)
 146              		.loc 1 452 9 view .LVU23
 452:ThirdPackage/lwip_app/ethernetif.c ****         if (p != NULL)
 147              		.loc 1 452 13 is_stmt 0 view .LVU24
 148 0018 0848     		ldr	r0, .L14+4
 149 001a FFF7FEFF 		bl	low_level_input
 150              	.LVL10:
 453:ThirdPackage/lwip_app/ethernetif.c ****         {
 151              		.loc 1 453 9 is_stmt 1 view .LVU25
 453:ThirdPackage/lwip_app/ethernetif.c ****         {
 152              		.loc 1 453 12 is_stmt 0 view .LVU26
 153 001e 0446     		mov	r4, r0
 154 0020 0028     		cmp	r0, #0
 155 0022 F7D0     		beq	.L10
 455:ThirdPackage/lwip_app/ethernetif.c ****           {
 156              		.loc 1 455 11 is_stmt 1 view .LVU27
 455:ThirdPackage/lwip_app/ethernetif.c ****           {
 157              		.loc 1 455 20 is_stmt 0 view .LVU28
 158 0024 0549     		ldr	r1, .L14+4
 159 0026 0B69     		ldr	r3, [r1, #16]
 455:ThirdPackage/lwip_app/ethernetif.c ****           {
 160              		.loc 1 455 15 view .LVU29
 161 0028 9847     		blx	r3
 162              	.LVL11:
 455:ThirdPackage/lwip_app/ethernetif.c ****           {
 163              		.loc 1 455 14 view .LVU30
 164 002a 0028     		cmp	r0, #0
 165 002c F2D0     		beq	.L10
 457:ThirdPackage/lwip_app/ethernetif.c ****           }
 166              		.loc 1 457 13 is_stmt 1 view .LVU31
 167 002e 2046     		mov	r0, r4
 168 0030 FFF7FEFF 		bl	pbuf_free
 169              	.LVL12:
 170 0034 EEE7     		b	.L10
 171              	.L15:
 172 0036 00BF     		.align	2
 173              	.L14:
 174 0038 00000000 		.word	.LANCHOR2
 175 003c 00000000 		.word	gnetif
 176              		.cfi_endproc
 177              	.LFE166:
 179              		.section	.text.low_level_output,"ax",%progbits
 180              		.align	1
 181              		.syntax unified
 182              		.thumb
 183              		.thumb_func
 185              	low_level_output:
 186              	.LVL13:
ARM GAS  C:\Users\86188\AppData\Local\Temp\ccZBSQgi.s 			page 17


 187              	.LFB164:
 364:ThirdPackage/lwip_app/ethernetif.c ****   uint32_t i = 0U;
 188              		.loc 1 364 1 view -0
 189              		.cfi_startproc
 190              		@ args = 0, pretend = 0, frame = 48
 191              		@ frame_needed = 0, uses_anonymous_args = 0
 364:ThirdPackage/lwip_app/ethernetif.c ****   uint32_t i = 0U;
 192              		.loc 1 364 1 is_stmt 0 view .LVU33
 193 0000 30B5     		push	{r4, r5, lr}
 194              	.LCFI5:
 195              		.cfi_def_cfa_offset 12
 196              		.cfi_offset 4, -12
 197              		.cfi_offset 5, -8
 198              		.cfi_offset 14, -4
 199 0002 8DB0     		sub	sp, sp, #52
 200              	.LCFI6:
 201              		.cfi_def_cfa_offset 64
 202 0004 0C46     		mov	r4, r1
 365:ThirdPackage/lwip_app/ethernetif.c ****   struct pbuf *q = NULL;
 203              		.loc 1 365 3 is_stmt 1 view .LVU34
 204              	.LVL14:
 366:ThirdPackage/lwip_app/ethernetif.c ****   err_t errval = ERR_OK;
 205              		.loc 1 366 3 view .LVU35
 367:ThirdPackage/lwip_app/ethernetif.c ****   ETH_BufferTypeDef Txbuffer[ETH_TX_DESC_CNT] = {0};
 206              		.loc 1 367 3 view .LVU36
 368:ThirdPackage/lwip_app/ethernetif.c **** 
 207              		.loc 1 368 3 view .LVU37
 368:ThirdPackage/lwip_app/ethernetif.c **** 
 208              		.loc 1 368 21 is_stmt 0 view .LVU38
 209 0006 3025     		movs	r5, #48
 210 0008 2A46     		mov	r2, r5
 211 000a 0021     		movs	r1, #0
 212              	.LVL15:
 368:ThirdPackage/lwip_app/ethernetif.c **** 
 213              		.loc 1 368 21 view .LVU39
 214 000c 6846     		mov	r0, sp
 215              	.LVL16:
 368:ThirdPackage/lwip_app/ethernetif.c **** 
 216              		.loc 1 368 21 view .LVU40
 217 000e FFF7FEFF 		bl	memset
 218              	.LVL17:
 370:ThirdPackage/lwip_app/ethernetif.c **** 
 219              		.loc 1 370 3 is_stmt 1 view .LVU41
 220 0012 2A46     		mov	r2, r5
 221 0014 0021     		movs	r1, #0
 222 0016 6846     		mov	r0, sp
 223 0018 FFF7FEFF 		bl	memset
 224              	.LVL18:
 372:ThirdPackage/lwip_app/ethernetif.c ****   {
 225              		.loc 1 372 3 view .LVU42
 372:ThirdPackage/lwip_app/ethernetif.c ****   {
 226              		.loc 1 372 9 is_stmt 0 view .LVU43
 227 001c 2246     		mov	r2, r4
 365:ThirdPackage/lwip_app/ethernetif.c ****   struct pbuf *q = NULL;
 228              		.loc 1 365 12 view .LVU44
 229 001e 0023     		movs	r3, #0
 372:ThirdPackage/lwip_app/ethernetif.c ****   {
ARM GAS  C:\Users\86188\AppData\Local\Temp\ccZBSQgi.s 			page 18


 230              		.loc 1 372 3 view .LVU45
 231 0020 03E0     		b	.L17
 232              	.LVL19:
 233              	.L19:
 385:ThirdPackage/lwip_app/ethernetif.c ****     {
 234              		.loc 1 385 5 is_stmt 1 view .LVU46
 385:ThirdPackage/lwip_app/ethernetif.c ****     {
 235              		.loc 1 385 9 is_stmt 0 view .LVU47
 236 0022 1168     		ldr	r1, [r2]
 385:ThirdPackage/lwip_app/ethernetif.c ****     {
 237              		.loc 1 385 7 view .LVU48
 238 0024 F1B1     		cbz	r1, .L25
 239              	.L20:
 390:ThirdPackage/lwip_app/ethernetif.c ****   }
 240              		.loc 1 390 5 is_stmt 1 discriminator 2 view .LVU49
 390:ThirdPackage/lwip_app/ethernetif.c ****   }
 241              		.loc 1 390 6 is_stmt 0 discriminator 2 view .LVU50
 242 0026 0133     		adds	r3, r3, #1
 243              	.LVL20:
 372:ThirdPackage/lwip_app/ethernetif.c ****   {
 244              		.loc 1 372 25 is_stmt 1 discriminator 2 view .LVU51
 372:ThirdPackage/lwip_app/ethernetif.c ****   {
 245              		.loc 1 372 27 is_stmt 0 discriminator 2 view .LVU52
 246 0028 1268     		ldr	r2, [r2]
 247              	.LVL21:
 248              	.L17:
 372:ThirdPackage/lwip_app/ethernetif.c ****   {
 249              		.loc 1 372 14 is_stmt 1 discriminator 1 view .LVU53
 372:ThirdPackage/lwip_app/ethernetif.c ****   {
 250              		.loc 1 372 3 is_stmt 0 discriminator 1 view .LVU54
 251 002a 22B3     		cbz	r2, .L26
 374:ThirdPackage/lwip_app/ethernetif.c ****       return ERR_IF;
 252              		.loc 1 374 5 is_stmt 1 view .LVU55
 374:ThirdPackage/lwip_app/ethernetif.c ****       return ERR_IF;
 253              		.loc 1 374 7 is_stmt 0 view .LVU56
 254 002c 032B     		cmp	r3, #3
 255 002e 3CD8     		bhi	.L23
 377:ThirdPackage/lwip_app/ethernetif.c ****     Txbuffer[i].len = q->len;
 256              		.loc 1 377 5 is_stmt 1 view .LVU57
 377:ThirdPackage/lwip_app/ethernetif.c ****     Txbuffer[i].len = q->len;
 257              		.loc 1 377 27 is_stmt 0 view .LVU58
 258 0030 5168     		ldr	r1, [r2, #4]
 377:ThirdPackage/lwip_app/ethernetif.c ****     Txbuffer[i].len = q->len;
 259              		.loc 1 377 24 view .LVU59
 260 0032 03EB430C 		add	ip, r3, r3, lsl #1
 261 0036 0CA8     		add	r0, sp, #48
 262 0038 00EB8C0C 		add	ip, r0, ip, lsl #2
 263 003c 4CF8301C 		str	r1, [ip, #-48]
 378:ThirdPackage/lwip_app/ethernetif.c **** 
 264              		.loc 1 378 5 is_stmt 1 view .LVU60
 378:ThirdPackage/lwip_app/ethernetif.c **** 
 265              		.loc 1 378 24 is_stmt 0 view .LVU61
 266 0040 5189     		ldrh	r1, [r2, #10]
 378:ThirdPackage/lwip_app/ethernetif.c **** 
 267              		.loc 1 378 21 view .LVU62
 268 0042 4CF82C1C 		str	r1, [ip, #-44]
 380:ThirdPackage/lwip_app/ethernetif.c ****     {
ARM GAS  C:\Users\86188\AppData\Local\Temp\ccZBSQgi.s 			page 19


 269              		.loc 1 380 5 is_stmt 1 view .LVU63
 380:ThirdPackage/lwip_app/ethernetif.c ****     {
 270              		.loc 1 380 7 is_stmt 0 view .LVU64
 271 0046 002B     		cmp	r3, #0
 272 0048 EBD0     		beq	.L19
 382:ThirdPackage/lwip_app/ethernetif.c ****     }
 273              		.loc 1 382 7 is_stmt 1 view .LVU65
 382:ThirdPackage/lwip_app/ethernetif.c ****     }
 274              		.loc 1 382 17 is_stmt 0 view .LVU66
 275 004a 03F1FF3C 		add	ip, r3, #-1
 382:ThirdPackage/lwip_app/ethernetif.c ****     }
 276              		.loc 1 382 28 view .LVU67
 277 004e 03EB4301 		add	r1, r3, r3, lsl #1
 278 0052 0DEB8101 		add	r1, sp, r1, lsl #2
 382:ThirdPackage/lwip_app/ethernetif.c ****     }
 279              		.loc 1 382 26 view .LVU68
 280 0056 0CEB4C0C 		add	ip, ip, ip, lsl #1
 281 005a 00EB8C0C 		add	ip, r0, ip, lsl #2
 282 005e 4CF8281C 		str	r1, [ip, #-40]
 283 0062 DEE7     		b	.L19
 284              	.L25:
 387:ThirdPackage/lwip_app/ethernetif.c ****     }
 285              		.loc 1 387 7 is_stmt 1 view .LVU69
 387:ThirdPackage/lwip_app/ethernetif.c ****     }
 286              		.loc 1 387 24 is_stmt 0 view .LVU70
 287 0064 03EB4301 		add	r1, r3, r3, lsl #1
 288 0068 0CA8     		add	r0, sp, #48
 289 006a 00EB8101 		add	r1, r0, r1, lsl #2
 290 006e 0020     		movs	r0, #0
 291 0070 41F8280C 		str	r0, [r1, #-40]
 292 0074 D7E7     		b	.L20
 293              	.L26:
 393:ThirdPackage/lwip_app/ethernetif.c ****   TxConfig.TxBuffer = Txbuffer;
 294              		.loc 1 393 3 is_stmt 1 view .LVU71
 393:ThirdPackage/lwip_app/ethernetif.c ****   TxConfig.TxBuffer = Txbuffer;
 295              		.loc 1 393 22 is_stmt 0 view .LVU72
 296 0076 2389     		ldrh	r3, [r4, #8]
 297              	.LVL22:
 393:ThirdPackage/lwip_app/ethernetif.c ****   TxConfig.TxBuffer = Txbuffer;
 298              		.loc 1 393 19 view .LVU73
 299 0078 0E4D     		ldr	r5, .L27
 300 007a 6B60     		str	r3, [r5, #4]
 394:ThirdPackage/lwip_app/ethernetif.c ****   TxConfig.pData = p;
 301              		.loc 1 394 3 is_stmt 1 view .LVU74
 394:ThirdPackage/lwip_app/ethernetif.c ****   TxConfig.pData = p;
 302              		.loc 1 394 21 is_stmt 0 view .LVU75
 303 007c C5F808D0 		str	sp, [r5, #8]
 395:ThirdPackage/lwip_app/ethernetif.c **** 
 304              		.loc 1 395 3 is_stmt 1 view .LVU76
 395:ThirdPackage/lwip_app/ethernetif.c **** 
 305              		.loc 1 395 18 is_stmt 0 view .LVU77
 306 0080 6C63     		str	r4, [r5, #52]
 397:ThirdPackage/lwip_app/ethernetif.c **** 
 307              		.loc 1 397 3 is_stmt 1 view .LVU78
 308 0082 2046     		mov	r0, r4
 309 0084 FFF7FEFF 		bl	pbuf_ref
 310              	.LVL23:
ARM GAS  C:\Users\86188\AppData\Local\Temp\ccZBSQgi.s 			page 20


 400:ThirdPackage/lwip_app/ethernetif.c ****   // xSemaphoreTake(TxPktSemaphore, TIME_WAITING_FOR_INPUT);
 311              		.loc 1 400 3 view .LVU79
 312 0088 2946     		mov	r1, r5
 313 008a 0B48     		ldr	r0, .L27+4
 314 008c FFF7FEFF 		bl	HAL_ETH_Transmit_IT
 315              	.LVL24:
 402:ThirdPackage/lwip_app/ethernetif.c ****   {
 316              		.loc 1 402 3 view .LVU80
 317              	.L22:
 404:ThirdPackage/lwip_app/ethernetif.c **** 
 318              		.loc 1 404 3 discriminator 1 view .LVU81
 402:ThirdPackage/lwip_app/ethernetif.c ****   {
 319              		.loc 1 402 8 discriminator 1 view .LVU82
 402:ThirdPackage/lwip_app/ethernetif.c ****   {
 320              		.loc 1 402 9 is_stmt 0 discriminator 1 view .LVU83
 321 0090 4FF0FF31 		mov	r1, #-1
 322 0094 094B     		ldr	r3, .L27+8
 323 0096 1868     		ldr	r0, [r3]
 324 0098 FFF7FEFF 		bl	xQueueSemaphoreTake
 325              	.LVL25:
 402:ThirdPackage/lwip_app/ethernetif.c ****   {
 326              		.loc 1 402 8 discriminator 1 view .LVU84
 327 009c 0128     		cmp	r0, #1
 328 009e F7D1     		bne	.L22
 406:ThirdPackage/lwip_app/ethernetif.c **** 
 329              		.loc 1 406 3 is_stmt 1 view .LVU85
 330 00a0 0548     		ldr	r0, .L27+4
 331 00a2 FFF7FEFF 		bl	HAL_ETH_ReleaseTxPacket
 332              	.LVL26:
 408:ThirdPackage/lwip_app/ethernetif.c **** }
 333              		.loc 1 408 3 view .LVU86
 408:ThirdPackage/lwip_app/ethernetif.c **** }
 334              		.loc 1 408 10 is_stmt 0 view .LVU87
 335 00a6 0020     		movs	r0, #0
 336 00a8 01E0     		b	.L18
 337              	.LVL27:
 338              	.L23:
 375:ThirdPackage/lwip_app/ethernetif.c **** 
 339              		.loc 1 375 14 view .LVU88
 340 00aa 6FF00B00 		mvn	r0, #11
 341              	.LVL28:
 342              	.L18:
 409:ThirdPackage/lwip_app/ethernetif.c **** 
 343              		.loc 1 409 1 view .LVU89
 344 00ae 0DB0     		add	sp, sp, #52
 345              	.LCFI7:
 346              		.cfi_def_cfa_offset 12
 347              		@ sp needed
 348 00b0 30BD     		pop	{r4, r5, pc}
 349              	.LVL29:
 350              	.L28:
 409:ThirdPackage/lwip_app/ethernetif.c **** 
 351              		.loc 1 409 1 view .LVU90
 352 00b2 00BF     		.align	2
 353              	.L27:
 354 00b4 00000000 		.word	.LANCHOR3
 355 00b8 00000000 		.word	.LANCHOR1
ARM GAS  C:\Users\86188\AppData\Local\Temp\ccZBSQgi.s 			page 21


 356 00bc 00000000 		.word	.LANCHOR4
 357              		.cfi_endproc
 358              	.LFE164:
 360              		.section	.rodata.low_level_init.str1.4,"aMS",%progbits,1
 361              		.align	2
 362              	.LC0:
 363 0000 45746849 		.ascii	"EthIf\000"
 363      6600
 364              		.section	.text.low_level_init,"ax",%progbits
 365              		.align	1
 366              		.syntax unified
 367              		.thumb
 368              		.thumb_func
 370              	low_level_init:
 371              	.LVL30:
 372              	.LFB163:
 194:ThirdPackage/lwip_app/ethernetif.c ****   HAL_StatusTypeDef hal_eth_init_status = HAL_OK;
 373              		.loc 1 194 1 is_stmt 1 view -0
 374              		.cfi_startproc
 375              		@ args = 0, pretend = 0, frame = 112
 376              		@ frame_needed = 0, uses_anonymous_args = 0
 194:ThirdPackage/lwip_app/ethernetif.c ****   HAL_StatusTypeDef hal_eth_init_status = HAL_OK;
 377              		.loc 1 194 1 is_stmt 0 view .LVU92
 378 0000 2DE9F041 		push	{r4, r5, r6, r7, r8, lr}
 379              	.LCFI8:
 380              		.cfi_def_cfa_offset 24
 381              		.cfi_offset 4, -24
 382              		.cfi_offset 5, -20
 383              		.cfi_offset 6, -16
 384              		.cfi_offset 7, -12
 385              		.cfi_offset 8, -8
 386              		.cfi_offset 14, -4
 387 0004 9EB0     		sub	sp, sp, #120
 388              	.LCFI9:
 389              		.cfi_def_cfa_offset 144
 390 0006 0546     		mov	r5, r0
 195:ThirdPackage/lwip_app/ethernetif.c ****   uint32_t duplex, speed = 0;
 391              		.loc 1 195 3 is_stmt 1 view .LVU93
 392              	.LVL31:
 196:ThirdPackage/lwip_app/ethernetif.c ****   int32_t PHYLinkState = 0;
 393              		.loc 1 196 3 view .LVU94
 197:ThirdPackage/lwip_app/ethernetif.c ****   ETH_MACConfigTypeDef MACConf = {0};
 394              		.loc 1 197 3 view .LVU95
 198:ThirdPackage/lwip_app/ethernetif.c ****   /* Start ETH HAL Init */
 395              		.loc 1 198 3 view .LVU96
 198:ThirdPackage/lwip_app/ethernetif.c ****   /* Start ETH HAL Init */
 396              		.loc 1 198 24 is_stmt 0 view .LVU97
 397 0008 6422     		movs	r2, #100
 398 000a 0021     		movs	r1, #0
 399 000c 05A8     		add	r0, sp, #20
 400              	.LVL32:
 198:ThirdPackage/lwip_app/ethernetif.c ****   /* Start ETH HAL Init */
 401              		.loc 1 198 24 view .LVU98
 402 000e FFF7FEFF 		bl	memset
 403              	.LVL33:
 201:ThirdPackage/lwip_app/ethernetif.c ****   heth.Instance = ETH;
 404              		.loc 1 201 4 is_stmt 1 view .LVU99
ARM GAS  C:\Users\86188\AppData\Local\Temp\ccZBSQgi.s 			page 22


 202:ThirdPackage/lwip_app/ethernetif.c ****   MACAddr[0] = 0x00;
 405              		.loc 1 202 3 view .LVU100
 202:ThirdPackage/lwip_app/ethernetif.c ****   MACAddr[0] = 0x00;
 406              		.loc 1 202 17 is_stmt 0 view .LVU101
 407 0012 5D4E     		ldr	r6, .L40
 408 0014 5D4B     		ldr	r3, .L40+4
 409 0016 3360     		str	r3, [r6]
 203:ThirdPackage/lwip_app/ethernetif.c ****   MACAddr[1] = 0x80;
 410              		.loc 1 203 3 is_stmt 1 view .LVU102
 203:ThirdPackage/lwip_app/ethernetif.c ****   MACAddr[1] = 0x80;
 411              		.loc 1 203 14 is_stmt 0 view .LVU103
 412 0018 0024     		movs	r4, #0
 413 001a 8DF80C40 		strb	r4, [sp, #12]
 204:ThirdPackage/lwip_app/ethernetif.c ****   MACAddr[2] = 0xE1;
 414              		.loc 1 204 3 is_stmt 1 view .LVU104
 204:ThirdPackage/lwip_app/ethernetif.c ****   MACAddr[2] = 0xE1;
 415              		.loc 1 204 14 is_stmt 0 view .LVU105
 416 001e 8023     		movs	r3, #128
 417 0020 8DF80D30 		strb	r3, [sp, #13]
 205:ThirdPackage/lwip_app/ethernetif.c ****   MACAddr[3] = 0x00;
 418              		.loc 1 205 3 is_stmt 1 view .LVU106
 205:ThirdPackage/lwip_app/ethernetif.c ****   MACAddr[3] = 0x00;
 419              		.loc 1 205 14 is_stmt 0 view .LVU107
 420 0024 E123     		movs	r3, #225
 421 0026 8DF80E30 		strb	r3, [sp, #14]
 206:ThirdPackage/lwip_app/ethernetif.c ****   MACAddr[4] = 0x00;
 422              		.loc 1 206 3 is_stmt 1 view .LVU108
 206:ThirdPackage/lwip_app/ethernetif.c ****   MACAddr[4] = 0x00;
 423              		.loc 1 206 14 is_stmt 0 view .LVU109
 424 002a 8DF80F40 		strb	r4, [sp, #15]
 207:ThirdPackage/lwip_app/ethernetif.c ****   MACAddr[5] = 0x00;
 425              		.loc 1 207 3 is_stmt 1 view .LVU110
 207:ThirdPackage/lwip_app/ethernetif.c ****   MACAddr[5] = 0x00;
 426              		.loc 1 207 14 is_stmt 0 view .LVU111
 427 002e 8DF81040 		strb	r4, [sp, #16]
 208:ThirdPackage/lwip_app/ethernetif.c ****   heth.Init.MACAddr = &MACAddr[0];
 428              		.loc 1 208 3 is_stmt 1 view .LVU112
 208:ThirdPackage/lwip_app/ethernetif.c ****   heth.Init.MACAddr = &MACAddr[0];
 429              		.loc 1 208 14 is_stmt 0 view .LVU113
 430 0032 8DF81140 		strb	r4, [sp, #17]
 209:ThirdPackage/lwip_app/ethernetif.c ****   heth.Init.MediaInterface = HAL_ETH_RMII_MODE;
 431              		.loc 1 209 3 is_stmt 1 view .LVU114
 209:ThirdPackage/lwip_app/ethernetif.c ****   heth.Init.MediaInterface = HAL_ETH_RMII_MODE;
 432              		.loc 1 209 21 is_stmt 0 view .LVU115
 433 0036 03AB     		add	r3, sp, #12
 434 0038 7360     		str	r3, [r6, #4]
 210:ThirdPackage/lwip_app/ethernetif.c ****   heth.Init.TxDesc = DMATxDscrTab;
 435              		.loc 1 210 3 is_stmt 1 view .LVU116
 210:ThirdPackage/lwip_app/ethernetif.c ****   heth.Init.TxDesc = DMATxDscrTab;
 436              		.loc 1 210 28 is_stmt 0 view .LVU117
 437 003a 4FF40003 		mov	r3, #8388608
 438 003e B360     		str	r3, [r6, #8]
 211:ThirdPackage/lwip_app/ethernetif.c ****   heth.Init.RxDesc = DMARxDscrTab;
 439              		.loc 1 211 3 is_stmt 1 view .LVU118
 211:ThirdPackage/lwip_app/ethernetif.c ****   heth.Init.RxDesc = DMARxDscrTab;
 440              		.loc 1 211 20 is_stmt 0 view .LVU119
 441 0040 534B     		ldr	r3, .L40+8
ARM GAS  C:\Users\86188\AppData\Local\Temp\ccZBSQgi.s 			page 23


 442 0042 F360     		str	r3, [r6, #12]
 212:ThirdPackage/lwip_app/ethernetif.c ****   heth.Init.RxBuffLen = 1536;
 443              		.loc 1 212 3 is_stmt 1 view .LVU120
 212:ThirdPackage/lwip_app/ethernetif.c ****   heth.Init.RxBuffLen = 1536;
 444              		.loc 1 212 20 is_stmt 0 view .LVU121
 445 0044 534B     		ldr	r3, .L40+12
 446 0046 3361     		str	r3, [r6, #16]
 213:ThirdPackage/lwip_app/ethernetif.c **** 
 447              		.loc 1 213 3 is_stmt 1 view .LVU122
 213:ThirdPackage/lwip_app/ethernetif.c **** 
 448              		.loc 1 213 23 is_stmt 0 view .LVU123
 449 0048 4FF4C063 		mov	r3, #1536
 450 004c 7361     		str	r3, [r6, #20]
 219:ThirdPackage/lwip_app/ethernetif.c **** 
 451              		.loc 1 219 3 is_stmt 1 view .LVU124
 219:ThirdPackage/lwip_app/ethernetif.c **** 
 452              		.loc 1 219 25 is_stmt 0 view .LVU125
 453 004e 3046     		mov	r0, r6
 454 0050 FFF7FEFF 		bl	HAL_ETH_Init
 455              	.LVL34:
 456 0054 0746     		mov	r7, r0
 457              	.LVL35:
 221:ThirdPackage/lwip_app/ethernetif.c ****   TxConfig.Attributes = ETH_TX_PACKETS_FEATURES_CSUM | ETH_TX_PACKETS_FEATURES_CRCPAD;
 458              		.loc 1 221 3 is_stmt 1 view .LVU126
 459 0056 DFF85C81 		ldr	r8, .L40+44
 460 005a 3822     		movs	r2, #56
 461 005c 2146     		mov	r1, r4
 462 005e 4046     		mov	r0, r8
 463 0060 FFF7FEFF 		bl	memset
 464              	.LVL36:
 222:ThirdPackage/lwip_app/ethernetif.c ****   TxConfig.ChecksumCtrl = ETH_CHECKSUM_IPHDR_PAYLOAD_INSERT_PHDR_CALC;
 465              		.loc 1 222 3 view .LVU127
 222:ThirdPackage/lwip_app/ethernetif.c ****   TxConfig.ChecksumCtrl = ETH_CHECKSUM_IPHDR_PAYLOAD_INSERT_PHDR_CALC;
 466              		.loc 1 222 23 is_stmt 0 view .LVU128
 467 0064 2123     		movs	r3, #33
 468 0066 C8F80030 		str	r3, [r8]
 223:ThirdPackage/lwip_app/ethernetif.c ****   TxConfig.CRCPadCtrl = ETH_CRC_PAD_INSERT;
 469              		.loc 1 223 3 is_stmt 1 view .LVU129
 223:ThirdPackage/lwip_app/ethernetif.c ****   TxConfig.CRCPadCtrl = ETH_CRC_PAD_INSERT;
 470              		.loc 1 223 25 is_stmt 0 view .LVU130
 471 006a 4FF44003 		mov	r3, #12582912
 472 006e C8F81430 		str	r3, [r8, #20]
 224:ThirdPackage/lwip_app/ethernetif.c **** 
 473              		.loc 1 224 3 is_stmt 1 view .LVU131
 229:ThirdPackage/lwip_app/ethernetif.c **** 
 474              		.loc 1 229 3 view .LVU132
 475 0072 4948     		ldr	r0, .L40+16
 476 0074 FFF7FEFF 		bl	memp_init_pool
 477              	.LVL37:
 234:ThirdPackage/lwip_app/ethernetif.c **** 
 478              		.loc 1 234 3 view .LVU133
 234:ThirdPackage/lwip_app/ethernetif.c **** 
 479              		.loc 1 234 21 is_stmt 0 view .LVU134
 480 0078 0623     		movs	r3, #6
 481 007a 85F82C30 		strb	r3, [r5, #44]
 237:ThirdPackage/lwip_app/ethernetif.c ****   netif->hwaddr[1] =  heth.Init.MACAddr[1];
 482              		.loc 1 237 3 is_stmt 1 view .LVU135
ARM GAS  C:\Users\86188\AppData\Local\Temp\ccZBSQgi.s 			page 24


 237:ThirdPackage/lwip_app/ethernetif.c ****   netif->hwaddr[1] =  heth.Init.MACAddr[1];
 483              		.loc 1 237 32 is_stmt 0 view .LVU136
 484 007e 7368     		ldr	r3, [r6, #4]
 237:ThirdPackage/lwip_app/ethernetif.c ****   netif->hwaddr[1] =  heth.Init.MACAddr[1];
 485              		.loc 1 237 40 view .LVU137
 486 0080 1A78     		ldrb	r2, [r3]	@ zero_extendqisi2
 237:ThirdPackage/lwip_app/ethernetif.c ****   netif->hwaddr[1] =  heth.Init.MACAddr[1];
 487              		.loc 1 237 20 view .LVU138
 488 0082 85F82620 		strb	r2, [r5, #38]
 238:ThirdPackage/lwip_app/ethernetif.c ****   netif->hwaddr[2] =  heth.Init.MACAddr[2];
 489              		.loc 1 238 3 is_stmt 1 view .LVU139
 238:ThirdPackage/lwip_app/ethernetif.c ****   netif->hwaddr[2] =  heth.Init.MACAddr[2];
 490              		.loc 1 238 20 is_stmt 0 view .LVU140
 491 0086 5A78     		ldrb	r2, [r3, #1]	@ zero_extendqisi2
 492 0088 85F82720 		strb	r2, [r5, #39]
 239:ThirdPackage/lwip_app/ethernetif.c ****   netif->hwaddr[3] =  heth.Init.MACAddr[3];
 493              		.loc 1 239 3 is_stmt 1 view .LVU141
 239:ThirdPackage/lwip_app/ethernetif.c ****   netif->hwaddr[3] =  heth.Init.MACAddr[3];
 494              		.loc 1 239 20 is_stmt 0 view .LVU142
 495 008c 9A78     		ldrb	r2, [r3, #2]	@ zero_extendqisi2
 496 008e 85F82820 		strb	r2, [r5, #40]
 240:ThirdPackage/lwip_app/ethernetif.c ****   netif->hwaddr[4] =  heth.Init.MACAddr[4];
 497              		.loc 1 240 3 is_stmt 1 view .LVU143
 240:ThirdPackage/lwip_app/ethernetif.c ****   netif->hwaddr[4] =  heth.Init.MACAddr[4];
 498              		.loc 1 240 20 is_stmt 0 view .LVU144
 499 0092 DA78     		ldrb	r2, [r3, #3]	@ zero_extendqisi2
 500 0094 85F82920 		strb	r2, [r5, #41]
 241:ThirdPackage/lwip_app/ethernetif.c ****   netif->hwaddr[5] =  heth.Init.MACAddr[5];
 501              		.loc 1 241 3 is_stmt 1 view .LVU145
 241:ThirdPackage/lwip_app/ethernetif.c ****   netif->hwaddr[5] =  heth.Init.MACAddr[5];
 502              		.loc 1 241 20 is_stmt 0 view .LVU146
 503 0098 1A79     		ldrb	r2, [r3, #4]	@ zero_extendqisi2
 504 009a 85F82A20 		strb	r2, [r5, #42]
 242:ThirdPackage/lwip_app/ethernetif.c **** 
 505              		.loc 1 242 3 is_stmt 1 view .LVU147
 242:ThirdPackage/lwip_app/ethernetif.c **** 
 506              		.loc 1 242 20 is_stmt 0 view .LVU148
 507 009e 5B79     		ldrb	r3, [r3, #5]	@ zero_extendqisi2
 508 00a0 85F82B30 		strb	r3, [r5, #43]
 245:ThirdPackage/lwip_app/ethernetif.c **** 
 509              		.loc 1 245 3 is_stmt 1 view .LVU149
 245:ThirdPackage/lwip_app/ethernetif.c **** 
 510              		.loc 1 245 14 is_stmt 0 view .LVU150
 511 00a4 40F2DC53 		movw	r3, #1500
 512 00a8 AB84     		strh	r3, [r5, #36]	@ movhi
 250:ThirdPackage/lwip_app/ethernetif.c ****   #else
 513              		.loc 1 250 5 is_stmt 1 view .LVU151
 250:ThirdPackage/lwip_app/ethernetif.c ****   #else
 514              		.loc 1 250 18 is_stmt 0 view .LVU152
 515 00aa 95F82D30 		ldrb	r3, [r5, #45]	@ zero_extendqisi2
 516 00ae 43F00A03 		orr	r3, r3, #10
 517 00b2 85F82D30 		strb	r3, [r5, #45]
 256:ThirdPackage/lwip_app/ethernetif.c **** 
 518              		.loc 1 256 3 is_stmt 1 view .LVU153
 256:ThirdPackage/lwip_app/ethernetif.c **** 
 519              		.loc 1 256 20 is_stmt 0 view .LVU154
 520 00b6 0322     		movs	r2, #3
ARM GAS  C:\Users\86188\AppData\Local\Temp\ccZBSQgi.s 			page 25


 521 00b8 2146     		mov	r1, r4
 522 00ba 0120     		movs	r0, #1
 523 00bc FFF7FEFF 		bl	xQueueGenericCreate
 524              	.LVL38:
 256:ThirdPackage/lwip_app/ethernetif.c **** 
 525              		.loc 1 256 18 view .LVU155
 526 00c0 364E     		ldr	r6, .L40+20
 527 00c2 3060     		str	r0, [r6]
 259:ThirdPackage/lwip_app/ethernetif.c **** 
 528              		.loc 1 259 3 is_stmt 1 view .LVU156
 259:ThirdPackage/lwip_app/ethernetif.c **** 
 529              		.loc 1 259 20 is_stmt 0 view .LVU157
 530 00c4 0322     		movs	r2, #3
 531 00c6 2146     		mov	r1, r4
 532 00c8 0120     		movs	r0, #1
 533 00ca FFF7FEFF 		bl	xQueueGenericCreate
 534              	.LVL39:
 259:ThirdPackage/lwip_app/ethernetif.c **** 
 535              		.loc 1 259 18 view .LVU158
 536 00ce 344B     		ldr	r3, .L40+24
 537 00d0 1860     		str	r0, [r3]
 261:ThirdPackage/lwip_app/ethernetif.c ****   xSemaphoreGive(RxPktSemaphore);
 538              		.loc 1 261 3 is_stmt 1 view .LVU159
 539 00d2 2346     		mov	r3, r4
 540 00d4 2246     		mov	r2, r4
 541 00d6 2146     		mov	r1, r4
 542 00d8 FFF7FEFF 		bl	xQueueGenericSend
 543              	.LVL40:
 262:ThirdPackage/lwip_app/ethernetif.c **** 
 544              		.loc 1 262 3 view .LVU160
 545 00dc 2346     		mov	r3, r4
 546 00de 2246     		mov	r2, r4
 547 00e0 2146     		mov	r1, r4
 548 00e2 3068     		ldr	r0, [r6]
 549 00e4 FFF7FEFF 		bl	xQueueGenericSend
 550              	.LVL41:
 266:ThirdPackage/lwip_app/ethernetif.c **** xTaskCreate( ethernetif_input,
 551              		.loc 1 266 1 view .LVU161
 267:ThirdPackage/lwip_app/ethernetif.c ****                 "EthIf", /*lint !e971 Unqualified char types are allowed for strings and single cha
 552              		.loc 1 267 1 view .LVU162
 553 00e8 02AB     		add	r3, sp, #8
 554 00ea 0193     		str	r3, [sp, #4]
 555 00ec 0423     		movs	r3, #4
 556 00ee 0093     		str	r3, [sp]
 557 00f0 2346     		mov	r3, r4
 558 00f2 4FF4AF72 		mov	r2, #350
 559 00f6 2B49     		ldr	r1, .L40+28
 560 00f8 2B48     		ldr	r0, .L40+32
 561 00fa FFF7FEFF 		bl	xTaskCreate
 562              	.LVL42:
 279:ThirdPackage/lwip_app/ethernetif.c **** 
 563              		.loc 1 279 3 view .LVU163
 564 00fe 2B4C     		ldr	r4, .L40+36
 565 0100 2B49     		ldr	r1, .L40+40
 566 0102 2046     		mov	r0, r4
 567 0104 FFF7FEFF 		bl	DP83848_RegisterBusIO
 568              	.LVL43:
ARM GAS  C:\Users\86188\AppData\Local\Temp\ccZBSQgi.s 			page 26


 282:ThirdPackage/lwip_app/ethernetif.c **** 
 569              		.loc 1 282 3 view .LVU164
 570 0108 2046     		mov	r0, r4
 571 010a FFF7FEFF 		bl	DP83848_Init
 572              	.LVL44:
 284:ThirdPackage/lwip_app/ethernetif.c ****   {
 573              		.loc 1 284 3 view .LVU165
 284:ThirdPackage/lwip_app/ethernetif.c ****   {
 574              		.loc 1 284 6 is_stmt 0 view .LVU166
 575 010e AFBB     		cbnz	r7, .L30
 286:ThirdPackage/lwip_app/ethernetif.c **** 
 576              		.loc 1 286 5 is_stmt 1 view .LVU167
 286:ThirdPackage/lwip_app/ethernetif.c **** 
 577              		.loc 1 286 20 is_stmt 0 view .LVU168
 578 0110 2046     		mov	r0, r4
 579 0112 FFF7FEFF 		bl	DP83848_GetLinkState
 580              	.LVL45:
 289:ThirdPackage/lwip_app/ethernetif.c ****     {
 581              		.loc 1 289 5 is_stmt 1 view .LVU169
 289:ThirdPackage/lwip_app/ethernetif.c ****     {
 582              		.loc 1 289 7 is_stmt 0 view .LVU170
 583 0116 0128     		cmp	r0, #1
 584 0118 1EDD     		ble	.L38
 296:ThirdPackage/lwip_app/ethernetif.c ****       {
 585              		.loc 1 296 7 is_stmt 1 view .LVU171
 586 011a 0428     		cmp	r0, #4
 587 011c 27D0     		beq	.L34
 588 011e 0528     		cmp	r0, #5
 589 0120 29D0     		beq	.L35
 590 0122 0328     		cmp	r0, #3
 591 0124 1FD0     		beq	.L39
 592 0126 4FF48046 		mov	r6, #16384
 593 012a 4FF40067 		mov	r7, #2048
 594              	.LVL46:
 595              	.L33:
 321:ThirdPackage/lwip_app/ethernetif.c ****     MACConf.DuplexMode = duplex;
 596              		.loc 1 321 5 view .LVU172
 597 012e 164C     		ldr	r4, .L40
 598 0130 05A9     		add	r1, sp, #20
 599 0132 2046     		mov	r0, r4
 600              	.LVL47:
 321:ThirdPackage/lwip_app/ethernetif.c ****     MACConf.DuplexMode = duplex;
 601              		.loc 1 321 5 is_stmt 0 view .LVU173
 602 0134 FFF7FEFF 		bl	HAL_ETH_GetMACConfig
 603              	.LVL48:
 322:ThirdPackage/lwip_app/ethernetif.c ****     MACConf.Speed = speed;
 604              		.loc 1 322 5 is_stmt 1 view .LVU174
 322:ThirdPackage/lwip_app/ethernetif.c ****     MACConf.Speed = speed;
 605              		.loc 1 322 24 is_stmt 0 view .LVU175
 606 0138 0B97     		str	r7, [sp, #44]
 323:ThirdPackage/lwip_app/ethernetif.c ****     HAL_ETH_SetMACConfig(&heth, &MACConf);
 607              		.loc 1 323 5 is_stmt 1 view .LVU176
 323:ThirdPackage/lwip_app/ethernetif.c ****     HAL_ETH_SetMACConfig(&heth, &MACConf);
 608              		.loc 1 323 19 is_stmt 0 view .LVU177
 609 013a 0A96     		str	r6, [sp, #40]
 324:ThirdPackage/lwip_app/ethernetif.c **** 
 610              		.loc 1 324 5 is_stmt 1 view .LVU178
ARM GAS  C:\Users\86188\AppData\Local\Temp\ccZBSQgi.s 			page 27


 611 013c 05A9     		add	r1, sp, #20
 612 013e 2046     		mov	r0, r4
 613 0140 FFF7FEFF 		bl	HAL_ETH_SetMACConfig
 614              	.LVL49:
 326:ThirdPackage/lwip_app/ethernetif.c ****     netif_set_up(netif);
 615              		.loc 1 326 5 view .LVU179
 616 0144 2046     		mov	r0, r4
 617 0146 FFF7FEFF 		bl	HAL_ETH_Start_IT
 618              	.LVL50:
 327:ThirdPackage/lwip_app/ethernetif.c ****     netif_set_link_up(netif);
 619              		.loc 1 327 5 view .LVU180
 620 014a 2846     		mov	r0, r5
 621 014c FFF7FEFF 		bl	netif_set_up
 622              	.LVL51:
 328:ThirdPackage/lwip_app/ethernetif.c **** 
 623              		.loc 1 328 5 view .LVU181
 624 0150 2846     		mov	r0, r5
 625 0152 FFF7FEFF 		bl	netif_set_link_up
 626              	.LVL52:
 627 0156 13E0     		b	.L29
 628              	.LVL53:
 629              	.L38:
 291:ThirdPackage/lwip_app/ethernetif.c ****       netif_set_down(netif);
 630              		.loc 1 291 7 view .LVU182
 631 0158 2846     		mov	r0, r5
 632              	.LVL54:
 291:ThirdPackage/lwip_app/ethernetif.c ****       netif_set_down(netif);
 633              		.loc 1 291 7 is_stmt 0 view .LVU183
 634 015a FFF7FEFF 		bl	netif_set_link_down
 635              	.LVL55:
 292:ThirdPackage/lwip_app/ethernetif.c ****     }
 636              		.loc 1 292 7 is_stmt 1 view .LVU184
 637 015e 2846     		mov	r0, r5
 638 0160 FFF7FEFF 		bl	netif_set_down
 639              	.LVL56:
 640 0164 0CE0     		b	.L29
 641              	.LVL57:
 642              	.L39:
 304:ThirdPackage/lwip_app/ethernetif.c ****         break;
 643              		.loc 1 304 15 is_stmt 0 view .LVU185
 644 0166 4FF48046 		mov	r6, #16384
 303:ThirdPackage/lwip_app/ethernetif.c ****         speed = ETH_SPEED_100M;
 645              		.loc 1 303 16 view .LVU186
 646 016a 0027     		movs	r7, #0
 647              	.LVL58:
 303:ThirdPackage/lwip_app/ethernetif.c ****         speed = ETH_SPEED_100M;
 648              		.loc 1 303 16 view .LVU187
 649 016c DFE7     		b	.L33
 650              	.LVL59:
 651              	.L34:
 308:ThirdPackage/lwip_app/ethernetif.c ****         break;
 652              		.loc 1 308 15 view .LVU188
 653 016e 0026     		movs	r6, #0
 307:ThirdPackage/lwip_app/ethernetif.c ****         speed = ETH_SPEED_10M;
 654              		.loc 1 307 16 view .LVU189
 655 0170 4FF40067 		mov	r7, #2048
 656              	.LVL60:
ARM GAS  C:\Users\86188\AppData\Local\Temp\ccZBSQgi.s 			page 28


 307:ThirdPackage/lwip_app/ethernetif.c ****         speed = ETH_SPEED_10M;
 657              		.loc 1 307 16 view .LVU190
 658 0174 DBE7     		b	.L33
 659              	.LVL61:
 660              	.L35:
 312:ThirdPackage/lwip_app/ethernetif.c ****         break;
 661              		.loc 1 312 15 view .LVU191
 662 0176 0026     		movs	r6, #0
 311:ThirdPackage/lwip_app/ethernetif.c ****         speed = ETH_SPEED_10M;
 663              		.loc 1 311 16 view .LVU192
 664 0178 3746     		mov	r7, r6
 665              	.LVL62:
 311:ThirdPackage/lwip_app/ethernetif.c ****         speed = ETH_SPEED_10M;
 666              		.loc 1 311 16 view .LVU193
 667 017a D8E7     		b	.L33
 668              	.LVL63:
 669              	.L30:
 338:ThirdPackage/lwip_app/ethernetif.c ****   }
 670              		.loc 1 338 5 is_stmt 1 view .LVU194
 671 017c FFF7FEFF 		bl	Error_Handler
 672              	.LVL64:
 673              	.L29:
 345:ThirdPackage/lwip_app/ethernetif.c **** 
 674              		.loc 1 345 1 is_stmt 0 view .LVU195
 675 0180 1EB0     		add	sp, sp, #120
 676              	.LCFI10:
 677              		.cfi_def_cfa_offset 24
 678              		@ sp needed
 679 0182 BDE8F081 		pop	{r4, r5, r6, r7, r8, pc}
 680              	.LVL65:
 681              	.L41:
 345:ThirdPackage/lwip_app/ethernetif.c **** 
 682              		.loc 1 345 1 view .LVU196
 683 0186 00BF     		.align	2
 684              	.L40:
 685 0188 00000000 		.word	.LANCHOR1
 686 018c 00800240 		.word	1073905664
 687 0190 00000000 		.word	.LANCHOR5
 688 0194 00000000 		.word	.LANCHOR6
 689 0198 00000000 		.word	.LANCHOR7
 690 019c 00000000 		.word	.LANCHOR2
 691 01a0 00000000 		.word	.LANCHOR4
 692 01a4 00000000 		.word	.LC0
 693 01a8 00000000 		.word	ethernetif_input
 694 01ac 00000000 		.word	.LANCHOR9
 695 01b0 00000000 		.word	.LANCHOR8
 696 01b4 00000000 		.word	.LANCHOR3
 697              		.cfi_endproc
 698              	.LFE163:
 700              		.section	.text.pbuf_free_custom,"ax",%progbits
 701              		.align	1
 702              		.global	pbuf_free_custom
 703              		.syntax unified
 704              		.thumb
 705              		.thumb_func
 707              	pbuf_free_custom:
 708              	.LVL66:
ARM GAS  C:\Users\86188\AppData\Local\Temp\ccZBSQgi.s 			page 29


 709              	.LFB168:
 550:ThirdPackage/lwip_app/ethernetif.c ****   struct pbuf_custom* custom_pbuf = (struct pbuf_custom*)p;
 710              		.loc 1 550 1 is_stmt 1 view -0
 711              		.cfi_startproc
 712              		@ args = 0, pretend = 0, frame = 0
 713              		@ frame_needed = 0, uses_anonymous_args = 0
 550:ThirdPackage/lwip_app/ethernetif.c ****   struct pbuf_custom* custom_pbuf = (struct pbuf_custom*)p;
 714              		.loc 1 550 1 is_stmt 0 view .LVU198
 715 0000 08B5     		push	{r3, lr}
 716              	.LCFI11:
 717              		.cfi_def_cfa_offset 8
 718              		.cfi_offset 3, -8
 719              		.cfi_offset 14, -4
 720 0002 0146     		mov	r1, r0
 551:ThirdPackage/lwip_app/ethernetif.c ****   LWIP_MEMPOOL_FREE(RX_POOL, custom_pbuf);
 721              		.loc 1 551 3 is_stmt 1 view .LVU199
 722              	.LVL67:
 552:ThirdPackage/lwip_app/ethernetif.c **** 
 723              		.loc 1 552 3 view .LVU200
 724 0004 0848     		ldr	r0, .L46
 725              	.LVL68:
 552:ThirdPackage/lwip_app/ethernetif.c **** 
 726              		.loc 1 552 3 is_stmt 0 view .LVU201
 727 0006 FFF7FEFF 		bl	memp_free_pool
 728              	.LVL69:
 557:ThirdPackage/lwip_app/ethernetif.c ****   {
 729              		.loc 1 557 3 is_stmt 1 view .LVU202
 557:ThirdPackage/lwip_app/ethernetif.c ****   {
 730              		.loc 1 557 21 is_stmt 0 view .LVU203
 731 000a 084B     		ldr	r3, .L46+4
 732 000c 1B78     		ldrb	r3, [r3]	@ zero_extendqisi2
 557:ThirdPackage/lwip_app/ethernetif.c ****   {
 733              		.loc 1 557 6 view .LVU204
 734 000e 012B     		cmp	r3, #1
 735 0010 00D0     		beq	.L45
 736              	.L42:
 562:ThirdPackage/lwip_app/ethernetif.c **** 
 737              		.loc 1 562 1 view .LVU205
 738 0012 08BD     		pop	{r3, pc}
 739              	.L45:
 559:ThirdPackage/lwip_app/ethernetif.c ****     xSemaphoreGive(RxPktSemaphore);
 740              		.loc 1 559 5 is_stmt 1 view .LVU206
 559:ThirdPackage/lwip_app/ethernetif.c ****     xSemaphoreGive(RxPktSemaphore);
 741              		.loc 1 559 19 is_stmt 0 view .LVU207
 742 0014 0021     		movs	r1, #0
 743 0016 054B     		ldr	r3, .L46+4
 744 0018 1970     		strb	r1, [r3]
 560:ThirdPackage/lwip_app/ethernetif.c ****   }
 745              		.loc 1 560 5 is_stmt 1 view .LVU208
 746 001a 0B46     		mov	r3, r1
 747 001c 0A46     		mov	r2, r1
 748 001e 0448     		ldr	r0, .L46+8
 749 0020 0068     		ldr	r0, [r0]
 750 0022 FFF7FEFF 		bl	xQueueGenericSend
 751              	.LVL70:
 562:ThirdPackage/lwip_app/ethernetif.c **** 
 752              		.loc 1 562 1 is_stmt 0 view .LVU209
ARM GAS  C:\Users\86188\AppData\Local\Temp\ccZBSQgi.s 			page 30


 753 0026 F4E7     		b	.L42
 754              	.L47:
 755              		.align	2
 756              	.L46:
 757 0028 00000000 		.word	.LANCHOR7
 758 002c 00000000 		.word	.LANCHOR0
 759 0030 00000000 		.word	.LANCHOR2
 760              		.cfi_endproc
 761              	.LFE168:
 763              		.section	.text.ETH_PHY_IO_GetTick,"ax",%progbits
 764              		.align	1
 765              		.global	ETH_PHY_IO_GetTick
 766              		.syntax unified
 767              		.thumb
 768              		.thumb_func
 770              	ETH_PHY_IO_GetTick:
 771              	.LFB176:
 705:ThirdPackage/lwip_app/ethernetif.c **** 
 706:ThirdPackage/lwip_app/ethernetif.c **** /**
 707:ThirdPackage/lwip_app/ethernetif.c ****   * @brief  Read a PHY register through the MDIO interface.
 708:ThirdPackage/lwip_app/ethernetif.c ****   * @param  DevAddr: PHY port address
 709:ThirdPackage/lwip_app/ethernetif.c ****   * @param  RegAddr: PHY register address
 710:ThirdPackage/lwip_app/ethernetif.c ****   * @param  pRegVal: pointer to hold the register value
 711:ThirdPackage/lwip_app/ethernetif.c ****   * @retval 0 if OK -1 if Error
 712:ThirdPackage/lwip_app/ethernetif.c ****   */
 713:ThirdPackage/lwip_app/ethernetif.c **** int32_t ETH_PHY_IO_ReadReg(uint32_t DevAddr, uint32_t RegAddr, uint32_t *pRegVal)
 714:ThirdPackage/lwip_app/ethernetif.c **** {
 715:ThirdPackage/lwip_app/ethernetif.c ****   if(HAL_ETH_ReadPHYRegister(&heth, DevAddr, RegAddr, pRegVal) != HAL_OK)
 716:ThirdPackage/lwip_app/ethernetif.c ****   {
 717:ThirdPackage/lwip_app/ethernetif.c ****     return -1;
 718:ThirdPackage/lwip_app/ethernetif.c ****   }
 719:ThirdPackage/lwip_app/ethernetif.c **** 
 720:ThirdPackage/lwip_app/ethernetif.c ****   return 0;
 721:ThirdPackage/lwip_app/ethernetif.c **** }
 722:ThirdPackage/lwip_app/ethernetif.c **** 
 723:ThirdPackage/lwip_app/ethernetif.c **** /**
 724:ThirdPackage/lwip_app/ethernetif.c ****   * @brief  Write a value to a PHY register through the MDIO interface.
 725:ThirdPackage/lwip_app/ethernetif.c ****   * @param  DevAddr: PHY port address
 726:ThirdPackage/lwip_app/ethernetif.c ****   * @param  RegAddr: PHY register address
 727:ThirdPackage/lwip_app/ethernetif.c ****   * @param  RegVal: Value to be written
 728:ThirdPackage/lwip_app/ethernetif.c ****   * @retval 0 if OK -1 if Error
 729:ThirdPackage/lwip_app/ethernetif.c ****   */
 730:ThirdPackage/lwip_app/ethernetif.c **** int32_t ETH_PHY_IO_WriteReg(uint32_t DevAddr, uint32_t RegAddr, uint32_t RegVal)
 731:ThirdPackage/lwip_app/ethernetif.c **** {
 732:ThirdPackage/lwip_app/ethernetif.c ****   if(HAL_ETH_WritePHYRegister(&heth, DevAddr, RegAddr, RegVal) != HAL_OK)
 733:ThirdPackage/lwip_app/ethernetif.c ****   {
 734:ThirdPackage/lwip_app/ethernetif.c ****     return -1;
 735:ThirdPackage/lwip_app/ethernetif.c ****   }
 736:ThirdPackage/lwip_app/ethernetif.c **** 
 737:ThirdPackage/lwip_app/ethernetif.c ****   return 0;
 738:ThirdPackage/lwip_app/ethernetif.c **** }
 739:ThirdPackage/lwip_app/ethernetif.c **** 
 740:ThirdPackage/lwip_app/ethernetif.c **** /**
 741:ThirdPackage/lwip_app/ethernetif.c ****   * @brief  Get the time in millisecons used for internal PHY driver process.
 742:ThirdPackage/lwip_app/ethernetif.c ****   * @retval Time value
 743:ThirdPackage/lwip_app/ethernetif.c ****   */
 744:ThirdPackage/lwip_app/ethernetif.c **** int32_t ETH_PHY_IO_GetTick(void)
ARM GAS  C:\Users\86188\AppData\Local\Temp\ccZBSQgi.s 			page 31


 745:ThirdPackage/lwip_app/ethernetif.c **** {
 772              		.loc 1 745 1 is_stmt 1 view -0
 773              		.cfi_startproc
 774              		@ args = 0, pretend = 0, frame = 0
 775              		@ frame_needed = 0, uses_anonymous_args = 0
 776 0000 08B5     		push	{r3, lr}
 777              	.LCFI12:
 778              		.cfi_def_cfa_offset 8
 779              		.cfi_offset 3, -8
 780              		.cfi_offset 14, -4
 746:ThirdPackage/lwip_app/ethernetif.c ****   return HAL_GetTick();
 781              		.loc 1 746 3 view .LVU211
 782              		.loc 1 746 10 is_stmt 0 view .LVU212
 783 0002 FFF7FEFF 		bl	HAL_GetTick
 784              	.LVL71:
 747:ThirdPackage/lwip_app/ethernetif.c **** }
 785              		.loc 1 747 1 view .LVU213
 786 0006 08BD     		pop	{r3, pc}
 787              		.cfi_endproc
 788              	.LFE176:
 790              		.section	.text.ETH_PHY_IO_Init,"ax",%progbits
 791              		.align	1
 792              		.global	ETH_PHY_IO_Init
 793              		.syntax unified
 794              		.thumb
 795              		.thumb_func
 797              	ETH_PHY_IO_Init:
 798              	.LFB172:
 685:ThirdPackage/lwip_app/ethernetif.c ****   /* We assume that MDIO GPIO configuration is already done
 799              		.loc 1 685 1 is_stmt 1 view -0
 800              		.cfi_startproc
 801              		@ args = 0, pretend = 0, frame = 0
 802              		@ frame_needed = 0, uses_anonymous_args = 0
 803 0000 08B5     		push	{r3, lr}
 804              	.LCFI13:
 805              		.cfi_def_cfa_offset 8
 806              		.cfi_offset 3, -8
 807              		.cfi_offset 14, -4
 691:ThirdPackage/lwip_app/ethernetif.c **** 
 808              		.loc 1 691 3 view .LVU215
 809 0002 0248     		ldr	r0, .L52
 810 0004 FFF7FEFF 		bl	HAL_ETH_SetMDIOClockRange
 811              	.LVL72:
 693:ThirdPackage/lwip_app/ethernetif.c **** }
 812              		.loc 1 693 3 view .LVU216
 694:ThirdPackage/lwip_app/ethernetif.c **** 
 813              		.loc 1 694 1 is_stmt 0 view .LVU217
 814 0008 0020     		movs	r0, #0
 815 000a 08BD     		pop	{r3, pc}
 816              	.L53:
 817              		.align	2
 818              	.L52:
 819 000c 00000000 		.word	.LANCHOR1
 820              		.cfi_endproc
 821              	.LFE172:
 823              		.section	.text.ETH_PHY_IO_ReadReg,"ax",%progbits
 824              		.align	1
ARM GAS  C:\Users\86188\AppData\Local\Temp\ccZBSQgi.s 			page 32


 825              		.global	ETH_PHY_IO_ReadReg
 826              		.syntax unified
 827              		.thumb
 828              		.thumb_func
 830              	ETH_PHY_IO_ReadReg:
 831              	.LVL73:
 832              	.LFB174:
 714:ThirdPackage/lwip_app/ethernetif.c ****   if(HAL_ETH_ReadPHYRegister(&heth, DevAddr, RegAddr, pRegVal) != HAL_OK)
 833              		.loc 1 714 1 is_stmt 1 view -0
 834              		.cfi_startproc
 835              		@ args = 0, pretend = 0, frame = 0
 836              		@ frame_needed = 0, uses_anonymous_args = 0
 714:ThirdPackage/lwip_app/ethernetif.c ****   if(HAL_ETH_ReadPHYRegister(&heth, DevAddr, RegAddr, pRegVal) != HAL_OK)
 837              		.loc 1 714 1 is_stmt 0 view .LVU219
 838 0000 08B5     		push	{r3, lr}
 839              	.LCFI14:
 840              		.cfi_def_cfa_offset 8
 841              		.cfi_offset 3, -8
 842              		.cfi_offset 14, -4
 843 0002 1346     		mov	r3, r2
 715:ThirdPackage/lwip_app/ethernetif.c ****   {
 844              		.loc 1 715 3 is_stmt 1 view .LVU220
 715:ThirdPackage/lwip_app/ethernetif.c ****   {
 845              		.loc 1 715 6 is_stmt 0 view .LVU221
 846 0004 0A46     		mov	r2, r1
 847              	.LVL74:
 715:ThirdPackage/lwip_app/ethernetif.c ****   {
 848              		.loc 1 715 6 view .LVU222
 849 0006 0146     		mov	r1, r0
 850              	.LVL75:
 715:ThirdPackage/lwip_app/ethernetif.c ****   {
 851              		.loc 1 715 6 view .LVU223
 852 0008 0348     		ldr	r0, .L59
 853              	.LVL76:
 715:ThirdPackage/lwip_app/ethernetif.c ****   {
 854              		.loc 1 715 6 view .LVU224
 855 000a FFF7FEFF 		bl	HAL_ETH_ReadPHYRegister
 856              	.LVL77:
 715:ThirdPackage/lwip_app/ethernetif.c ****   {
 857              		.loc 1 715 5 view .LVU225
 858 000e 00B9     		cbnz	r0, .L58
 859              	.L54:
 721:ThirdPackage/lwip_app/ethernetif.c **** 
 860              		.loc 1 721 1 view .LVU226
 861 0010 08BD     		pop	{r3, pc}
 862              	.L58:
 717:ThirdPackage/lwip_app/ethernetif.c ****   }
 863              		.loc 1 717 12 view .LVU227
 864 0012 4FF0FF30 		mov	r0, #-1
 865 0016 FBE7     		b	.L54
 866              	.L60:
 867              		.align	2
 868              	.L59:
 869 0018 00000000 		.word	.LANCHOR1
 870              		.cfi_endproc
 871              	.LFE174:
 873              		.section	.text.ETH_PHY_IO_WriteReg,"ax",%progbits
ARM GAS  C:\Users\86188\AppData\Local\Temp\ccZBSQgi.s 			page 33


 874              		.align	1
 875              		.global	ETH_PHY_IO_WriteReg
 876              		.syntax unified
 877              		.thumb
 878              		.thumb_func
 880              	ETH_PHY_IO_WriteReg:
 881              	.LVL78:
 882              	.LFB175:
 731:ThirdPackage/lwip_app/ethernetif.c ****   if(HAL_ETH_WritePHYRegister(&heth, DevAddr, RegAddr, RegVal) != HAL_OK)
 883              		.loc 1 731 1 is_stmt 1 view -0
 884              		.cfi_startproc
 885              		@ args = 0, pretend = 0, frame = 0
 886              		@ frame_needed = 0, uses_anonymous_args = 0
 731:ThirdPackage/lwip_app/ethernetif.c ****   if(HAL_ETH_WritePHYRegister(&heth, DevAddr, RegAddr, RegVal) != HAL_OK)
 887              		.loc 1 731 1 is_stmt 0 view .LVU229
 888 0000 08B5     		push	{r3, lr}
 889              	.LCFI15:
 890              		.cfi_def_cfa_offset 8
 891              		.cfi_offset 3, -8
 892              		.cfi_offset 14, -4
 893 0002 1346     		mov	r3, r2
 732:ThirdPackage/lwip_app/ethernetif.c ****   {
 894              		.loc 1 732 3 is_stmt 1 view .LVU230
 732:ThirdPackage/lwip_app/ethernetif.c ****   {
 895              		.loc 1 732 6 is_stmt 0 view .LVU231
 896 0004 0A46     		mov	r2, r1
 897              	.LVL79:
 732:ThirdPackage/lwip_app/ethernetif.c ****   {
 898              		.loc 1 732 6 view .LVU232
 899 0006 0146     		mov	r1, r0
 900              	.LVL80:
 732:ThirdPackage/lwip_app/ethernetif.c ****   {
 901              		.loc 1 732 6 view .LVU233
 902 0008 0348     		ldr	r0, .L66
 903              	.LVL81:
 732:ThirdPackage/lwip_app/ethernetif.c ****   {
 904              		.loc 1 732 6 view .LVU234
 905 000a FFF7FEFF 		bl	HAL_ETH_WritePHYRegister
 906              	.LVL82:
 732:ThirdPackage/lwip_app/ethernetif.c ****   {
 907              		.loc 1 732 5 view .LVU235
 908 000e 00B9     		cbnz	r0, .L65
 909              	.L61:
 738:ThirdPackage/lwip_app/ethernetif.c **** 
 910              		.loc 1 738 1 view .LVU236
 911 0010 08BD     		pop	{r3, pc}
 912              	.L65:
 734:ThirdPackage/lwip_app/ethernetif.c ****   }
 913              		.loc 1 734 12 view .LVU237
 914 0012 4FF0FF30 		mov	r0, #-1
 915 0016 FBE7     		b	.L61
 916              	.L67:
 917              		.align	2
 918              	.L66:
 919 0018 00000000 		.word	.LANCHOR1
 920              		.cfi_endproc
 921              	.LFE175:
ARM GAS  C:\Users\86188\AppData\Local\Temp\ccZBSQgi.s 			page 34


 923              		.section	.text.HAL_ETH_RxCpltCallback,"ax",%progbits
 924              		.align	1
 925              		.global	HAL_ETH_RxCpltCallback
 926              		.syntax unified
 927              		.thumb
 928              		.thumb_func
 930              	HAL_ETH_RxCpltCallback:
 931              	.LVL83:
 932              	.LFB160:
 145:ThirdPackage/lwip_app/ethernetif.c ****   //xSemaphoreGive(RxPktSemaphore);
 933              		.loc 1 145 1 is_stmt 1 view -0
 934              		.cfi_startproc
 935              		@ args = 0, pretend = 0, frame = 8
 936              		@ frame_needed = 0, uses_anonymous_args = 0
 145:ThirdPackage/lwip_app/ethernetif.c ****   //xSemaphoreGive(RxPktSemaphore);
 937              		.loc 1 145 1 is_stmt 0 view .LVU239
 938 0000 00B5     		push	{lr}
 939              	.LCFI16:
 940              		.cfi_def_cfa_offset 4
 941              		.cfi_offset 14, -4
 942 0002 83B0     		sub	sp, sp, #12
 943              	.LCFI17:
 944              		.cfi_def_cfa_offset 16
 147:ThirdPackage/lwip_app/ethernetif.c ****   xSemaphoreGiveFromISR(RxPktSemaphore,&xHigherPriorityTaskWoken);
 945              		.loc 1 147 3 is_stmt 1 view .LVU240
 147:ThirdPackage/lwip_app/ethernetif.c ****   xSemaphoreGiveFromISR(RxPktSemaphore,&xHigherPriorityTaskWoken);
 946              		.loc 1 147 14 is_stmt 0 view .LVU241
 947 0004 0023     		movs	r3, #0
 948 0006 0193     		str	r3, [sp, #4]
 148:ThirdPackage/lwip_app/ethernetif.c ****   portYIELD_FROM_ISR(xHigherPriorityTaskWoken);
 949              		.loc 1 148 3 is_stmt 1 view .LVU242
 950 0008 01A9     		add	r1, sp, #4
 951 000a 094B     		ldr	r3, .L71
 952 000c 1868     		ldr	r0, [r3]
 953              	.LVL84:
 148:ThirdPackage/lwip_app/ethernetif.c ****   portYIELD_FROM_ISR(xHigherPriorityTaskWoken);
 954              		.loc 1 148 3 is_stmt 0 view .LVU243
 955 000e FFF7FEFF 		bl	xQueueGiveFromISR
 956              	.LVL85:
 149:ThirdPackage/lwip_app/ethernetif.c **** }
 957              		.loc 1 149 3 is_stmt 1 view .LVU244
 149:ThirdPackage/lwip_app/ethernetif.c **** }
 958              		.loc 1 149 3 view .LVU245
 959 0012 019B     		ldr	r3, [sp, #4]
 960 0014 4BB1     		cbz	r3, .L68
 149:ThirdPackage/lwip_app/ethernetif.c **** }
 961              		.loc 1 149 3 discriminator 1 view .LVU246
 149:ThirdPackage/lwip_app/ethernetif.c **** }
 962              		.loc 1 149 3 discriminator 1 view .LVU247
 963 0016 4FF0E023 		mov	r3, #-536813568
 964 001a 4FF08052 		mov	r2, #268435456
 965 001e C3F8042D 		str	r2, [r3, #3332]
 149:ThirdPackage/lwip_app/ethernetif.c **** }
 966              		.loc 1 149 3 discriminator 1 view .LVU248
 967              		.syntax unified
 968              	@ 149 "ThirdPackage/lwip_app/ethernetif.c" 1
 969 0022 BFF34F8F 		dsb
ARM GAS  C:\Users\86188\AppData\Local\Temp\ccZBSQgi.s 			page 35


 970              	@ 0 "" 2
 149:ThirdPackage/lwip_app/ethernetif.c **** }
 971              		.loc 1 149 3 discriminator 1 view .LVU249
 972              	@ 149 "ThirdPackage/lwip_app/ethernetif.c" 1
 973 0026 BFF36F8F 		isb
 974              	@ 0 "" 2
 149:ThirdPackage/lwip_app/ethernetif.c **** }
 975              		.loc 1 149 3 discriminator 1 view .LVU250
 149:ThirdPackage/lwip_app/ethernetif.c **** }
 976              		.loc 1 149 3 discriminator 1 view .LVU251
 149:ThirdPackage/lwip_app/ethernetif.c **** }
 977              		.loc 1 149 3 discriminator 1 view .LVU252
 978              		.thumb
 979              		.syntax unified
 980              	.L68:
 150:ThirdPackage/lwip_app/ethernetif.c **** /**
 981              		.loc 1 150 1 is_stmt 0 view .LVU253
 982 002a 03B0     		add	sp, sp, #12
 983              	.LCFI18:
 984              		.cfi_def_cfa_offset 4
 985              		@ sp needed
 986 002c 5DF804FB 		ldr	pc, [sp], #4
 987              	.L72:
 988              		.align	2
 989              	.L71:
 990 0030 00000000 		.word	.LANCHOR2
 991              		.cfi_endproc
 992              	.LFE160:
 994              		.section	.text.HAL_ETH_TxCpltCallback,"ax",%progbits
 995              		.align	1
 996              		.global	HAL_ETH_TxCpltCallback
 997              		.syntax unified
 998              		.thumb
 999              		.thumb_func
 1001              	HAL_ETH_TxCpltCallback:
 1002              	.LVL86:
 1003              	.LFB161:
 157:ThirdPackage/lwip_app/ethernetif.c ****   //xSemaphoreGive(TxPktSemaphore);
 1004              		.loc 1 157 1 is_stmt 1 view -0
 1005              		.cfi_startproc
 1006              		@ args = 0, pretend = 0, frame = 8
 1007              		@ frame_needed = 0, uses_anonymous_args = 0
 157:ThirdPackage/lwip_app/ethernetif.c ****   //xSemaphoreGive(TxPktSemaphore);
 1008              		.loc 1 157 1 is_stmt 0 view .LVU255
 1009 0000 00B5     		push	{lr}
 1010              	.LCFI19:
 1011              		.cfi_def_cfa_offset 4
 1012              		.cfi_offset 14, -4
 1013 0002 83B0     		sub	sp, sp, #12
 1014              	.LCFI20:
 1015              		.cfi_def_cfa_offset 16
 159:ThirdPackage/lwip_app/ethernetif.c ****   xSemaphoreGiveFromISR(TxPktSemaphore,&xHigherPriorityTaskWoken);
 1016              		.loc 1 159 3 is_stmt 1 view .LVU256
 159:ThirdPackage/lwip_app/ethernetif.c ****   xSemaphoreGiveFromISR(TxPktSemaphore,&xHigherPriorityTaskWoken);
 1017              		.loc 1 159 14 is_stmt 0 view .LVU257
 1018 0004 0023     		movs	r3, #0
 1019 0006 0193     		str	r3, [sp, #4]
ARM GAS  C:\Users\86188\AppData\Local\Temp\ccZBSQgi.s 			page 36


 160:ThirdPackage/lwip_app/ethernetif.c ****   portYIELD_FROM_ISR(xHigherPriorityTaskWoken);
 1020              		.loc 1 160 3 is_stmt 1 view .LVU258
 1021 0008 01A9     		add	r1, sp, #4
 1022 000a 094B     		ldr	r3, .L76
 1023 000c 1868     		ldr	r0, [r3]
 1024              	.LVL87:
 160:ThirdPackage/lwip_app/ethernetif.c ****   portYIELD_FROM_ISR(xHigherPriorityTaskWoken);
 1025              		.loc 1 160 3 is_stmt 0 view .LVU259
 1026 000e FFF7FEFF 		bl	xQueueGiveFromISR
 1027              	.LVL88:
 161:ThirdPackage/lwip_app/ethernetif.c **** }
 1028              		.loc 1 161 3 is_stmt 1 view .LVU260
 161:ThirdPackage/lwip_app/ethernetif.c **** }
 1029              		.loc 1 161 3 view .LVU261
 1030 0012 019B     		ldr	r3, [sp, #4]
 1031 0014 4BB1     		cbz	r3, .L73
 161:ThirdPackage/lwip_app/ethernetif.c **** }
 1032              		.loc 1 161 3 discriminator 1 view .LVU262
 161:ThirdPackage/lwip_app/ethernetif.c **** }
 1033              		.loc 1 161 3 discriminator 1 view .LVU263
 1034 0016 4FF0E023 		mov	r3, #-536813568
 1035 001a 4FF08052 		mov	r2, #268435456
 1036 001e C3F8042D 		str	r2, [r3, #3332]
 161:ThirdPackage/lwip_app/ethernetif.c **** }
 1037              		.loc 1 161 3 discriminator 1 view .LVU264
 1038              		.syntax unified
 1039              	@ 161 "ThirdPackage/lwip_app/ethernetif.c" 1
 1040 0022 BFF34F8F 		dsb
 1041              	@ 0 "" 2
 161:ThirdPackage/lwip_app/ethernetif.c **** }
 1042              		.loc 1 161 3 discriminator 1 view .LVU265
 1043              	@ 161 "ThirdPackage/lwip_app/ethernetif.c" 1
 1044 0026 BFF36F8F 		isb
 1045              	@ 0 "" 2
 161:ThirdPackage/lwip_app/ethernetif.c **** }
 1046              		.loc 1 161 3 discriminator 1 view .LVU266
 161:ThirdPackage/lwip_app/ethernetif.c **** }
 1047              		.loc 1 161 3 discriminator 1 view .LVU267
 161:ThirdPackage/lwip_app/ethernetif.c **** }
 1048              		.loc 1 161 3 discriminator 1 view .LVU268
 1049              		.thumb
 1050              		.syntax unified
 1051              	.L73:
 162:ThirdPackage/lwip_app/ethernetif.c **** /**
 1052              		.loc 1 162 1 is_stmt 0 view .LVU269
 1053 002a 03B0     		add	sp, sp, #12
 1054              	.LCFI21:
 1055              		.cfi_def_cfa_offset 4
 1056              		@ sp needed
 1057 002c 5DF804FB 		ldr	pc, [sp], #4
 1058              	.L77:
 1059              		.align	2
 1060              	.L76:
 1061 0030 00000000 		.word	.LANCHOR4
 1062              		.cfi_endproc
 1063              	.LFE161:
 1065              		.section	.text.HAL_ETH_ErrorCallback,"ax",%progbits
ARM GAS  C:\Users\86188\AppData\Local\Temp\ccZBSQgi.s 			page 37


 1066              		.align	1
 1067              		.global	HAL_ETH_ErrorCallback
 1068              		.syntax unified
 1069              		.thumb
 1070              		.thumb_func
 1072              	HAL_ETH_ErrorCallback:
 1073              	.LVL89:
 1074              	.LFB162:
 169:ThirdPackage/lwip_app/ethernetif.c ****   if((HAL_ETH_GetDMAError(handlerEth) & ETH_DMASR_RBUS) == ETH_DMASR_RBUS)
 1075              		.loc 1 169 1 is_stmt 1 view -0
 1076              		.cfi_startproc
 1077              		@ args = 0, pretend = 0, frame = 8
 1078              		@ frame_needed = 0, uses_anonymous_args = 0
 169:ThirdPackage/lwip_app/ethernetif.c ****   if((HAL_ETH_GetDMAError(handlerEth) & ETH_DMASR_RBUS) == ETH_DMASR_RBUS)
 1079              		.loc 1 169 1 is_stmt 0 view .LVU271
 1080 0000 00B5     		push	{lr}
 1081              	.LCFI22:
 1082              		.cfi_def_cfa_offset 4
 1083              		.cfi_offset 14, -4
 1084 0002 83B0     		sub	sp, sp, #12
 1085              	.LCFI23:
 1086              		.cfi_def_cfa_offset 16
 170:ThirdPackage/lwip_app/ethernetif.c ****   {
 1087              		.loc 1 170 3 is_stmt 1 view .LVU272
 170:ThirdPackage/lwip_app/ethernetif.c ****   {
 1088              		.loc 1 170 7 is_stmt 0 view .LVU273
 1089 0004 FFF7FEFF 		bl	HAL_ETH_GetDMAError
 1090              	.LVL90:
 170:ThirdPackage/lwip_app/ethernetif.c ****   {
 1091              		.loc 1 170 5 view .LVU274
 1092 0008 10F0800F 		tst	r0, #128
 1093 000c 02D1     		bne	.L82
 1094              	.L78:
 177:ThirdPackage/lwip_app/ethernetif.c **** 
 1095              		.loc 1 177 1 view .LVU275
 1096 000e 03B0     		add	sp, sp, #12
 1097              	.LCFI24:
 1098              		.cfi_remember_state
 1099              		.cfi_def_cfa_offset 4
 1100              		@ sp needed
 1101 0010 5DF804FB 		ldr	pc, [sp], #4
 1102              	.L82:
 1103              	.LCFI25:
 1104              		.cfi_restore_state
 1105              	.LBB2:
 173:ThirdPackage/lwip_app/ethernetif.c ****      xSemaphoreGiveFromISR(RxPktSemaphore,&xHigherPriorityTaskWoken);
 1106              		.loc 1 173 6 is_stmt 1 view .LVU276
 173:ThirdPackage/lwip_app/ethernetif.c ****      xSemaphoreGiveFromISR(RxPktSemaphore,&xHigherPriorityTaskWoken);
 1107              		.loc 1 173 17 is_stmt 0 view .LVU277
 1108 0014 0023     		movs	r3, #0
 1109 0016 0193     		str	r3, [sp, #4]
 174:ThirdPackage/lwip_app/ethernetif.c ****      portYIELD_FROM_ISR(xHigherPriorityTaskWoken);
 1110              		.loc 1 174 6 is_stmt 1 view .LVU278
 1111 0018 01A9     		add	r1, sp, #4
 1112 001a 094B     		ldr	r3, .L83
 1113 001c 1868     		ldr	r0, [r3]
 1114 001e FFF7FEFF 		bl	xQueueGiveFromISR
ARM GAS  C:\Users\86188\AppData\Local\Temp\ccZBSQgi.s 			page 38


 1115              	.LVL91:
 175:ThirdPackage/lwip_app/ethernetif.c ****   }
 1116              		.loc 1 175 6 view .LVU279
 175:ThirdPackage/lwip_app/ethernetif.c ****   }
 1117              		.loc 1 175 6 view .LVU280
 1118 0022 019B     		ldr	r3, [sp, #4]
 1119 0024 002B     		cmp	r3, #0
 1120 0026 F2D0     		beq	.L78
 175:ThirdPackage/lwip_app/ethernetif.c ****   }
 1121              		.loc 1 175 6 discriminator 1 view .LVU281
 175:ThirdPackage/lwip_app/ethernetif.c ****   }
 1122              		.loc 1 175 6 discriminator 1 view .LVU282
 1123 0028 4FF0E023 		mov	r3, #-536813568
 1124 002c 4FF08052 		mov	r2, #268435456
 1125 0030 C3F8042D 		str	r2, [r3, #3332]
 175:ThirdPackage/lwip_app/ethernetif.c ****   }
 1126              		.loc 1 175 6 discriminator 1 view .LVU283
 1127              		.syntax unified
 1128              	@ 175 "ThirdPackage/lwip_app/ethernetif.c" 1
 1129 0034 BFF34F8F 		dsb
 1130              	@ 0 "" 2
 175:ThirdPackage/lwip_app/ethernetif.c ****   }
 1131              		.loc 1 175 6 discriminator 1 view .LVU284
 1132              	@ 175 "ThirdPackage/lwip_app/ethernetif.c" 1
 1133 0038 BFF36F8F 		isb
 1134              	@ 0 "" 2
 175:ThirdPackage/lwip_app/ethernetif.c ****   }
 1135              		.loc 1 175 6 discriminator 1 view .LVU285
 175:ThirdPackage/lwip_app/ethernetif.c ****   }
 1136              		.loc 1 175 6 discriminator 1 view .LVU286
 175:ThirdPackage/lwip_app/ethernetif.c ****   }
 1137              		.loc 1 175 6 discriminator 1 view .LVU287
 1138              		.thumb
 1139              		.syntax unified
 1140              	.LBE2:
 177:ThirdPackage/lwip_app/ethernetif.c **** 
 1141              		.loc 1 177 1 is_stmt 0 discriminator 1 view .LVU288
 1142 003c E7E7     		b	.L78
 1143              	.L84:
 1144 003e 00BF     		.align	2
 1145              	.L83:
 1146 0040 00000000 		.word	.LANCHOR2
 1147              		.cfi_endproc
 1148              	.LFE162:
 1150              		.section	.rodata.ethernetif_init.str1.4,"aMS",%progbits,1
 1151              		.align	2
 1152              	.LC1:
 1153 0000 54686972 		.ascii	"ThirdPackage/lwip_app/ethernetif.c\000"
 1153      64506163 
 1153      6B616765 
 1153      2F6C7769 
 1153      705F6170 
 1154 0023 00       		.align	2
 1155              	.LC2:
 1156 0024 6E657469 		.ascii	"netif != NULL\000"
 1156      6620213D 
 1156      204E554C 
ARM GAS  C:\Users\86188\AppData\Local\Temp\ccZBSQgi.s 			page 39


 1156      4C00
 1157 0032 0000     		.align	2
 1158              	.LC3:
 1159 0034 41737365 		.ascii	"Assertion \"%s\" failed at line %d in %s\012\000"
 1159      7274696F 
 1159      6E202225 
 1159      73222066 
 1159      61696C65 
 1160              		.section	.text.ethernetif_init,"ax",%progbits
 1161              		.align	1
 1162              		.global	ethernetif_init
 1163              		.syntax unified
 1164              		.thumb
 1165              		.thumb_func
 1167              	ethernetif_init:
 1168              	.LVL92:
 1169              	.LFB167:
 499:ThirdPackage/lwip_app/ethernetif.c ****   LWIP_ASSERT("netif != NULL", (netif != NULL));
 1170              		.loc 1 499 1 is_stmt 1 view -0
 1171              		.cfi_startproc
 1172              		@ args = 0, pretend = 0, frame = 0
 1173              		@ frame_needed = 0, uses_anonymous_args = 0
 499:ThirdPackage/lwip_app/ethernetif.c ****   LWIP_ASSERT("netif != NULL", (netif != NULL));
 1174              		.loc 1 499 1 is_stmt 0 view .LVU290
 1175 0000 10B5     		push	{r4, lr}
 1176              	.LCFI26:
 1177              		.cfi_def_cfa_offset 8
 1178              		.cfi_offset 4, -8
 1179              		.cfi_offset 14, -4
 500:ThirdPackage/lwip_app/ethernetif.c **** 
 1180              		.loc 1 500 3 is_stmt 1 view .LVU291
 500:ThirdPackage/lwip_app/ethernetif.c **** 
 1181              		.loc 1 500 3 view .LVU292
 1182 0002 0446     		mov	r4, r0
 1183 0004 70B1     		cbz	r0, .L88
 1184              	.LVL93:
 1185              	.L86:
 500:ThirdPackage/lwip_app/ethernetif.c **** 
 1186              		.loc 1 500 3 discriminator 3 view .LVU293
 500:ThirdPackage/lwip_app/ethernetif.c **** 
 1187              		.loc 1 500 3 discriminator 3 view .LVU294
 514:ThirdPackage/lwip_app/ethernetif.c ****   netif->name[1] = IFNAME1;
 1188              		.loc 1 514 3 discriminator 3 view .LVU295
 514:ThirdPackage/lwip_app/ethernetif.c ****   netif->name[1] = IFNAME1;
 1189              		.loc 1 514 18 is_stmt 0 discriminator 3 view .LVU296
 1190 0006 7323     		movs	r3, #115
 1191 0008 84F82E30 		strb	r3, [r4, #46]
 515:ThirdPackage/lwip_app/ethernetif.c ****   /* We directly use etharp_output() here to save a function call.
 1192              		.loc 1 515 3 is_stmt 1 discriminator 3 view .LVU297
 515:ThirdPackage/lwip_app/ethernetif.c ****   /* We directly use etharp_output() here to save a function call.
 1193              		.loc 1 515 18 is_stmt 0 discriminator 3 view .LVU298
 1194 000c 7423     		movs	r3, #116
 1195 000e 84F82F30 		strb	r3, [r4, #47]
 524:ThirdPackage/lwip_app/ethernetif.c **** #else
 1196              		.loc 1 524 3 is_stmt 1 discriminator 3 view .LVU299
 524:ThirdPackage/lwip_app/ethernetif.c **** #else
 1197              		.loc 1 524 17 is_stmt 0 discriminator 3 view .LVU300
ARM GAS  C:\Users\86188\AppData\Local\Temp\ccZBSQgi.s 			page 40


 1198 0012 084B     		ldr	r3, .L89
 1199 0014 6361     		str	r3, [r4, #20]
 536:ThirdPackage/lwip_app/ethernetif.c **** 
 1200              		.loc 1 536 3 is_stmt 1 discriminator 3 view .LVU301
 536:ThirdPackage/lwip_app/ethernetif.c **** 
 1201              		.loc 1 536 21 is_stmt 0 discriminator 3 view .LVU302
 1202 0016 084B     		ldr	r3, .L89+4
 1203 0018 A361     		str	r3, [r4, #24]
 539:ThirdPackage/lwip_app/ethernetif.c **** 
 1204              		.loc 1 539 3 is_stmt 1 discriminator 3 view .LVU303
 1205 001a 2046     		mov	r0, r4
 1206 001c FFF7FEFF 		bl	low_level_init
 1207              	.LVL94:
 541:ThirdPackage/lwip_app/ethernetif.c **** }
 1208              		.loc 1 541 3 discriminator 3 view .LVU304
 542:ThirdPackage/lwip_app/ethernetif.c **** 
 1209              		.loc 1 542 1 is_stmt 0 discriminator 3 view .LVU305
 1210 0020 0020     		movs	r0, #0
 1211 0022 10BD     		pop	{r4, pc}
 1212              	.LVL95:
 1213              	.L88:
 500:ThirdPackage/lwip_app/ethernetif.c **** 
 1214              		.loc 1 500 3 is_stmt 1 discriminator 1 view .LVU306
 500:ThirdPackage/lwip_app/ethernetif.c **** 
 1215              		.loc 1 500 3 discriminator 1 view .LVU307
 1216 0024 054B     		ldr	r3, .L89+8
 1217 0026 4FF4FA72 		mov	r2, #500
 1218 002a 0549     		ldr	r1, .L89+12
 1219 002c 0548     		ldr	r0, .L89+16
 1220              	.LVL96:
 500:ThirdPackage/lwip_app/ethernetif.c **** 
 1221              		.loc 1 500 3 is_stmt 0 discriminator 1 view .LVU308
 1222 002e FFF7FEFF 		bl	printf
 1223              	.LVL97:
 1224 0032 E8E7     		b	.L86
 1225              	.L90:
 1226              		.align	2
 1227              	.L89:
 1228 0034 00000000 		.word	etharp_output
 1229 0038 00000000 		.word	low_level_output
 1230 003c 00000000 		.word	.LC1
 1231 0040 24000000 		.word	.LC2
 1232 0044 34000000 		.word	.LC3
 1233              		.cfi_endproc
 1234              	.LFE167:
 1236              		.section	.text.sys_now,"ax",%progbits
 1237              		.align	1
 1238              		.global	sys_now
 1239              		.syntax unified
 1240              		.thumb
 1241              		.thumb_func
 1243              	sys_now:
 1244              	.LFB169:
 573:ThirdPackage/lwip_app/ethernetif.c ****   return HAL_GetTick();
 1245              		.loc 1 573 1 is_stmt 1 view -0
 1246              		.cfi_startproc
 1247              		@ args = 0, pretend = 0, frame = 0
ARM GAS  C:\Users\86188\AppData\Local\Temp\ccZBSQgi.s 			page 41


 1248              		@ frame_needed = 0, uses_anonymous_args = 0
 1249 0000 08B5     		push	{r3, lr}
 1250              	.LCFI27:
 1251              		.cfi_def_cfa_offset 8
 1252              		.cfi_offset 3, -8
 1253              		.cfi_offset 14, -4
 574:ThirdPackage/lwip_app/ethernetif.c **** }
 1254              		.loc 1 574 3 view .LVU310
 574:ThirdPackage/lwip_app/ethernetif.c **** }
 1255              		.loc 1 574 10 is_stmt 0 view .LVU311
 1256 0002 FFF7FEFF 		bl	HAL_GetTick
 1257              	.LVL98:
 575:ThirdPackage/lwip_app/ethernetif.c **** 
 1258              		.loc 1 575 1 view .LVU312
 1259 0006 08BD     		pop	{r3, pc}
 1260              		.cfi_endproc
 1261              	.LFE169:
 1263              		.section	.text.HAL_ETH_MspInit,"ax",%progbits
 1264              		.align	1
 1265              		.global	HAL_ETH_MspInit
 1266              		.syntax unified
 1267              		.thumb
 1268              		.thumb_func
 1270              	HAL_ETH_MspInit:
 1271              	.LVL99:
 1272              	.LFB170:
 586:ThirdPackage/lwip_app/ethernetif.c ****   GPIO_InitTypeDef GPIO_InitStruct = {0};
 1273              		.loc 1 586 1 is_stmt 1 view -0
 1274              		.cfi_startproc
 1275              		@ args = 0, pretend = 0, frame = 48
 1276              		@ frame_needed = 0, uses_anonymous_args = 0
 586:ThirdPackage/lwip_app/ethernetif.c ****   GPIO_InitTypeDef GPIO_InitStruct = {0};
 1277              		.loc 1 586 1 is_stmt 0 view .LVU314
 1278 0000 F0B5     		push	{r4, r5, r6, r7, lr}
 1279              	.LCFI28:
 1280              		.cfi_def_cfa_offset 20
 1281              		.cfi_offset 4, -20
 1282              		.cfi_offset 5, -16
 1283              		.cfi_offset 6, -12
 1284              		.cfi_offset 7, -8
 1285              		.cfi_offset 14, -4
 1286 0002 8DB0     		sub	sp, sp, #52
 1287              	.LCFI29:
 1288              		.cfi_def_cfa_offset 72
 587:ThirdPackage/lwip_app/ethernetif.c ****   if(ethHandle->Instance==ETH)
 1289              		.loc 1 587 3 is_stmt 1 view .LVU315
 587:ThirdPackage/lwip_app/ethernetif.c ****   if(ethHandle->Instance==ETH)
 1290              		.loc 1 587 20 is_stmt 0 view .LVU316
 1291 0004 0023     		movs	r3, #0
 1292 0006 0793     		str	r3, [sp, #28]
 1293 0008 0893     		str	r3, [sp, #32]
 1294 000a 0993     		str	r3, [sp, #36]
 1295 000c 0A93     		str	r3, [sp, #40]
 1296 000e 0B93     		str	r3, [sp, #44]
 588:ThirdPackage/lwip_app/ethernetif.c ****   {
 1297              		.loc 1 588 3 is_stmt 1 view .LVU317
 588:ThirdPackage/lwip_app/ethernetif.c ****   {
ARM GAS  C:\Users\86188\AppData\Local\Temp\ccZBSQgi.s 			page 42


 1298              		.loc 1 588 15 is_stmt 0 view .LVU318
 1299 0010 0268     		ldr	r2, [r0]
 588:ThirdPackage/lwip_app/ethernetif.c ****   {
 1300              		.loc 1 588 5 view .LVU319
 1301 0012 374B     		ldr	r3, .L97
 1302 0014 9A42     		cmp	r2, r3
 1303 0016 01D0     		beq	.L96
 1304              	.LVL100:
 1305              	.L93:
 638:ThirdPackage/lwip_app/ethernetif.c **** 
 1306              		.loc 1 638 1 view .LVU320
 1307 0018 0DB0     		add	sp, sp, #52
 1308              	.LCFI30:
 1309              		.cfi_remember_state
 1310              		.cfi_def_cfa_offset 20
 1311              		@ sp needed
 1312 001a F0BD     		pop	{r4, r5, r6, r7, pc}
 1313              	.LVL101:
 1314              	.L96:
 1315              	.LCFI31:
 1316              		.cfi_restore_state
 594:ThirdPackage/lwip_app/ethernetif.c **** 
 1317              		.loc 1 594 5 is_stmt 1 view .LVU321
 594:ThirdPackage/lwip_app/ethernetif.c **** 
 1318              		.loc 1 594 5 view .LVU322
 1319              	.LBB3:
 594:ThirdPackage/lwip_app/ethernetif.c **** 
 1320              		.loc 1 594 5 view .LVU323
 1321 001c 0024     		movs	r4, #0
 1322 001e 0194     		str	r4, [sp, #4]
 594:ThirdPackage/lwip_app/ethernetif.c **** 
 1323              		.loc 1 594 5 view .LVU324
 1324 0020 A3F59043 		sub	r3, r3, #18432
 1325 0024 1A6B     		ldr	r2, [r3, #48]
 1326 0026 42F00072 		orr	r2, r2, #33554432
 1327 002a 1A63     		str	r2, [r3, #48]
 594:ThirdPackage/lwip_app/ethernetif.c **** 
 1328              		.loc 1 594 5 view .LVU325
 1329 002c 1A6B     		ldr	r2, [r3, #48]
 1330 002e 02F00072 		and	r2, r2, #33554432
 1331 0032 0192     		str	r2, [sp, #4]
 594:ThirdPackage/lwip_app/ethernetif.c **** 
 1332              		.loc 1 594 5 view .LVU326
 1333 0034 019A     		ldr	r2, [sp, #4]
 1334              	.LBE3:
 594:ThirdPackage/lwip_app/ethernetif.c **** 
 1335              		.loc 1 594 5 view .LVU327
 594:ThirdPackage/lwip_app/ethernetif.c **** 
 1336              		.loc 1 594 5 view .LVU328
 1337              	.LBB4:
 594:ThirdPackage/lwip_app/ethernetif.c **** 
 1338              		.loc 1 594 5 view .LVU329
 1339 0036 0294     		str	r4, [sp, #8]
 594:ThirdPackage/lwip_app/ethernetif.c **** 
 1340              		.loc 1 594 5 view .LVU330
 1341 0038 1A6B     		ldr	r2, [r3, #48]
 1342 003a 42F08062 		orr	r2, r2, #67108864
ARM GAS  C:\Users\86188\AppData\Local\Temp\ccZBSQgi.s 			page 43


 1343 003e 1A63     		str	r2, [r3, #48]
 594:ThirdPackage/lwip_app/ethernetif.c **** 
 1344              		.loc 1 594 5 view .LVU331
 1345 0040 1A6B     		ldr	r2, [r3, #48]
 1346 0042 02F08062 		and	r2, r2, #67108864
 1347 0046 0292     		str	r2, [sp, #8]
 594:ThirdPackage/lwip_app/ethernetif.c **** 
 1348              		.loc 1 594 5 view .LVU332
 1349 0048 029A     		ldr	r2, [sp, #8]
 1350              	.LBE4:
 594:ThirdPackage/lwip_app/ethernetif.c **** 
 1351              		.loc 1 594 5 view .LVU333
 594:ThirdPackage/lwip_app/ethernetif.c **** 
 1352              		.loc 1 594 5 view .LVU334
 1353              	.LBB5:
 594:ThirdPackage/lwip_app/ethernetif.c **** 
 1354              		.loc 1 594 5 view .LVU335
 1355 004a 0394     		str	r4, [sp, #12]
 594:ThirdPackage/lwip_app/ethernetif.c **** 
 1356              		.loc 1 594 5 view .LVU336
 1357 004c 1A6B     		ldr	r2, [r3, #48]
 1358 004e 42F00062 		orr	r2, r2, #134217728
 1359 0052 1A63     		str	r2, [r3, #48]
 594:ThirdPackage/lwip_app/ethernetif.c **** 
 1360              		.loc 1 594 5 view .LVU337
 1361 0054 1A6B     		ldr	r2, [r3, #48]
 1362 0056 02F00062 		and	r2, r2, #134217728
 1363 005a 0392     		str	r2, [sp, #12]
 594:ThirdPackage/lwip_app/ethernetif.c **** 
 1364              		.loc 1 594 5 view .LVU338
 1365 005c 039A     		ldr	r2, [sp, #12]
 1366              	.LBE5:
 594:ThirdPackage/lwip_app/ethernetif.c **** 
 1367              		.loc 1 594 5 view .LVU339
 594:ThirdPackage/lwip_app/ethernetif.c **** 
 1368              		.loc 1 594 5 view .LVU340
 596:ThirdPackage/lwip_app/ethernetif.c ****     __HAL_RCC_GPIOA_CLK_ENABLE();
 1369              		.loc 1 596 5 view .LVU341
 1370              	.LBB6:
 596:ThirdPackage/lwip_app/ethernetif.c ****     __HAL_RCC_GPIOA_CLK_ENABLE();
 1371              		.loc 1 596 5 view .LVU342
 1372 005e 0494     		str	r4, [sp, #16]
 596:ThirdPackage/lwip_app/ethernetif.c ****     __HAL_RCC_GPIOA_CLK_ENABLE();
 1373              		.loc 1 596 5 view .LVU343
 1374 0060 1A6B     		ldr	r2, [r3, #48]
 1375 0062 42F00402 		orr	r2, r2, #4
 1376 0066 1A63     		str	r2, [r3, #48]
 596:ThirdPackage/lwip_app/ethernetif.c ****     __HAL_RCC_GPIOA_CLK_ENABLE();
 1377              		.loc 1 596 5 view .LVU344
 1378 0068 1A6B     		ldr	r2, [r3, #48]
 1379 006a 02F00402 		and	r2, r2, #4
 1380 006e 0492     		str	r2, [sp, #16]
 596:ThirdPackage/lwip_app/ethernetif.c ****     __HAL_RCC_GPIOA_CLK_ENABLE();
 1381              		.loc 1 596 5 view .LVU345
 1382 0070 049A     		ldr	r2, [sp, #16]
 1383              	.LBE6:
 596:ThirdPackage/lwip_app/ethernetif.c ****     __HAL_RCC_GPIOA_CLK_ENABLE();
ARM GAS  C:\Users\86188\AppData\Local\Temp\ccZBSQgi.s 			page 44


 1384              		.loc 1 596 5 view .LVU346
 597:ThirdPackage/lwip_app/ethernetif.c ****     __HAL_RCC_GPIOB_CLK_ENABLE();
 1385              		.loc 1 597 5 view .LVU347
 1386              	.LBB7:
 597:ThirdPackage/lwip_app/ethernetif.c ****     __HAL_RCC_GPIOB_CLK_ENABLE();
 1387              		.loc 1 597 5 view .LVU348
 1388 0072 0594     		str	r4, [sp, #20]
 597:ThirdPackage/lwip_app/ethernetif.c ****     __HAL_RCC_GPIOB_CLK_ENABLE();
 1389              		.loc 1 597 5 view .LVU349
 1390 0074 1A6B     		ldr	r2, [r3, #48]
 1391 0076 42F00102 		orr	r2, r2, #1
 1392 007a 1A63     		str	r2, [r3, #48]
 597:ThirdPackage/lwip_app/ethernetif.c ****     __HAL_RCC_GPIOB_CLK_ENABLE();
 1393              		.loc 1 597 5 view .LVU350
 1394 007c 1A6B     		ldr	r2, [r3, #48]
 1395 007e 02F00102 		and	r2, r2, #1
 1396 0082 0592     		str	r2, [sp, #20]
 597:ThirdPackage/lwip_app/ethernetif.c ****     __HAL_RCC_GPIOB_CLK_ENABLE();
 1397              		.loc 1 597 5 view .LVU351
 1398 0084 059A     		ldr	r2, [sp, #20]
 1399              	.LBE7:
 597:ThirdPackage/lwip_app/ethernetif.c ****     __HAL_RCC_GPIOB_CLK_ENABLE();
 1400              		.loc 1 597 5 view .LVU352
 598:ThirdPackage/lwip_app/ethernetif.c ****     /**ETH GPIO Configuration
 1401              		.loc 1 598 5 view .LVU353
 1402              	.LBB8:
 598:ThirdPackage/lwip_app/ethernetif.c ****     /**ETH GPIO Configuration
 1403              		.loc 1 598 5 view .LVU354
 1404 0086 0694     		str	r4, [sp, #24]
 598:ThirdPackage/lwip_app/ethernetif.c ****     /**ETH GPIO Configuration
 1405              		.loc 1 598 5 view .LVU355
 1406 0088 1A6B     		ldr	r2, [r3, #48]
 1407 008a 42F00202 		orr	r2, r2, #2
 1408 008e 1A63     		str	r2, [r3, #48]
 598:ThirdPackage/lwip_app/ethernetif.c ****     /**ETH GPIO Configuration
 1409              		.loc 1 598 5 view .LVU356
 1410 0090 1B6B     		ldr	r3, [r3, #48]
 1411 0092 03F00203 		and	r3, r3, #2
 1412 0096 0693     		str	r3, [sp, #24]
 598:ThirdPackage/lwip_app/ethernetif.c ****     /**ETH GPIO Configuration
 1413              		.loc 1 598 5 view .LVU357
 1414 0098 069B     		ldr	r3, [sp, #24]
 1415              	.LBE8:
 598:ThirdPackage/lwip_app/ethernetif.c ****     /**ETH GPIO Configuration
 1416              		.loc 1 598 5 view .LVU358
 610:ThirdPackage/lwip_app/ethernetif.c ****     GPIO_InitStruct.Mode = GPIO_MODE_AF_PP;
 1417              		.loc 1 610 5 view .LVU359
 610:ThirdPackage/lwip_app/ethernetif.c ****     GPIO_InitStruct.Mode = GPIO_MODE_AF_PP;
 1418              		.loc 1 610 25 is_stmt 0 view .LVU360
 1419 009a 3223     		movs	r3, #50
 1420 009c 0793     		str	r3, [sp, #28]
 611:ThirdPackage/lwip_app/ethernetif.c ****     GPIO_InitStruct.Pull = GPIO_NOPULL;
 1421              		.loc 1 611 5 is_stmt 1 view .LVU361
 611:ThirdPackage/lwip_app/ethernetif.c ****     GPIO_InitStruct.Pull = GPIO_NOPULL;
 1422              		.loc 1 611 26 is_stmt 0 view .LVU362
 1423 009e 0227     		movs	r7, #2
 1424 00a0 0897     		str	r7, [sp, #32]
ARM GAS  C:\Users\86188\AppData\Local\Temp\ccZBSQgi.s 			page 45


 612:ThirdPackage/lwip_app/ethernetif.c ****     GPIO_InitStruct.Speed = GPIO_SPEED_FREQ_VERY_HIGH;
 1425              		.loc 1 612 5 is_stmt 1 view .LVU363
 613:ThirdPackage/lwip_app/ethernetif.c ****     GPIO_InitStruct.Alternate = GPIO_AF11_ETH;
 1426              		.loc 1 613 5 view .LVU364
 613:ThirdPackage/lwip_app/ethernetif.c ****     GPIO_InitStruct.Alternate = GPIO_AF11_ETH;
 1427              		.loc 1 613 27 is_stmt 0 view .LVU365
 1428 00a2 0326     		movs	r6, #3
 1429 00a4 0A96     		str	r6, [sp, #40]
 614:ThirdPackage/lwip_app/ethernetif.c ****     HAL_GPIO_Init(GPIOC, &GPIO_InitStruct);
 1430              		.loc 1 614 5 is_stmt 1 view .LVU366
 614:ThirdPackage/lwip_app/ethernetif.c ****     HAL_GPIO_Init(GPIOC, &GPIO_InitStruct);
 1431              		.loc 1 614 31 is_stmt 0 view .LVU367
 1432 00a6 0B25     		movs	r5, #11
 1433 00a8 0B95     		str	r5, [sp, #44]
 615:ThirdPackage/lwip_app/ethernetif.c **** 
 1434              		.loc 1 615 5 is_stmt 1 view .LVU368
 1435 00aa 07A9     		add	r1, sp, #28
 1436 00ac 1148     		ldr	r0, .L97+4
 1437              	.LVL102:
 615:ThirdPackage/lwip_app/ethernetif.c **** 
 1438              		.loc 1 615 5 is_stmt 0 view .LVU369
 1439 00ae FFF7FEFF 		bl	HAL_GPIO_Init
 1440              	.LVL103:
 617:ThirdPackage/lwip_app/ethernetif.c ****     GPIO_InitStruct.Mode = GPIO_MODE_AF_PP;
 1441              		.loc 1 617 5 is_stmt 1 view .LVU370
 617:ThirdPackage/lwip_app/ethernetif.c ****     GPIO_InitStruct.Mode = GPIO_MODE_AF_PP;
 1442              		.loc 1 617 25 is_stmt 0 view .LVU371
 1443 00b2 8623     		movs	r3, #134
 1444 00b4 0793     		str	r3, [sp, #28]
 618:ThirdPackage/lwip_app/ethernetif.c ****     GPIO_InitStruct.Pull = GPIO_NOPULL;
 1445              		.loc 1 618 5 is_stmt 1 view .LVU372
 618:ThirdPackage/lwip_app/ethernetif.c ****     GPIO_InitStruct.Pull = GPIO_NOPULL;
 1446              		.loc 1 618 26 is_stmt 0 view .LVU373
 1447 00b6 0897     		str	r7, [sp, #32]
 619:ThirdPackage/lwip_app/ethernetif.c ****     GPIO_InitStruct.Speed = GPIO_SPEED_FREQ_VERY_HIGH;
 1448              		.loc 1 619 5 is_stmt 1 view .LVU374
 619:ThirdPackage/lwip_app/ethernetif.c ****     GPIO_InitStruct.Speed = GPIO_SPEED_FREQ_VERY_HIGH;
 1449              		.loc 1 619 26 is_stmt 0 view .LVU375
 1450 00b8 0994     		str	r4, [sp, #36]
 620:ThirdPackage/lwip_app/ethernetif.c ****     GPIO_InitStruct.Alternate = GPIO_AF11_ETH;
 1451              		.loc 1 620 5 is_stmt 1 view .LVU376
 620:ThirdPackage/lwip_app/ethernetif.c ****     GPIO_InitStruct.Alternate = GPIO_AF11_ETH;
 1452              		.loc 1 620 27 is_stmt 0 view .LVU377
 1453 00ba 0A96     		str	r6, [sp, #40]
 621:ThirdPackage/lwip_app/ethernetif.c ****     HAL_GPIO_Init(GPIOA, &GPIO_InitStruct);
 1454              		.loc 1 621 5 is_stmt 1 view .LVU378
 621:ThirdPackage/lwip_app/ethernetif.c ****     HAL_GPIO_Init(GPIOA, &GPIO_InitStruct);
 1455              		.loc 1 621 31 is_stmt 0 view .LVU379
 1456 00bc 0B95     		str	r5, [sp, #44]
 622:ThirdPackage/lwip_app/ethernetif.c **** 
 1457              		.loc 1 622 5 is_stmt 1 view .LVU380
 1458 00be 07A9     		add	r1, sp, #28
 1459 00c0 0D48     		ldr	r0, .L97+8
 1460 00c2 FFF7FEFF 		bl	HAL_GPIO_Init
 1461              	.LVL104:
 624:ThirdPackage/lwip_app/ethernetif.c ****     GPIO_InitStruct.Mode = GPIO_MODE_AF_PP;
 1462              		.loc 1 624 5 view .LVU381
ARM GAS  C:\Users\86188\AppData\Local\Temp\ccZBSQgi.s 			page 46


 624:ThirdPackage/lwip_app/ethernetif.c ****     GPIO_InitStruct.Mode = GPIO_MODE_AF_PP;
 1463              		.loc 1 624 25 is_stmt 0 view .LVU382
 1464 00c6 4FF46053 		mov	r3, #14336
 1465 00ca 0793     		str	r3, [sp, #28]
 625:ThirdPackage/lwip_app/ethernetif.c ****     GPIO_InitStruct.Pull = GPIO_NOPULL;
 1466              		.loc 1 625 5 is_stmt 1 view .LVU383
 625:ThirdPackage/lwip_app/ethernetif.c ****     GPIO_InitStruct.Pull = GPIO_NOPULL;
 1467              		.loc 1 625 26 is_stmt 0 view .LVU384
 1468 00cc 0897     		str	r7, [sp, #32]
 626:ThirdPackage/lwip_app/ethernetif.c ****     GPIO_InitStruct.Speed = GPIO_SPEED_FREQ_VERY_HIGH;
 1469              		.loc 1 626 5 is_stmt 1 view .LVU385
 626:ThirdPackage/lwip_app/ethernetif.c ****     GPIO_InitStruct.Speed = GPIO_SPEED_FREQ_VERY_HIGH;
 1470              		.loc 1 626 26 is_stmt 0 view .LVU386
 1471 00ce 0994     		str	r4, [sp, #36]
 627:ThirdPackage/lwip_app/ethernetif.c ****     GPIO_InitStruct.Alternate = GPIO_AF11_ETH;
 1472              		.loc 1 627 5 is_stmt 1 view .LVU387
 627:ThirdPackage/lwip_app/ethernetif.c ****     GPIO_InitStruct.Alternate = GPIO_AF11_ETH;
 1473              		.loc 1 627 27 is_stmt 0 view .LVU388
 1474 00d0 0A96     		str	r6, [sp, #40]
 628:ThirdPackage/lwip_app/ethernetif.c ****     HAL_GPIO_Init(GPIOB, &GPIO_InitStruct);
 1475              		.loc 1 628 5 is_stmt 1 view .LVU389
 628:ThirdPackage/lwip_app/ethernetif.c ****     HAL_GPIO_Init(GPIOB, &GPIO_InitStruct);
 1476              		.loc 1 628 31 is_stmt 0 view .LVU390
 1477 00d2 0B95     		str	r5, [sp, #44]
 629:ThirdPackage/lwip_app/ethernetif.c **** 
 1478              		.loc 1 629 5 is_stmt 1 view .LVU391
 1479 00d4 07A9     		add	r1, sp, #28
 1480 00d6 0948     		ldr	r0, .L97+12
 1481 00d8 FFF7FEFF 		bl	HAL_GPIO_Init
 1482              	.LVL105:
 632:ThirdPackage/lwip_app/ethernetif.c ****     HAL_NVIC_EnableIRQ(ETH_IRQn);
 1483              		.loc 1 632 5 view .LVU392
 1484 00dc 2246     		mov	r2, r4
 1485 00de 0F21     		movs	r1, #15
 1486 00e0 3D20     		movs	r0, #61
 1487 00e2 FFF7FEFF 		bl	HAL_NVIC_SetPriority
 1488              	.LVL106:
 633:ThirdPackage/lwip_app/ethernetif.c ****   /* USER CODE BEGIN ETH_MspInit 1 */
 1489              		.loc 1 633 5 view .LVU393
 1490 00e6 3D20     		movs	r0, #61
 1491 00e8 FFF7FEFF 		bl	HAL_NVIC_EnableIRQ
 1492              	.LVL107:
 638:ThirdPackage/lwip_app/ethernetif.c **** 
 1493              		.loc 1 638 1 is_stmt 0 view .LVU394
 1494 00ec 94E7     		b	.L93
 1495              	.L98:
 1496 00ee 00BF     		.align	2
 1497              	.L97:
 1498 00f0 00800240 		.word	1073905664
 1499 00f4 00080240 		.word	1073874944
 1500 00f8 00000240 		.word	1073872896
 1501 00fc 00040240 		.word	1073873920
 1502              		.cfi_endproc
 1503              	.LFE170:
 1505              		.section	.text.HAL_ETH_MspDeInit,"ax",%progbits
 1506              		.align	1
 1507              		.global	HAL_ETH_MspDeInit
ARM GAS  C:\Users\86188\AppData\Local\Temp\ccZBSQgi.s 			page 47


 1508              		.syntax unified
 1509              		.thumb
 1510              		.thumb_func
 1512              	HAL_ETH_MspDeInit:
 1513              	.LVL108:
 1514              	.LFB171:
 641:ThirdPackage/lwip_app/ethernetif.c ****   if(ethHandle->Instance==ETH)
 1515              		.loc 1 641 1 is_stmt 1 view -0
 1516              		.cfi_startproc
 1517              		@ args = 0, pretend = 0, frame = 0
 1518              		@ frame_needed = 0, uses_anonymous_args = 0
 641:ThirdPackage/lwip_app/ethernetif.c ****   if(ethHandle->Instance==ETH)
 1519              		.loc 1 641 1 is_stmt 0 view .LVU396
 1520 0000 08B5     		push	{r3, lr}
 1521              	.LCFI32:
 1522              		.cfi_def_cfa_offset 8
 1523              		.cfi_offset 3, -8
 1524              		.cfi_offset 14, -4
 642:ThirdPackage/lwip_app/ethernetif.c ****   {
 1525              		.loc 1 642 3 is_stmt 1 view .LVU397
 642:ThirdPackage/lwip_app/ethernetif.c ****   {
 1526              		.loc 1 642 15 is_stmt 0 view .LVU398
 1527 0002 0268     		ldr	r2, [r0]
 642:ThirdPackage/lwip_app/ethernetif.c ****   {
 1528              		.loc 1 642 5 view .LVU399
 1529 0004 114B     		ldr	r3, .L103
 1530 0006 9A42     		cmp	r2, r3
 1531 0008 00D0     		beq	.L102
 1532              	.LVL109:
 1533              	.L99:
 674:ThirdPackage/lwip_app/ethernetif.c **** 
 1534              		.loc 1 674 1 view .LVU400
 1535 000a 08BD     		pop	{r3, pc}
 1536              	.LVL110:
 1537              	.L102:
 648:ThirdPackage/lwip_app/ethernetif.c **** 
 1538              		.loc 1 648 5 is_stmt 1 view .LVU401
 648:ThirdPackage/lwip_app/ethernetif.c **** 
 1539              		.loc 1 648 5 view .LVU402
 1540 000c A3F59043 		sub	r3, r3, #18432
 1541 0010 1A6B     		ldr	r2, [r3, #48]
 1542 0012 22F08062 		bic	r2, r2, #67108864
 1543 0016 1A63     		str	r2, [r3, #48]
 648:ThirdPackage/lwip_app/ethernetif.c **** 
 1544              		.loc 1 648 5 view .LVU403
 1545 0018 1A6B     		ldr	r2, [r3, #48]
 1546 001a 22F00062 		bic	r2, r2, #134217728
 1547 001e 1A63     		str	r2, [r3, #48]
 648:ThirdPackage/lwip_app/ethernetif.c **** 
 1548              		.loc 1 648 5 view .LVU404
 1549 0020 1A6B     		ldr	r2, [r3, #48]
 1550 0022 22F00072 		bic	r2, r2, #33554432
 1551 0026 1A63     		str	r2, [r3, #48]
 648:ThirdPackage/lwip_app/ethernetif.c **** 
 1552              		.loc 1 648 5 view .LVU405
 661:ThirdPackage/lwip_app/ethernetif.c **** 
 1553              		.loc 1 661 5 view .LVU406
ARM GAS  C:\Users\86188\AppData\Local\Temp\ccZBSQgi.s 			page 48


 1554 0028 3221     		movs	r1, #50
 1555 002a 0948     		ldr	r0, .L103+4
 1556              	.LVL111:
 661:ThirdPackage/lwip_app/ethernetif.c **** 
 1557              		.loc 1 661 5 is_stmt 0 view .LVU407
 1558 002c FFF7FEFF 		bl	HAL_GPIO_DeInit
 1559              	.LVL112:
 663:ThirdPackage/lwip_app/ethernetif.c **** 
 1560              		.loc 1 663 5 is_stmt 1 view .LVU408
 1561 0030 8621     		movs	r1, #134
 1562 0032 0848     		ldr	r0, .L103+8
 1563 0034 FFF7FEFF 		bl	HAL_GPIO_DeInit
 1564              	.LVL113:
 665:ThirdPackage/lwip_app/ethernetif.c **** 
 1565              		.loc 1 665 5 view .LVU409
 1566 0038 4FF46051 		mov	r1, #14336
 1567 003c 0648     		ldr	r0, .L103+12
 1568 003e FFF7FEFF 		bl	HAL_GPIO_DeInit
 1569              	.LVL114:
 668:ThirdPackage/lwip_app/ethernetif.c **** 
 1570              		.loc 1 668 5 view .LVU410
 1571 0042 3D20     		movs	r0, #61
 1572 0044 FFF7FEFF 		bl	HAL_NVIC_DisableIRQ
 1573              	.LVL115:
 674:ThirdPackage/lwip_app/ethernetif.c **** 
 1574              		.loc 1 674 1 is_stmt 0 view .LVU411
 1575 0048 DFE7     		b	.L99
 1576              	.L104:
 1577 004a 00BF     		.align	2
 1578              	.L103:
 1579 004c 00800240 		.word	1073905664
 1580 0050 00080240 		.word	1073874944
 1581 0054 00000240 		.word	1073872896
 1582 0058 00040240 		.word	1073873920
 1583              		.cfi_endproc
 1584              	.LFE171:
 1586              		.section	.text.ethernet_link_thread,"ax",%progbits
 1587              		.align	1
 1588              		.global	ethernet_link_thread
 1589              		.syntax unified
 1590              		.thumb
 1591              		.thumb_func
 1593              	ethernet_link_thread:
 1594              	.LVL116:
 1595              	.LFB177:
 748:ThirdPackage/lwip_app/ethernetif.c **** 
 749:ThirdPackage/lwip_app/ethernetif.c **** /**
 750:ThirdPackage/lwip_app/ethernetif.c ****   * @brief  Check the ETH link state then update ETH driver and netif link accordingly.
 751:ThirdPackage/lwip_app/ethernetif.c ****   * @retval None
 752:ThirdPackage/lwip_app/ethernetif.c ****   */
 753:ThirdPackage/lwip_app/ethernetif.c **** 
 754:ThirdPackage/lwip_app/ethernetif.c **** extern struct netif gnetif;
 755:ThirdPackage/lwip_app/ethernetif.c **** void ethernet_link_thread(void *argument)
 756:ThirdPackage/lwip_app/ethernetif.c **** {
 1596              		.loc 1 756 1 is_stmt 1 view -0
 1597              		.cfi_startproc
 1598              		@ args = 0, pretend = 0, frame = 104
ARM GAS  C:\Users\86188\AppData\Local\Temp\ccZBSQgi.s 			page 49


 1599              		@ frame_needed = 0, uses_anonymous_args = 0
 1600              		.loc 1 756 1 is_stmt 0 view .LVU413
 1601 0000 F0B5     		push	{r4, r5, r6, r7, lr}
 1602              	.LCFI33:
 1603              		.cfi_def_cfa_offset 20
 1604              		.cfi_offset 4, -20
 1605              		.cfi_offset 5, -16
 1606              		.cfi_offset 6, -12
 1607              		.cfi_offset 7, -8
 1608              		.cfi_offset 14, -4
 1609 0002 9BB0     		sub	sp, sp, #108
 1610              	.LCFI34:
 1611              		.cfi_def_cfa_offset 128
 757:ThirdPackage/lwip_app/ethernetif.c ****   ETH_MACConfigTypeDef MACConf = {0};
 1612              		.loc 1 757 3 is_stmt 1 view .LVU414
 1613              		.loc 1 757 24 is_stmt 0 view .LVU415
 1614 0004 6422     		movs	r2, #100
 1615 0006 0021     		movs	r1, #0
 1616 0008 01A8     		add	r0, sp, #4
 1617              	.LVL117:
 1618              		.loc 1 757 24 view .LVU416
 1619 000a FFF7FEFF 		bl	memset
 1620              	.LVL118:
 758:ThirdPackage/lwip_app/ethernetif.c ****   int32_t PHYLinkState = 0;
 1621              		.loc 1 758 3 is_stmt 1 view .LVU417
 759:ThirdPackage/lwip_app/ethernetif.c ****   uint32_t linkchanged = 0U, speed = 0U, duplex = 0U;
 1622              		.loc 1 759 3 view .LVU418
 760:ThirdPackage/lwip_app/ethernetif.c **** 
 761:ThirdPackage/lwip_app/ethernetif.c ****   struct netif *netif = (struct netif *) &gnetif;
 1623              		.loc 1 761 3 view .LVU419
 759:ThirdPackage/lwip_app/ethernetif.c ****   uint32_t linkchanged = 0U, speed = 0U, duplex = 0U;
 1624              		.loc 1 759 42 is_stmt 0 view .LVU420
 1625 000e 0025     		movs	r5, #0
 759:ThirdPackage/lwip_app/ethernetif.c ****   uint32_t linkchanged = 0U, speed = 0U, duplex = 0U;
 1626              		.loc 1 759 30 view .LVU421
 1627 0010 2E46     		mov	r6, r5
 759:ThirdPackage/lwip_app/ethernetif.c ****   uint32_t linkchanged = 0U, speed = 0U, duplex = 0U;
 1628              		.loc 1 759 12 view .LVU422
 1629 0012 2C46     		mov	r4, r5
 1630 0014 0CE0     		b	.L114
 1631              	.LVL119:
 1632              	.L117:
 762:ThirdPackage/lwip_app/ethernetif.c **** /* USER CODE BEGIN ETH link init */
 763:ThirdPackage/lwip_app/ethernetif.c **** 
 764:ThirdPackage/lwip_app/ethernetif.c **** /* USER CODE END ETH link init */
 765:ThirdPackage/lwip_app/ethernetif.c **** 
 766:ThirdPackage/lwip_app/ethernetif.c ****   for(;;)
 767:ThirdPackage/lwip_app/ethernetif.c ****   {
 768:ThirdPackage/lwip_app/ethernetif.c ****   PHYLinkState = DP83848_GetLinkState(&DP83848);
 769:ThirdPackage/lwip_app/ethernetif.c **** 
 770:ThirdPackage/lwip_app/ethernetif.c ****   if(netif_is_link_up(netif) && (PHYLinkState <= DP83848_STATUS_LINK_DOWN))
 771:ThirdPackage/lwip_app/ethernetif.c ****   {
 772:ThirdPackage/lwip_app/ethernetif.c ****     HAL_ETH_Stop_IT(&heth);
 1633              		.loc 1 772 5 is_stmt 1 view .LVU423
 1634 0016 2748     		ldr	r0, .L118
 1635              	.LVL120:
 1636              		.loc 1 772 5 is_stmt 0 view .LVU424
ARM GAS  C:\Users\86188\AppData\Local\Temp\ccZBSQgi.s 			page 50


 1637 0018 FFF7FEFF 		bl	HAL_ETH_Stop_IT
 1638              	.LVL121:
 773:ThirdPackage/lwip_app/ethernetif.c ****     netif_set_down(netif);
 1639              		.loc 1 773 5 is_stmt 1 view .LVU425
 1640 001c 264F     		ldr	r7, .L118+4
 1641 001e 3846     		mov	r0, r7
 1642 0020 FFF7FEFF 		bl	netif_set_down
 1643              	.LVL122:
 774:ThirdPackage/lwip_app/ethernetif.c ****     netif_set_link_down(netif);
 1644              		.loc 1 774 5 view .LVU426
 1645 0024 3846     		mov	r0, r7
 1646 0026 FFF7FEFF 		bl	netif_set_link_down
 1647              	.LVL123:
 1648              	.L107:
 775:ThirdPackage/lwip_app/ethernetif.c ****   }
 776:ThirdPackage/lwip_app/ethernetif.c ****   else if(!netif_is_link_up(netif) && (PHYLinkState > DP83848_STATUS_LINK_DOWN))
 777:ThirdPackage/lwip_app/ethernetif.c ****   {
 778:ThirdPackage/lwip_app/ethernetif.c ****     switch (PHYLinkState)
 779:ThirdPackage/lwip_app/ethernetif.c ****     {
 780:ThirdPackage/lwip_app/ethernetif.c ****     case DP83848_STATUS_100MBITS_FULLDUPLEX:
 781:ThirdPackage/lwip_app/ethernetif.c ****       duplex = ETH_FULLDUPLEX_MODE;
 782:ThirdPackage/lwip_app/ethernetif.c ****       speed = ETH_SPEED_100M;
 783:ThirdPackage/lwip_app/ethernetif.c ****       linkchanged = 1;
 784:ThirdPackage/lwip_app/ethernetif.c ****       break;
 785:ThirdPackage/lwip_app/ethernetif.c ****     case DP83848_STATUS_100MBITS_HALFDUPLEX:
 786:ThirdPackage/lwip_app/ethernetif.c ****       duplex = ETH_HALFDUPLEX_MODE;
 787:ThirdPackage/lwip_app/ethernetif.c ****       speed = ETH_SPEED_100M;
 788:ThirdPackage/lwip_app/ethernetif.c ****       linkchanged = 1;
 789:ThirdPackage/lwip_app/ethernetif.c ****       break;
 790:ThirdPackage/lwip_app/ethernetif.c ****     case DP83848_STATUS_10MBITS_FULLDUPLEX:
 791:ThirdPackage/lwip_app/ethernetif.c ****       duplex = ETH_FULLDUPLEX_MODE;
 792:ThirdPackage/lwip_app/ethernetif.c ****       speed = ETH_SPEED_10M;
 793:ThirdPackage/lwip_app/ethernetif.c ****       linkchanged = 1;
 794:ThirdPackage/lwip_app/ethernetif.c ****       break;
 795:ThirdPackage/lwip_app/ethernetif.c ****     case DP83848_STATUS_10MBITS_HALFDUPLEX:
 796:ThirdPackage/lwip_app/ethernetif.c ****       duplex = ETH_HALFDUPLEX_MODE;
 797:ThirdPackage/lwip_app/ethernetif.c ****       speed = ETH_SPEED_10M;
 798:ThirdPackage/lwip_app/ethernetif.c ****       linkchanged = 1;
 799:ThirdPackage/lwip_app/ethernetif.c ****       break;
 800:ThirdPackage/lwip_app/ethernetif.c ****     default:
 801:ThirdPackage/lwip_app/ethernetif.c ****       break;
 802:ThirdPackage/lwip_app/ethernetif.c ****     }
 803:ThirdPackage/lwip_app/ethernetif.c **** 
 804:ThirdPackage/lwip_app/ethernetif.c ****     if(linkchanged)
 805:ThirdPackage/lwip_app/ethernetif.c ****     {
 806:ThirdPackage/lwip_app/ethernetif.c ****       /* Get MAC Config MAC */
 807:ThirdPackage/lwip_app/ethernetif.c ****       HAL_ETH_GetMACConfig(&heth, &MACConf);
 808:ThirdPackage/lwip_app/ethernetif.c ****       MACConf.DuplexMode = duplex;
 809:ThirdPackage/lwip_app/ethernetif.c ****       MACConf.Speed = speed;
 810:ThirdPackage/lwip_app/ethernetif.c ****       HAL_ETH_SetMACConfig(&heth, &MACConf);
 811:ThirdPackage/lwip_app/ethernetif.c ****       HAL_ETH_Start_IT(&heth);
 812:ThirdPackage/lwip_app/ethernetif.c ****       netif_set_up(netif);
 813:ThirdPackage/lwip_app/ethernetif.c ****       netif_set_link_up(netif);
 814:ThirdPackage/lwip_app/ethernetif.c ****     }
 815:ThirdPackage/lwip_app/ethernetif.c ****   }
 816:ThirdPackage/lwip_app/ethernetif.c **** 
 817:ThirdPackage/lwip_app/ethernetif.c **** /* USER CODE BEGIN ETH link Thread core code for User BSP */
ARM GAS  C:\Users\86188\AppData\Local\Temp\ccZBSQgi.s 			page 51


 818:ThirdPackage/lwip_app/ethernetif.c **** 
 819:ThirdPackage/lwip_app/ethernetif.c **** /* USER CODE END ETH link Thread core code for User BSP */
 820:ThirdPackage/lwip_app/ethernetif.c **** 
 821:ThirdPackage/lwip_app/ethernetif.c ****     vTaskDelay(100);
 1649              		.loc 1 821 5 view .LVU427
 1650 002a 6420     		movs	r0, #100
 1651 002c FFF7FEFF 		bl	vTaskDelay
 1652              	.LVL124:
 766:ThirdPackage/lwip_app/ethernetif.c ****   {
 1653              		.loc 1 766 8 view .LVU428
 1654              	.L114:
 766:ThirdPackage/lwip_app/ethernetif.c ****   {
 1655              		.loc 1 766 3 view .LVU429
 768:ThirdPackage/lwip_app/ethernetif.c **** 
 1656              		.loc 1 768 3 view .LVU430
 768:ThirdPackage/lwip_app/ethernetif.c **** 
 1657              		.loc 1 768 18 is_stmt 0 view .LVU431
 1658 0030 2248     		ldr	r0, .L118+8
 1659 0032 FFF7FEFF 		bl	DP83848_GetLinkState
 1660              	.LVL125:
 770:ThirdPackage/lwip_app/ethernetif.c ****   {
 1661              		.loc 1 770 3 is_stmt 1 view .LVU432
 770:ThirdPackage/lwip_app/ethernetif.c ****   {
 1662              		.loc 1 770 6 is_stmt 0 view .LVU433
 1663 0036 204B     		ldr	r3, .L118+4
 1664 0038 93F82D30 		ldrb	r3, [r3, #45]	@ zero_extendqisi2
 770:ThirdPackage/lwip_app/ethernetif.c ****   {
 1665              		.loc 1 770 5 view .LVU434
 1666 003c 13F0040F 		tst	r3, #4
 1667 0040 01D0     		beq	.L106
 770:ThirdPackage/lwip_app/ethernetif.c ****   {
 1668              		.loc 1 770 30 discriminator 1 view .LVU435
 1669 0042 0128     		cmp	r0, #1
 1670 0044 E7DD     		ble	.L117
 1671              	.L106:
 776:ThirdPackage/lwip_app/ethernetif.c ****   {
 1672              		.loc 1 776 8 is_stmt 1 view .LVU436
 776:ThirdPackage/lwip_app/ethernetif.c ****   {
 1673              		.loc 1 776 10 is_stmt 0 view .LVU437
 1674 0046 13F0040F 		tst	r3, #4
 1675 004a EED1     		bne	.L107
 776:ThirdPackage/lwip_app/ethernetif.c ****   {
 1676              		.loc 1 776 36 discriminator 1 view .LVU438
 1677 004c 0128     		cmp	r0, #1
 1678 004e ECDD     		ble	.L107
 778:ThirdPackage/lwip_app/ethernetif.c ****     {
 1679              		.loc 1 778 5 is_stmt 1 view .LVU439
 1680 0050 0238     		subs	r0, r0, #2
 1681              	.LVL126:
 778:ThirdPackage/lwip_app/ethernetif.c ****     {
 1682              		.loc 1 778 5 is_stmt 0 view .LVU440
 1683 0052 0328     		cmp	r0, #3
 1684 0054 16D8     		bhi	.L113
 1685 0056 DFE800F0 		tbb	[pc, r0]
 1686              	.L110:
 1687 005a 10       		.byte	(.L115-.L110)/2
 1688 005b 02       		.byte	(.L112-.L110)/2
ARM GAS  C:\Users\86188\AppData\Local\Temp\ccZBSQgi.s 			page 52


 1689 005c 07       		.byte	(.L111-.L110)/2
 1690 005d 0C       		.byte	(.L109-.L110)/2
 1691              		.p2align 1
 1692              	.L112:
 786:ThirdPackage/lwip_app/ethernetif.c ****       speed = ETH_SPEED_100M;
 1693              		.loc 1 786 7 is_stmt 1 view .LVU441
 1694              	.LVL127:
 787:ThirdPackage/lwip_app/ethernetif.c ****       linkchanged = 1;
 1695              		.loc 1 787 7 view .LVU442
 788:ThirdPackage/lwip_app/ethernetif.c ****       break;
 1696              		.loc 1 788 7 view .LVU443
 789:ThirdPackage/lwip_app/ethernetif.c ****     case DP83848_STATUS_10MBITS_FULLDUPLEX:
 1697              		.loc 1 789 7 view .LVU444
 786:ThirdPackage/lwip_app/ethernetif.c ****       speed = ETH_SPEED_100M;
 1698              		.loc 1 786 14 is_stmt 0 view .LVU445
 1699 005e 0025     		movs	r5, #0
 787:ThirdPackage/lwip_app/ethernetif.c ****       linkchanged = 1;
 1700              		.loc 1 787 13 view .LVU446
 1701 0060 4FF48046 		mov	r6, #16384
 788:ThirdPackage/lwip_app/ethernetif.c ****       break;
 1702              		.loc 1 788 19 view .LVU447
 1703 0064 0124     		movs	r4, #1
 789:ThirdPackage/lwip_app/ethernetif.c ****     case DP83848_STATUS_10MBITS_FULLDUPLEX:
 1704              		.loc 1 789 7 view .LVU448
 1705 0066 0DE0     		b	.L113
 1706              	.LVL128:
 1707              	.L111:
 791:ThirdPackage/lwip_app/ethernetif.c ****       speed = ETH_SPEED_10M;
 1708              		.loc 1 791 7 is_stmt 1 view .LVU449
 792:ThirdPackage/lwip_app/ethernetif.c ****       linkchanged = 1;
 1709              		.loc 1 792 7 view .LVU450
 793:ThirdPackage/lwip_app/ethernetif.c ****       break;
 1710              		.loc 1 793 7 view .LVU451
 794:ThirdPackage/lwip_app/ethernetif.c ****     case DP83848_STATUS_10MBITS_HALFDUPLEX:
 1711              		.loc 1 794 7 view .LVU452
 791:ThirdPackage/lwip_app/ethernetif.c ****       speed = ETH_SPEED_10M;
 1712              		.loc 1 791 14 is_stmt 0 view .LVU453
 1713 0068 4FF40065 		mov	r5, #2048
 792:ThirdPackage/lwip_app/ethernetif.c ****       linkchanged = 1;
 1714              		.loc 1 792 13 view .LVU454
 1715 006c 0026     		movs	r6, #0
 793:ThirdPackage/lwip_app/ethernetif.c ****       break;
 1716              		.loc 1 793 19 view .LVU455
 1717 006e 0124     		movs	r4, #1
 794:ThirdPackage/lwip_app/ethernetif.c ****     case DP83848_STATUS_10MBITS_HALFDUPLEX:
 1718              		.loc 1 794 7 view .LVU456
 1719 0070 08E0     		b	.L113
 1720              	.LVL129:
 1721              	.L109:
 796:ThirdPackage/lwip_app/ethernetif.c ****       speed = ETH_SPEED_10M;
 1722              		.loc 1 796 7 is_stmt 1 view .LVU457
 797:ThirdPackage/lwip_app/ethernetif.c ****       linkchanged = 1;
 1723              		.loc 1 797 7 view .LVU458
 798:ThirdPackage/lwip_app/ethernetif.c ****       break;
 1724              		.loc 1 798 7 view .LVU459
 799:ThirdPackage/lwip_app/ethernetif.c ****     default:
 1725              		.loc 1 799 7 view .LVU460
ARM GAS  C:\Users\86188\AppData\Local\Temp\ccZBSQgi.s 			page 53


 796:ThirdPackage/lwip_app/ethernetif.c ****       speed = ETH_SPEED_10M;
 1726              		.loc 1 796 14 is_stmt 0 view .LVU461
 1727 0072 0025     		movs	r5, #0
 797:ThirdPackage/lwip_app/ethernetif.c ****       linkchanged = 1;
 1728              		.loc 1 797 13 view .LVU462
 1729 0074 2E46     		mov	r6, r5
 798:ThirdPackage/lwip_app/ethernetif.c ****       break;
 1730              		.loc 1 798 19 view .LVU463
 1731 0076 0124     		movs	r4, #1
 799:ThirdPackage/lwip_app/ethernetif.c ****     default:
 1732              		.loc 1 799 7 view .LVU464
 1733 0078 04E0     		b	.L113
 1734              	.LVL130:
 1735              	.L115:
 781:ThirdPackage/lwip_app/ethernetif.c ****       speed = ETH_SPEED_100M;
 1736              		.loc 1 781 14 view .LVU465
 1737 007a 4FF40065 		mov	r5, #2048
 1738              	.LVL131:
 782:ThirdPackage/lwip_app/ethernetif.c ****       linkchanged = 1;
 1739              		.loc 1 782 13 view .LVU466
 1740 007e 4FF48046 		mov	r6, #16384
 1741              	.LVL132:
 783:ThirdPackage/lwip_app/ethernetif.c ****       break;
 1742              		.loc 1 783 19 view .LVU467
 1743 0082 0124     		movs	r4, #1
 1744              	.LVL133:
 1745              	.L113:
 804:ThirdPackage/lwip_app/ethernetif.c ****     {
 1746              		.loc 1 804 5 is_stmt 1 view .LVU468
 804:ThirdPackage/lwip_app/ethernetif.c ****     {
 1747              		.loc 1 804 7 is_stmt 0 view .LVU469
 1748 0084 002C     		cmp	r4, #0
 1749 0086 D0D0     		beq	.L107
 807:ThirdPackage/lwip_app/ethernetif.c ****       MACConf.DuplexMode = duplex;
 1750              		.loc 1 807 7 is_stmt 1 view .LVU470
 1751 0088 0A4F     		ldr	r7, .L118
 1752 008a 01A9     		add	r1, sp, #4
 1753 008c 3846     		mov	r0, r7
 1754              	.LVL134:
 807:ThirdPackage/lwip_app/ethernetif.c ****       MACConf.DuplexMode = duplex;
 1755              		.loc 1 807 7 is_stmt 0 view .LVU471
 1756 008e FFF7FEFF 		bl	HAL_ETH_GetMACConfig
 1757              	.LVL135:
 808:ThirdPackage/lwip_app/ethernetif.c ****       MACConf.Speed = speed;
 1758              		.loc 1 808 7 is_stmt 1 view .LVU472
 808:ThirdPackage/lwip_app/ethernetif.c ****       MACConf.Speed = speed;
 1759              		.loc 1 808 26 is_stmt 0 view .LVU473
 1760 0092 0795     		str	r5, [sp, #28]
 809:ThirdPackage/lwip_app/ethernetif.c ****       HAL_ETH_SetMACConfig(&heth, &MACConf);
 1761              		.loc 1 809 7 is_stmt 1 view .LVU474
 809:ThirdPackage/lwip_app/ethernetif.c ****       HAL_ETH_SetMACConfig(&heth, &MACConf);
 1762              		.loc 1 809 21 is_stmt 0 view .LVU475
 1763 0094 0696     		str	r6, [sp, #24]
 810:ThirdPackage/lwip_app/ethernetif.c ****       HAL_ETH_Start_IT(&heth);
 1764              		.loc 1 810 7 is_stmt 1 view .LVU476
 1765 0096 01A9     		add	r1, sp, #4
 1766 0098 3846     		mov	r0, r7
ARM GAS  C:\Users\86188\AppData\Local\Temp\ccZBSQgi.s 			page 54


 1767 009a FFF7FEFF 		bl	HAL_ETH_SetMACConfig
 1768              	.LVL136:
 811:ThirdPackage/lwip_app/ethernetif.c ****       netif_set_up(netif);
 1769              		.loc 1 811 7 view .LVU477
 1770 009e 3846     		mov	r0, r7
 1771 00a0 FFF7FEFF 		bl	HAL_ETH_Start_IT
 1772              	.LVL137:
 812:ThirdPackage/lwip_app/ethernetif.c ****       netif_set_link_up(netif);
 1773              		.loc 1 812 7 view .LVU478
 1774 00a4 044F     		ldr	r7, .L118+4
 1775 00a6 3846     		mov	r0, r7
 1776 00a8 FFF7FEFF 		bl	netif_set_up
 1777              	.LVL138:
 813:ThirdPackage/lwip_app/ethernetif.c ****     }
 1778              		.loc 1 813 7 view .LVU479
 1779 00ac 3846     		mov	r0, r7
 1780 00ae FFF7FEFF 		bl	netif_set_link_up
 1781              	.LVL139:
 1782 00b2 BAE7     		b	.L107
 1783              	.L119:
 1784              		.align	2
 1785              	.L118:
 1786 00b4 00000000 		.word	.LANCHOR1
 1787 00b8 00000000 		.word	gnetif
 1788 00bc 00000000 		.word	.LANCHOR9
 1789              		.cfi_endproc
 1790              	.LFE177:
 1792              		.section	.text.HAL_ETH_RxAllocateCallback,"ax",%progbits
 1793              		.align	1
 1794              		.global	HAL_ETH_RxAllocateCallback
 1795              		.syntax unified
 1796              		.thumb
 1797              		.thumb_func
 1799              	HAL_ETH_RxAllocateCallback:
 1800              	.LVL140:
 1801              	.LFB178:
 822:ThirdPackage/lwip_app/ethernetif.c ****   }
 823:ThirdPackage/lwip_app/ethernetif.c **** }
 824:ThirdPackage/lwip_app/ethernetif.c **** 
 825:ThirdPackage/lwip_app/ethernetif.c **** void HAL_ETH_RxAllocateCallback(uint8_t **buff)
 826:ThirdPackage/lwip_app/ethernetif.c **** {
 1802              		.loc 1 826 1 view -0
 1803              		.cfi_startproc
 1804              		@ args = 0, pretend = 0, frame = 0
 1805              		@ frame_needed = 0, uses_anonymous_args = 0
 1806              		.loc 1 826 1 is_stmt 0 view .LVU481
 1807 0000 10B5     		push	{r4, lr}
 1808              	.LCFI35:
 1809              		.cfi_def_cfa_offset 8
 1810              		.cfi_offset 4, -8
 1811              		.cfi_offset 14, -4
 1812 0002 82B0     		sub	sp, sp, #8
 1813              	.LCFI36:
 1814              		.cfi_def_cfa_offset 16
 1815 0004 0446     		mov	r4, r0
 827:ThirdPackage/lwip_app/ethernetif.c **** /* USER CODE BEGIN HAL ETH RxAllocateCallback */
 828:ThirdPackage/lwip_app/ethernetif.c ****   struct pbuf_custom *p = LWIP_MEMPOOL_ALLOC(RX_POOL);
ARM GAS  C:\Users\86188\AppData\Local\Temp\ccZBSQgi.s 			page 55


 1816              		.loc 1 828 3 is_stmt 1 view .LVU482
 1817              		.loc 1 828 27 is_stmt 0 view .LVU483
 1818 0006 0E48     		ldr	r0, .L124
 1819              	.LVL141:
 1820              		.loc 1 828 27 view .LVU484
 1821 0008 FFF7FEFF 		bl	memp_malloc_pool
 1822              	.LVL142:
 829:ThirdPackage/lwip_app/ethernetif.c ****   if (p)
 1823              		.loc 1 829 3 is_stmt 1 view .LVU485
 1824              		.loc 1 829 6 is_stmt 0 view .LVU486
 1825 000c 88B1     		cbz	r0, .L121
 1826 000e 0346     		mov	r3, r0
 830:ThirdPackage/lwip_app/ethernetif.c ****   {
 831:ThirdPackage/lwip_app/ethernetif.c ****     /* Get the buff from the struct pbuf address. */
 832:ThirdPackage/lwip_app/ethernetif.c ****     *buff = (uint8_t *)p + offsetof(RxBuff_t, buff);
 1827              		.loc 1 832 5 is_stmt 1 view .LVU487
 1828              		.loc 1 832 26 is_stmt 0 view .LVU488
 1829 0010 00F12002 		add	r2, r0, #32
 1830              		.loc 1 832 11 view .LVU489
 1831 0014 2260     		str	r2, [r4]
 833:ThirdPackage/lwip_app/ethernetif.c ****     p->custom_free_function = pbuf_free_custom;
 1832              		.loc 1 833 5 is_stmt 1 view .LVU490
 1833              		.loc 1 833 29 is_stmt 0 view .LVU491
 1834 0016 0B4A     		ldr	r2, .L124+4
 1835 0018 0261     		str	r2, [r0, #16]
 834:ThirdPackage/lwip_app/ethernetif.c ****     /* Initialize the struct pbuf.
 835:ThirdPackage/lwip_app/ethernetif.c ****     * This must be performed whenever a buffer's allocated because it may be
 836:ThirdPackage/lwip_app/ethernetif.c ****     * changed by lwIP or the app, e.g., pbuf_free decrements ref. */
 837:ThirdPackage/lwip_app/ethernetif.c ****     pbuf_alloced_custom(PBUF_RAW, 0, PBUF_REF, p, *buff, ETH_RX_BUF_SIZE);
 1836              		.loc 1 837 5 is_stmt 1 view .LVU492
 1837 001a 40F2F452 		movw	r2, #1524
 1838 001e 0192     		str	r2, [sp, #4]
 1839 0020 2268     		ldr	r2, [r4]
 1840 0022 0092     		str	r2, [sp]
 1841 0024 4122     		movs	r2, #65
 1842 0026 0021     		movs	r1, #0
 1843 0028 0846     		mov	r0, r1
 1844              	.LVL143:
 1845              		.loc 1 837 5 is_stmt 0 view .LVU493
 1846 002a FFF7FEFF 		bl	pbuf_alloced_custom
 1847              	.LVL144:
 1848              	.L120:
 838:ThirdPackage/lwip_app/ethernetif.c ****   }
 839:ThirdPackage/lwip_app/ethernetif.c ****   else
 840:ThirdPackage/lwip_app/ethernetif.c ****   {
 841:ThirdPackage/lwip_app/ethernetif.c ****     RxAllocStatus = RX_ALLOC_ERROR;
 842:ThirdPackage/lwip_app/ethernetif.c ****     *buff = NULL;
 843:ThirdPackage/lwip_app/ethernetif.c ****   }
 844:ThirdPackage/lwip_app/ethernetif.c **** /* USER CODE END HAL ETH RxAllocateCallback */
 845:ThirdPackage/lwip_app/ethernetif.c **** }
 1849              		.loc 1 845 1 view .LVU494
 1850 002e 02B0     		add	sp, sp, #8
 1851              	.LCFI37:
 1852              		.cfi_remember_state
 1853              		.cfi_def_cfa_offset 8
 1854              		@ sp needed
 1855 0030 10BD     		pop	{r4, pc}
ARM GAS  C:\Users\86188\AppData\Local\Temp\ccZBSQgi.s 			page 56


 1856              	.LVL145:
 1857              	.L121:
 1858              	.LCFI38:
 1859              		.cfi_restore_state
 841:ThirdPackage/lwip_app/ethernetif.c ****     *buff = NULL;
 1860              		.loc 1 841 5 is_stmt 1 view .LVU495
 841:ThirdPackage/lwip_app/ethernetif.c ****     *buff = NULL;
 1861              		.loc 1 841 19 is_stmt 0 view .LVU496
 1862 0032 054B     		ldr	r3, .L124+8
 1863 0034 0122     		movs	r2, #1
 1864 0036 1A70     		strb	r2, [r3]
 842:ThirdPackage/lwip_app/ethernetif.c ****   }
 1865              		.loc 1 842 5 is_stmt 1 view .LVU497
 842:ThirdPackage/lwip_app/ethernetif.c ****   }
 1866              		.loc 1 842 11 is_stmt 0 view .LVU498
 1867 0038 0023     		movs	r3, #0
 1868 003a 2360     		str	r3, [r4]
 1869              		.loc 1 845 1 view .LVU499
 1870 003c F7E7     		b	.L120
 1871              	.L125:
 1872 003e 00BF     		.align	2
 1873              	.L124:
 1874 0040 00000000 		.word	.LANCHOR7
 1875 0044 00000000 		.word	pbuf_free_custom
 1876 0048 00000000 		.word	.LANCHOR0
 1877              		.cfi_endproc
 1878              	.LFE178:
 1880              		.section	.text.HAL_ETH_RxLinkCallback,"ax",%progbits
 1881              		.align	1
 1882              		.global	HAL_ETH_RxLinkCallback
 1883              		.syntax unified
 1884              		.thumb
 1885              		.thumb_func
 1887              	HAL_ETH_RxLinkCallback:
 1888              	.LVL146:
 1889              	.LFB179:
 846:ThirdPackage/lwip_app/ethernetif.c **** 
 847:ThirdPackage/lwip_app/ethernetif.c **** void HAL_ETH_RxLinkCallback(void **pStart, void **pEnd, uint8_t *buff, uint16_t Length)
 848:ThirdPackage/lwip_app/ethernetif.c **** {
 1890              		.loc 1 848 1 is_stmt 1 view -0
 1891              		.cfi_startproc
 1892              		@ args = 0, pretend = 0, frame = 0
 1893              		@ frame_needed = 0, uses_anonymous_args = 0
 1894              		@ link register save eliminated.
 1895              		.loc 1 848 1 is_stmt 0 view .LVU501
 1896 0000 30B4     		push	{r4, r5}
 1897              	.LCFI39:
 1898              		.cfi_def_cfa_offset 8
 1899              		.cfi_offset 4, -8
 1900              		.cfi_offset 5, -4
 849:ThirdPackage/lwip_app/ethernetif.c **** /* USER CODE BEGIN HAL ETH RxLinkCallback */
 850:ThirdPackage/lwip_app/ethernetif.c **** 
 851:ThirdPackage/lwip_app/ethernetif.c ****   struct pbuf **ppStart = (struct pbuf **)pStart;
 1901              		.loc 1 851 3 is_stmt 1 view .LVU502
 1902              	.LVL147:
 852:ThirdPackage/lwip_app/ethernetif.c ****   struct pbuf **ppEnd = (struct pbuf **)pEnd;
 1903              		.loc 1 852 3 view .LVU503
ARM GAS  C:\Users\86188\AppData\Local\Temp\ccZBSQgi.s 			page 57


 853:ThirdPackage/lwip_app/ethernetif.c ****   struct pbuf *p = NULL;
 1904              		.loc 1 853 3 view .LVU504
 854:ThirdPackage/lwip_app/ethernetif.c **** 
 855:ThirdPackage/lwip_app/ethernetif.c ****   /* Get the struct pbuf from the buff address. */
 856:ThirdPackage/lwip_app/ethernetif.c ****   p = (struct pbuf *)(buff - offsetof(RxBuff_t, buff));
 1905              		.loc 1 856 3 view .LVU505
 1906              		.loc 1 856 5 is_stmt 0 view .LVU506
 1907 0002 A2F12004 		sub	r4, r2, #32
 1908              	.LVL148:
 857:ThirdPackage/lwip_app/ethernetif.c ****   p->next = NULL;
 1909              		.loc 1 857 3 is_stmt 1 view .LVU507
 1910              		.loc 1 857 11 is_stmt 0 view .LVU508
 1911 0006 0025     		movs	r5, #0
 1912 0008 42F8205C 		str	r5, [r2, #-32]
 858:ThirdPackage/lwip_app/ethernetif.c ****   p->tot_len = 0;
 1913              		.loc 1 858 3 is_stmt 1 view .LVU509
 1914              		.loc 1 858 14 is_stmt 0 view .LVU510
 1915 000c 22F8185C 		strh	r5, [r2, #-24]	@ movhi
 859:ThirdPackage/lwip_app/ethernetif.c ****   p->len = Length;
 1916              		.loc 1 859 3 is_stmt 1 view .LVU511
 1917              		.loc 1 859 10 is_stmt 0 view .LVU512
 1918 0010 22F8163C 		strh	r3, [r2, #-22]	@ movhi
 860:ThirdPackage/lwip_app/ethernetif.c **** 
 861:ThirdPackage/lwip_app/ethernetif.c ****   /* Chain the buffer. */
 862:ThirdPackage/lwip_app/ethernetif.c ****   if (!*ppStart)
 1919              		.loc 1 862 3 is_stmt 1 view .LVU513
 1920              		.loc 1 862 8 is_stmt 0 view .LVU514
 1921 0014 0268     		ldr	r2, [r0]
 1922              	.LVL149:
 1923              		.loc 1 862 6 view .LVU515
 1924 0016 22B1     		cbz	r2, .L132
 863:ThirdPackage/lwip_app/ethernetif.c ****   {
 864:ThirdPackage/lwip_app/ethernetif.c ****     /* The first buffer of the packet. */
 865:ThirdPackage/lwip_app/ethernetif.c ****     *ppStart = p;
 866:ThirdPackage/lwip_app/ethernetif.c ****   }
 867:ThirdPackage/lwip_app/ethernetif.c ****   else
 868:ThirdPackage/lwip_app/ethernetif.c ****   {
 869:ThirdPackage/lwip_app/ethernetif.c ****     /* Chain the buffer to the end of the packet. */
 870:ThirdPackage/lwip_app/ethernetif.c ****     (*ppEnd)->next = p;
 1925              		.loc 1 870 5 is_stmt 1 view .LVU516
 1926              		.loc 1 870 6 is_stmt 0 view .LVU517
 1927 0018 0A68     		ldr	r2, [r1]
 1928              		.loc 1 870 20 view .LVU518
 1929 001a 1460     		str	r4, [r2]
 1930              	.L128:
 871:ThirdPackage/lwip_app/ethernetif.c ****   }
 872:ThirdPackage/lwip_app/ethernetif.c ****   *ppEnd  = p;
 1931              		.loc 1 872 3 is_stmt 1 view .LVU519
 1932              		.loc 1 872 11 is_stmt 0 view .LVU520
 1933 001c 0C60     		str	r4, [r1]
 873:ThirdPackage/lwip_app/ethernetif.c **** 
 874:ThirdPackage/lwip_app/ethernetif.c ****   /* Update the total length of all the buffers of the chain. Each pbuf in the chain should have it
 875:ThirdPackage/lwip_app/ethernetif.c ****    * set to its own length, plus the length of all the following pbufs in the chain. */
 876:ThirdPackage/lwip_app/ethernetif.c ****   for (p = *ppStart; p != NULL; p = p->next)
 1934              		.loc 1 876 3 is_stmt 1 view .LVU521
 1935              		.loc 1 876 10 is_stmt 0 view .LVU522
 1936 001e 0268     		ldr	r2, [r0]
ARM GAS  C:\Users\86188\AppData\Local\Temp\ccZBSQgi.s 			page 58


 1937              	.LVL150:
 1938              		.loc 1 876 3 view .LVU523
 1939 0020 05E0     		b	.L129
 1940              	.LVL151:
 1941              	.L132:
 865:ThirdPackage/lwip_app/ethernetif.c ****   }
 1942              		.loc 1 865 5 is_stmt 1 view .LVU524
 865:ThirdPackage/lwip_app/ethernetif.c ****   }
 1943              		.loc 1 865 14 is_stmt 0 view .LVU525
 1944 0022 0460     		str	r4, [r0]
 1945 0024 FAE7     		b	.L128
 1946              	.LVL152:
 1947              	.L130:
 877:ThirdPackage/lwip_app/ethernetif.c ****   {
 878:ThirdPackage/lwip_app/ethernetif.c ****     p->tot_len += Length;
 1948              		.loc 1 878 5 is_stmt 1 discriminator 3 view .LVU526
 1949              		.loc 1 878 16 is_stmt 0 discriminator 3 view .LVU527
 1950 0026 1189     		ldrh	r1, [r2, #8]
 1951 0028 1944     		add	r1, r1, r3
 1952 002a 1181     		strh	r1, [r2, #8]	@ movhi
 876:ThirdPackage/lwip_app/ethernetif.c ****   {
 1953              		.loc 1 876 33 is_stmt 1 discriminator 3 view .LVU528
 876:ThirdPackage/lwip_app/ethernetif.c ****   {
 1954              		.loc 1 876 35 is_stmt 0 discriminator 3 view .LVU529
 1955 002c 1268     		ldr	r2, [r2]
 1956              	.LVL153:
 1957              	.L129:
 876:ThirdPackage/lwip_app/ethernetif.c ****   {
 1958              		.loc 1 876 22 is_stmt 1 discriminator 1 view .LVU530
 876:ThirdPackage/lwip_app/ethernetif.c ****   {
 1959              		.loc 1 876 3 is_stmt 0 discriminator 1 view .LVU531
 1960 002e 002A     		cmp	r2, #0
 1961 0030 F9D1     		bne	.L130
 879:ThirdPackage/lwip_app/ethernetif.c ****   }
 880:ThirdPackage/lwip_app/ethernetif.c **** 
 881:ThirdPackage/lwip_app/ethernetif.c **** /* USER CODE END HAL ETH RxLinkCallback */
 882:ThirdPackage/lwip_app/ethernetif.c **** }
 1962              		.loc 1 882 1 view .LVU532
 1963 0032 30BC     		pop	{r4, r5}
 1964              	.LCFI40:
 1965              		.cfi_restore 5
 1966              		.cfi_restore 4
 1967              		.cfi_def_cfa_offset 0
 1968              	.LVL154:
 1969              		.loc 1 882 1 view .LVU533
 1970 0034 7047     		bx	lr
 1971              		.cfi_endproc
 1972              	.LFE179:
 1974              		.section	.text.HAL_ETH_TxFreeCallback,"ax",%progbits
 1975              		.align	1
 1976              		.global	HAL_ETH_TxFreeCallback
 1977              		.syntax unified
 1978              		.thumb
 1979              		.thumb_func
 1981              	HAL_ETH_TxFreeCallback:
 1982              	.LVL155:
 1983              	.LFB180:
ARM GAS  C:\Users\86188\AppData\Local\Temp\ccZBSQgi.s 			page 59


 883:ThirdPackage/lwip_app/ethernetif.c **** 
 884:ThirdPackage/lwip_app/ethernetif.c **** void HAL_ETH_TxFreeCallback(uint32_t * buff)
 885:ThirdPackage/lwip_app/ethernetif.c **** {
 1984              		.loc 1 885 1 is_stmt 1 view -0
 1985              		.cfi_startproc
 1986              		@ args = 0, pretend = 0, frame = 0
 1987              		@ frame_needed = 0, uses_anonymous_args = 0
 1988              		.loc 1 885 1 is_stmt 0 view .LVU535
 1989 0000 08B5     		push	{r3, lr}
 1990              	.LCFI41:
 1991              		.cfi_def_cfa_offset 8
 1992              		.cfi_offset 3, -8
 1993              		.cfi_offset 14, -4
 886:ThirdPackage/lwip_app/ethernetif.c **** /* USER CODE BEGIN HAL ETH TxFreeCallback */
 887:ThirdPackage/lwip_app/ethernetif.c **** 
 888:ThirdPackage/lwip_app/ethernetif.c ****   pbuf_free((struct pbuf *)buff);
 1994              		.loc 1 888 3 is_stmt 1 view .LVU536
 1995 0002 FFF7FEFF 		bl	pbuf_free
 1996              	.LVL156:
 889:ThirdPackage/lwip_app/ethernetif.c **** 
 890:ThirdPackage/lwip_app/ethernetif.c **** /* USER CODE END HAL ETH TxFreeCallback */
 891:ThirdPackage/lwip_app/ethernetif.c **** }
 1997              		.loc 1 891 1 is_stmt 0 view .LVU537
 1998 0006 08BD     		pop	{r3, pc}
 1999              		.cfi_endproc
 2000              	.LFE180:
 2002              		.global	DP83848_IOCtx
 2003              		.global	DP83848
 2004              		.global	TxConfig
 2005              		.global	heth
 2006              		.global	TxPktSemaphore
 2007              		.global	RxPktSemaphore
 2008              		.global	DMATxDscrTab
 2009              		.global	DMARxDscrTab
 2010              		.global	memp_RX_POOL
 2011              		.global	memp_memory_RX_POOL_base
 2012              		.section	.bss.DMARxDscrTab,"aw",%nobits
 2013              		.align	2
 2014              		.set	.LANCHOR6,. + 0
 2017              	DMARxDscrTab:
 2018 0000 00000000 		.space	160
 2018      00000000 
 2018      00000000 
 2018      00000000 
 2018      00000000 
 2019              		.section	.bss.DMATxDscrTab,"aw",%nobits
 2020              		.align	2
 2021              		.set	.LANCHOR5,. + 0
 2024              	DMATxDscrTab:
 2025 0000 00000000 		.space	160
 2025      00000000 
 2025      00000000 
 2025      00000000 
 2025      00000000 
 2026              		.section	.bss.DP83848,"aw",%nobits
 2027              		.align	2
 2028              		.set	.LANCHOR9,. + 0
ARM GAS  C:\Users\86188\AppData\Local\Temp\ccZBSQgi.s 			page 60


 2031              	DP83848:
 2032 0000 00000000 		.space	32
 2032      00000000 
 2032      00000000 
 2032      00000000 
 2032      00000000 
 2033              		.section	.bss.RxAllocStatus,"aw",%nobits
 2034              		.set	.LANCHOR0,. + 0
 2037              	RxAllocStatus:
 2038 0000 00       		.space	1
 2039              		.section	.bss.RxPktSemaphore,"aw",%nobits
 2040              		.align	2
 2041              		.set	.LANCHOR2,. + 0
 2044              	RxPktSemaphore:
 2045 0000 00000000 		.space	4
 2046              		.section	.bss.TxConfig,"aw",%nobits
 2047              		.align	2
 2048              		.set	.LANCHOR3,. + 0
 2051              	TxConfig:
 2052 0000 00000000 		.space	56
 2052      00000000 
 2052      00000000 
 2052      00000000 
 2052      00000000 
 2053              		.section	.bss.TxPktSemaphore,"aw",%nobits
 2054              		.align	2
 2055              		.set	.LANCHOR4,. + 0
 2058              	TxPktSemaphore:
 2059 0000 00000000 		.space	4
 2060              		.section	.bss.heth,"aw",%nobits
 2061              		.align	2
 2062              		.set	.LANCHOR1,. + 0
 2065              	heth:
 2066 0000 00000000 		.space	176
 2066      00000000 
 2066      00000000 
 2066      00000000 
 2066      00000000 
 2067              		.section	.bss.memp_memory_RX_POOL_base,"aw",%nobits
 2068              		.align	2
 2071              	memp_memory_RX_POOL_base:
 2072 0000 00000000 		.space	18819
 2072      00000000 
 2072      00000000 
 2072      00000000 
 2072      00000000 
 2073              		.section	.bss.memp_tab_RX_POOL,"aw",%nobits
 2074              		.align	2
 2077              	memp_tab_RX_POOL:
 2078 0000 00000000 		.space	4
 2079              		.section	.data.DP83848_IOCtx,"aw"
 2080              		.align	2
 2081              		.set	.LANCHOR8,. + 0
 2084              	DP83848_IOCtx:
 2085 0000 00000000 		.word	ETH_PHY_IO_Init
 2086 0004 00000000 		.word	ETH_PHY_IO_DeInit
 2087 0008 00000000 		.word	ETH_PHY_IO_WriteReg
ARM GAS  C:\Users\86188\AppData\Local\Temp\ccZBSQgi.s 			page 61


 2088 000c 00000000 		.word	ETH_PHY_IO_ReadReg
 2089 0010 00000000 		.word	ETH_PHY_IO_GetTick
 2090              		.section	.rodata.memp_RX_POOL,"a"
 2091              		.align	2
 2092              		.set	.LANCHOR7,. + 0
 2095              	memp_RX_POOL:
 2096 0000 2006     		.short	1568
 2097 0002 0C00     		.short	12
 2098 0004 00000000 		.word	memp_memory_RX_POOL_base
 2099 0008 00000000 		.word	memp_tab_RX_POOL
 2100              		.text
 2101              	.Letext0:
 2102              		.file 2 "k:\\program files (x86)\\gnu arm embedded toolchain\\10 2021.10\\arm-none-eabi\\include\\
 2103              		.file 3 "k:\\program files (x86)\\gnu arm embedded toolchain\\10 2021.10\\arm-none-eabi\\include\\
 2104              		.file 4 "Drivers/CMSIS/Device/ST/STM32F4xx/Include/stm32f407xx.h"
 2105              		.file 5 "Drivers/CMSIS/Device/ST/STM32F4xx/Include/stm32f4xx.h"
 2106              		.file 6 "Drivers/STM32F4xx_HAL_Driver/Inc/stm32f4xx_hal_def.h"
 2107              		.file 7 "Drivers/STM32F4xx_HAL_Driver/Inc/stm32f4xx_hal_gpio.h"
 2108              		.file 8 "Drivers/STM32F4xx_HAL_Driver/Inc/stm32f4xx_hal_eth.h"
 2109              		.file 9 "ThirdPackage/freertos/portable/GCC/ARM_CM4F/portmacro.h"
 2110              		.file 10 "ThirdPackage/freertos/include/task.h"
 2111              		.file 11 "ThirdPackage/freertos/include/queue.h"
 2112              		.file 12 "ThirdPackage/lwip220/include/lwip/arch.h"
 2113              		.file 13 "ThirdPackage/lwip220/include/lwip/err.h"
 2114              		.file 14 "ThirdPackage/freertos/include/semphr.h"
 2115              		.file 15 "ThirdPackage/lwip220/include/lwip/pbuf.h"
 2116              		.file 16 "ThirdPackage/lwip220/include/lwip/ip4_addr.h"
 2117              		.file 17 "ThirdPackage/lwip220/include/lwip/ip_addr.h"
 2118              		.file 18 "ThirdPackage/lwip220/include/lwip/memp.h"
 2119              		.file 19 "ThirdPackage/lwip220/include/lwip/priv/memp_priv.h"
 2120              		.file 20 "ThirdPackage/lwip220/include/lwip/netif.h"
 2121              		.file 21 "ThirdPackage/lwip_app/dp83848.h"
 2122              		.file 22 "Drivers/STM32F4xx_HAL_Driver/Inc/stm32f4xx_hal.h"
 2123              		.file 23 "Drivers/STM32F4xx_HAL_Driver/Inc/stm32f4xx_hal_cortex.h"
 2124              		.file 24 "k:\\program files (x86)\\gnu arm embedded toolchain\\10 2021.10\\arm-none-eabi\\include\
 2125              		.file 25 "ThirdPackage/lwip_app/ethernetif.h"
 2126              		.file 26 "<built-in>"
ARM GAS  C:\Users\86188\AppData\Local\Temp\ccZBSQgi.s 			page 62

