ARM GAS  C:\Users\86188\AppData\Local\Temp\cci5QYXq.s 			page 1


   1              		.cpu cortex-m4
   2              		.arch armv7e-m
   3              		.fpu fpv4-sp-d16
   4              		.eabi_attribute 27, 1
   5              		.eabi_attribute 28, 1
   6              		.eabi_attribute 20, 1
   7              		.eabi_attribute 21, 1
   8              		.eabi_attribute 23, 3
   9              		.eabi_attribute 24, 1
  10              		.eabi_attribute 25, 1
  11              		.eabi_attribute 26, 1
  12              		.eabi_attribute 30, 1
  13              		.eabi_attribute 34, 1
  14              		.eabi_attribute 18, 4
  15              		.file	"ethernet.c"
  16              		.text
  17              	.Ltext0:
  18              		.cfi_sections	.debug_frame
  19              		.section	.text.ethernet_input,"ax",%progbits
  20              		.align	1
  21              		.global	ethernet_input
  22              		.syntax unified
  23              		.thumb
  24              		.thumb_func
  26              	ethernet_input:
  27              	.LVL0:
  28              	.LFB160:
  29              		.file 1 "ThirdPackage/lwip220/netif/ethernet.c"
   1:ThirdPackage/lwip220/netif/ethernet.c **** /**
   2:ThirdPackage/lwip220/netif/ethernet.c ****  * @file
   3:ThirdPackage/lwip220/netif/ethernet.c ****  * Ethernet common functions
   4:ThirdPackage/lwip220/netif/ethernet.c ****  *
   5:ThirdPackage/lwip220/netif/ethernet.c ****  * @defgroup ethernet Ethernet
   6:ThirdPackage/lwip220/netif/ethernet.c ****  * @ingroup callbackstyle_api
   7:ThirdPackage/lwip220/netif/ethernet.c ****  */
   8:ThirdPackage/lwip220/netif/ethernet.c **** 
   9:ThirdPackage/lwip220/netif/ethernet.c **** /*
  10:ThirdPackage/lwip220/netif/ethernet.c ****  * Copyright (c) 2001-2003 Swedish Institute of Computer Science.
  11:ThirdPackage/lwip220/netif/ethernet.c ****  * Copyright (c) 2003-2004 Leon Woestenberg <leon.woestenberg@axon.tv>
  12:ThirdPackage/lwip220/netif/ethernet.c ****  * Copyright (c) 2003-2004 Axon Digital Design B.V., The Netherlands.
  13:ThirdPackage/lwip220/netif/ethernet.c ****  * All rights reserved.
  14:ThirdPackage/lwip220/netif/ethernet.c ****  *
  15:ThirdPackage/lwip220/netif/ethernet.c ****  * Redistribution and use in source and binary forms, with or without modification,
  16:ThirdPackage/lwip220/netif/ethernet.c ****  * are permitted provided that the following conditions are met:
  17:ThirdPackage/lwip220/netif/ethernet.c ****  *
  18:ThirdPackage/lwip220/netif/ethernet.c ****  * 1. Redistributions of source code must retain the above copyright notice,
  19:ThirdPackage/lwip220/netif/ethernet.c ****  *    this list of conditions and the following disclaimer.
  20:ThirdPackage/lwip220/netif/ethernet.c ****  * 2. Redistributions in binary form must reproduce the above copyright notice,
  21:ThirdPackage/lwip220/netif/ethernet.c ****  *    this list of conditions and the following disclaimer in the documentation
  22:ThirdPackage/lwip220/netif/ethernet.c ****  *    and/or other materials provided with the distribution.
  23:ThirdPackage/lwip220/netif/ethernet.c ****  * 3. The name of the author may not be used to endorse or promote products
  24:ThirdPackage/lwip220/netif/ethernet.c ****  *    derived from this software without specific prior written permission.
  25:ThirdPackage/lwip220/netif/ethernet.c ****  *
  26:ThirdPackage/lwip220/netif/ethernet.c ****  * THIS SOFTWARE IS PROVIDED BY THE AUTHOR ``AS IS'' AND ANY EXPRESS OR IMPLIED
  27:ThirdPackage/lwip220/netif/ethernet.c ****  * WARRANTIES, INCLUDING, BUT NOT LIMITED TO, THE IMPLIED WARRANTIES OF
  28:ThirdPackage/lwip220/netif/ethernet.c ****  * MERCHANTABILITY AND FITNESS FOR A PARTICULAR PURPOSE ARE DISCLAIMED. IN NO EVENT
  29:ThirdPackage/lwip220/netif/ethernet.c ****  * SHALL THE AUTHOR BE LIABLE FOR ANY DIRECT, INDIRECT, INCIDENTAL, SPECIAL,
ARM GAS  C:\Users\86188\AppData\Local\Temp\cci5QYXq.s 			page 2


  30:ThirdPackage/lwip220/netif/ethernet.c ****  * EXEMPLARY, OR CONSEQUENTIAL DAMAGES (INCLUDING, BUT NOT LIMITED TO, PROCUREMENT
  31:ThirdPackage/lwip220/netif/ethernet.c ****  * OF SUBSTITUTE GOODS OR SERVICES; LOSS OF USE, DATA, OR PROFITS; OR BUSINESS
  32:ThirdPackage/lwip220/netif/ethernet.c ****  * INTERRUPTION) HOWEVER CAUSED AND ON ANY THEORY OF LIABILITY, WHETHER IN
  33:ThirdPackage/lwip220/netif/ethernet.c ****  * CONTRACT, STRICT LIABILITY, OR TORT (INCLUDING NEGLIGENCE OR OTHERWISE) ARISING
  34:ThirdPackage/lwip220/netif/ethernet.c ****  * IN ANY WAY OUT OF THE USE OF THIS SOFTWARE, EVEN IF ADVISED OF THE POSSIBILITY
  35:ThirdPackage/lwip220/netif/ethernet.c ****  * OF SUCH DAMAGE.
  36:ThirdPackage/lwip220/netif/ethernet.c ****  *
  37:ThirdPackage/lwip220/netif/ethernet.c ****  * This file is part of the lwIP TCP/IP stack.
  38:ThirdPackage/lwip220/netif/ethernet.c ****  *
  39:ThirdPackage/lwip220/netif/ethernet.c ****  */
  40:ThirdPackage/lwip220/netif/ethernet.c **** 
  41:ThirdPackage/lwip220/netif/ethernet.c **** #include "lwip/opt.h"
  42:ThirdPackage/lwip220/netif/ethernet.c **** 
  43:ThirdPackage/lwip220/netif/ethernet.c **** #if LWIP_ARP || LWIP_ETHERNET
  44:ThirdPackage/lwip220/netif/ethernet.c **** 
  45:ThirdPackage/lwip220/netif/ethernet.c **** #include "netif/ethernet.h"
  46:ThirdPackage/lwip220/netif/ethernet.c **** #include "lwip/def.h"
  47:ThirdPackage/lwip220/netif/ethernet.c **** #include "lwip/stats.h"
  48:ThirdPackage/lwip220/netif/ethernet.c **** #include "lwip/etharp.h"
  49:ThirdPackage/lwip220/netif/ethernet.c **** #include "lwip/ip.h"
  50:ThirdPackage/lwip220/netif/ethernet.c **** #include "lwip/snmp.h"
  51:ThirdPackage/lwip220/netif/ethernet.c **** 
  52:ThirdPackage/lwip220/netif/ethernet.c **** #include <string.h>
  53:ThirdPackage/lwip220/netif/ethernet.c **** 
  54:ThirdPackage/lwip220/netif/ethernet.c **** #include "netif/ppp/ppp_opts.h"
  55:ThirdPackage/lwip220/netif/ethernet.c **** #if PPPOE_SUPPORT
  56:ThirdPackage/lwip220/netif/ethernet.c **** #include "netif/ppp/pppoe.h"
  57:ThirdPackage/lwip220/netif/ethernet.c **** #endif /* PPPOE_SUPPORT */
  58:ThirdPackage/lwip220/netif/ethernet.c **** 
  59:ThirdPackage/lwip220/netif/ethernet.c **** #ifdef LWIP_HOOK_FILENAME
  60:ThirdPackage/lwip220/netif/ethernet.c **** #include LWIP_HOOK_FILENAME
  61:ThirdPackage/lwip220/netif/ethernet.c **** #endif
  62:ThirdPackage/lwip220/netif/ethernet.c **** 
  63:ThirdPackage/lwip220/netif/ethernet.c **** const struct eth_addr ethbroadcast = {{0xff, 0xff, 0xff, 0xff, 0xff, 0xff}};
  64:ThirdPackage/lwip220/netif/ethernet.c **** const struct eth_addr ethzero = {{0, 0, 0, 0, 0, 0}};
  65:ThirdPackage/lwip220/netif/ethernet.c **** 
  66:ThirdPackage/lwip220/netif/ethernet.c **** /**
  67:ThirdPackage/lwip220/netif/ethernet.c ****  * @ingroup lwip_nosys
  68:ThirdPackage/lwip220/netif/ethernet.c ****  * Process received ethernet frames. Using this function instead of directly
  69:ThirdPackage/lwip220/netif/ethernet.c ****  * calling ip_input and passing ARP frames through etharp in ethernetif_input,
  70:ThirdPackage/lwip220/netif/ethernet.c ****  * the ARP cache is protected from concurrent access.<br>
  71:ThirdPackage/lwip220/netif/ethernet.c ****  * Don't call directly, pass to netif_add() and call netif->input().
  72:ThirdPackage/lwip220/netif/ethernet.c ****  *
  73:ThirdPackage/lwip220/netif/ethernet.c ****  * @param p the received packet, p->payload pointing to the ethernet header
  74:ThirdPackage/lwip220/netif/ethernet.c ****  * @param netif the network interface on which the packet was received
  75:ThirdPackage/lwip220/netif/ethernet.c ****  *
  76:ThirdPackage/lwip220/netif/ethernet.c ****  * @see LWIP_HOOK_UNKNOWN_ETH_PROTOCOL
  77:ThirdPackage/lwip220/netif/ethernet.c ****  * @see ETHARP_SUPPORT_VLAN
  78:ThirdPackage/lwip220/netif/ethernet.c ****  * @see LWIP_HOOK_VLAN_CHECK
  79:ThirdPackage/lwip220/netif/ethernet.c ****  */
  80:ThirdPackage/lwip220/netif/ethernet.c **** err_t
  81:ThirdPackage/lwip220/netif/ethernet.c **** ethernet_input(struct pbuf *p, struct netif *netif)
  82:ThirdPackage/lwip220/netif/ethernet.c **** {
  30              		.loc 1 82 1 view -0
  31              		.cfi_startproc
  32              		@ args = 0, pretend = 0, frame = 0
  33              		@ frame_needed = 0, uses_anonymous_args = 0
ARM GAS  C:\Users\86188\AppData\Local\Temp\cci5QYXq.s 			page 3


  34              		.loc 1 82 1 is_stmt 0 view .LVU1
  35 0000 70B5     		push	{r4, r5, r6, lr}
  36              	.LCFI0:
  37              		.cfi_def_cfa_offset 16
  38              		.cfi_offset 4, -16
  39              		.cfi_offset 5, -12
  40              		.cfi_offset 6, -8
  41              		.cfi_offset 14, -4
  42 0002 0446     		mov	r4, r0
  83:ThirdPackage/lwip220/netif/ethernet.c ****   struct eth_hdr *ethhdr;
  43              		.loc 1 83 3 is_stmt 1 view .LVU2
  84:ThirdPackage/lwip220/netif/ethernet.c ****   u16_t type;
  44              		.loc 1 84 3 view .LVU3
  85:ThirdPackage/lwip220/netif/ethernet.c **** #if LWIP_ARP || ETHARP_SUPPORT_VLAN || LWIP_IPV6
  86:ThirdPackage/lwip220/netif/ethernet.c ****   u16_t next_hdr_offset = SIZEOF_ETH_HDR;
  45              		.loc 1 86 3 view .LVU4
  46              	.LVL1:
  87:ThirdPackage/lwip220/netif/ethernet.c **** #endif /* LWIP_ARP || ETHARP_SUPPORT_VLAN */
  88:ThirdPackage/lwip220/netif/ethernet.c **** 
  89:ThirdPackage/lwip220/netif/ethernet.c ****   LWIP_ASSERT_CORE_LOCKED();
  47              		.loc 1 89 28 view .LVU5
  90:ThirdPackage/lwip220/netif/ethernet.c **** 
  91:ThirdPackage/lwip220/netif/ethernet.c ****   if (p->len <= SIZEOF_ETH_HDR) {
  48              		.loc 1 91 3 view .LVU6
  49              		.loc 1 91 8 is_stmt 0 view .LVU7
  50 0004 4389     		ldrh	r3, [r0, #10]
  51              		.loc 1 91 6 view .LVU8
  52 0006 0E2B     		cmp	r3, #14
  53 0008 1CD9     		bls	.L2
  54 000a 0D46     		mov	r5, r1
  92:ThirdPackage/lwip220/netif/ethernet.c ****     /* a packet with only an ethernet header (or less) is not valid for us */
  93:ThirdPackage/lwip220/netif/ethernet.c ****     ETHARP_STATS_INC(etharp.proterr);
  94:ThirdPackage/lwip220/netif/ethernet.c ****     ETHARP_STATS_INC(etharp.drop);
  95:ThirdPackage/lwip220/netif/ethernet.c ****     MIB2_STATS_NETIF_INC(netif, ifinerrors);
  96:ThirdPackage/lwip220/netif/ethernet.c ****     goto free_and_return;
  97:ThirdPackage/lwip220/netif/ethernet.c ****   }
  98:ThirdPackage/lwip220/netif/ethernet.c **** 
  99:ThirdPackage/lwip220/netif/ethernet.c ****   /* points to packet payload, which starts with an Ethernet header */
 100:ThirdPackage/lwip220/netif/ethernet.c ****   ethhdr = (struct eth_hdr *)p->payload;
  55              		.loc 1 100 3 is_stmt 1 view .LVU9
  56              		.loc 1 100 10 is_stmt 0 view .LVU10
  57 000c 4068     		ldr	r0, [r0, #4]
  58              	.LVL2:
 101:ThirdPackage/lwip220/netif/ethernet.c ****   LWIP_DEBUGF(ETHARP_DEBUG | LWIP_DBG_TRACE,
 102:ThirdPackage/lwip220/netif/ethernet.c ****               ("ethernet_input: dest:%"X8_F":%"X8_F":%"X8_F":%"X8_F":%"X8_F":%"X8_F", src:%"X8_F":%
 103:ThirdPackage/lwip220/netif/ethernet.c ****                (unsigned char)ethhdr->dest.addr[0], (unsigned char)ethhdr->dest.addr[1], (unsigned 
 104:ThirdPackage/lwip220/netif/ethernet.c ****                (unsigned char)ethhdr->dest.addr[3], (unsigned char)ethhdr->dest.addr[4], (unsigned 
 105:ThirdPackage/lwip220/netif/ethernet.c ****                (unsigned char)ethhdr->src.addr[0],  (unsigned char)ethhdr->src.addr[1],  (unsigned 
 106:ThirdPackage/lwip220/netif/ethernet.c ****                (unsigned char)ethhdr->src.addr[3],  (unsigned char)ethhdr->src.addr[4],  (unsigned 
 107:ThirdPackage/lwip220/netif/ethernet.c ****                lwip_htons(ethhdr->type)));
  59              		.loc 1 107 42 is_stmt 1 view .LVU11
 108:ThirdPackage/lwip220/netif/ethernet.c **** 
 109:ThirdPackage/lwip220/netif/ethernet.c ****   type = ethhdr->type;
  60              		.loc 1 109 3 view .LVU12
  61              		.loc 1 109 8 is_stmt 0 view .LVU13
  62 000e 8689     		ldrh	r6, [r0, #12]	@ unaligned
  63              	.LVL3:
ARM GAS  C:\Users\86188\AppData\Local\Temp\cci5QYXq.s 			page 4


 110:ThirdPackage/lwip220/netif/ethernet.c **** #if ETHARP_SUPPORT_VLAN
 111:ThirdPackage/lwip220/netif/ethernet.c ****   if (type == PP_HTONS(ETHTYPE_VLAN)) {
 112:ThirdPackage/lwip220/netif/ethernet.c ****     struct eth_vlan_hdr *vlan = (struct eth_vlan_hdr *)(((char *)ethhdr) + SIZEOF_ETH_HDR);
 113:ThirdPackage/lwip220/netif/ethernet.c ****     next_hdr_offset = SIZEOF_ETH_HDR + SIZEOF_VLAN_HDR;
 114:ThirdPackage/lwip220/netif/ethernet.c ****     if (p->len <= SIZEOF_ETH_HDR + SIZEOF_VLAN_HDR) {
 115:ThirdPackage/lwip220/netif/ethernet.c ****       /* a packet with only an ethernet/vlan header (or less) is not valid for us */
 116:ThirdPackage/lwip220/netif/ethernet.c ****       ETHARP_STATS_INC(etharp.proterr);
 117:ThirdPackage/lwip220/netif/ethernet.c ****       ETHARP_STATS_INC(etharp.drop);
 118:ThirdPackage/lwip220/netif/ethernet.c ****       MIB2_STATS_NETIF_INC(netif, ifinerrors);
 119:ThirdPackage/lwip220/netif/ethernet.c ****       goto free_and_return;
 120:ThirdPackage/lwip220/netif/ethernet.c ****     }
 121:ThirdPackage/lwip220/netif/ethernet.c **** #if defined(LWIP_HOOK_VLAN_CHECK) || defined(ETHARP_VLAN_CHECK) || defined(ETHARP_VLAN_CHECK_FN) /*
 122:ThirdPackage/lwip220/netif/ethernet.c **** #ifdef LWIP_HOOK_VLAN_CHECK
 123:ThirdPackage/lwip220/netif/ethernet.c ****     if (!LWIP_HOOK_VLAN_CHECK(netif, ethhdr, vlan)) {
 124:ThirdPackage/lwip220/netif/ethernet.c **** #elif defined(ETHARP_VLAN_CHECK_FN)
 125:ThirdPackage/lwip220/netif/ethernet.c ****     if (!ETHARP_VLAN_CHECK_FN(ethhdr, vlan)) {
 126:ThirdPackage/lwip220/netif/ethernet.c **** #elif defined(ETHARP_VLAN_CHECK)
 127:ThirdPackage/lwip220/netif/ethernet.c ****     if (VLAN_ID(vlan) != ETHARP_VLAN_CHECK) {
 128:ThirdPackage/lwip220/netif/ethernet.c **** #endif
 129:ThirdPackage/lwip220/netif/ethernet.c ****       /* silently ignore this packet: not for our VLAN */
 130:ThirdPackage/lwip220/netif/ethernet.c ****       pbuf_free(p);
 131:ThirdPackage/lwip220/netif/ethernet.c ****       return ERR_OK;
 132:ThirdPackage/lwip220/netif/ethernet.c ****     }
 133:ThirdPackage/lwip220/netif/ethernet.c **** #endif /* defined(LWIP_HOOK_VLAN_CHECK) || defined(ETHARP_VLAN_CHECK) || defined(ETHARP_VLAN_CHECK_
 134:ThirdPackage/lwip220/netif/ethernet.c ****     type = vlan->tpid;
 135:ThirdPackage/lwip220/netif/ethernet.c ****   }
 136:ThirdPackage/lwip220/netif/ethernet.c **** #endif /* ETHARP_SUPPORT_VLAN */
 137:ThirdPackage/lwip220/netif/ethernet.c **** 
 138:ThirdPackage/lwip220/netif/ethernet.c **** #if LWIP_ARP_FILTER_NETIF
 139:ThirdPackage/lwip220/netif/ethernet.c ****   netif = LWIP_ARP_FILTER_NETIF_FN(p, netif, lwip_htons(type));
 140:ThirdPackage/lwip220/netif/ethernet.c **** #endif /* LWIP_ARP_FILTER_NETIF*/
 141:ThirdPackage/lwip220/netif/ethernet.c **** 
 142:ThirdPackage/lwip220/netif/ethernet.c ****   if (p->if_idx == NETIF_NO_INDEX) {
  64              		.loc 1 142 3 is_stmt 1 view .LVU14
  65              		.loc 1 142 8 is_stmt 0 view .LVU15
  66 0010 E37B     		ldrb	r3, [r4, #15]	@ zero_extendqisi2
  67              		.loc 1 142 6 view .LVU16
  68 0012 1BB9     		cbnz	r3, .L3
 143:ThirdPackage/lwip220/netif/ethernet.c ****     p->if_idx = netif_get_index(netif);
  69              		.loc 1 143 5 is_stmt 1 view .LVU17
  70              		.loc 1 143 17 is_stmt 0 view .LVU18
  71 0014 91F83030 		ldrb	r3, [r1, #48]	@ zero_extendqisi2
  72 0018 0133     		adds	r3, r3, #1
  73              		.loc 1 143 15 view .LVU19
  74 001a E373     		strb	r3, [r4, #15]
  75              	.LVL4:
  76              	.L3:
 144:ThirdPackage/lwip220/netif/ethernet.c ****   }
 145:ThirdPackage/lwip220/netif/ethernet.c **** 
 146:ThirdPackage/lwip220/netif/ethernet.c ****   if (ethhdr->dest.addr[0] & 1) {
  77              		.loc 1 146 3 is_stmt 1 view .LVU20
  78              		.loc 1 146 24 is_stmt 0 view .LVU21
  79 001c 0378     		ldrb	r3, [r0]	@ zero_extendqisi2
  80              		.loc 1 146 6 view .LVU22
  81 001e 13F0010F 		tst	r3, #1
  82 0022 0AD0     		beq	.L4
 147:ThirdPackage/lwip220/netif/ethernet.c ****     /* this might be a multicast or broadcast packet */
ARM GAS  C:\Users\86188\AppData\Local\Temp\cci5QYXq.s 			page 5


 148:ThirdPackage/lwip220/netif/ethernet.c ****     if (ethhdr->dest.addr[0] == LL_IP4_MULTICAST_ADDR_0) {
  83              		.loc 1 148 5 is_stmt 1 view .LVU23
  84              		.loc 1 148 8 is_stmt 0 view .LVU24
  85 0024 012B     		cmp	r3, #1
  86 0026 12D0     		beq	.L10
 149:ThirdPackage/lwip220/netif/ethernet.c **** #if LWIP_IPV4
 150:ThirdPackage/lwip220/netif/ethernet.c ****       if ((ethhdr->dest.addr[1] == LL_IP4_MULTICAST_ADDR_1) &&
 151:ThirdPackage/lwip220/netif/ethernet.c ****           (ethhdr->dest.addr[2] == LL_IP4_MULTICAST_ADDR_2)) {
 152:ThirdPackage/lwip220/netif/ethernet.c ****         /* mark the pbuf as link-layer multicast */
 153:ThirdPackage/lwip220/netif/ethernet.c ****         p->flags |= PBUF_FLAG_LLMCAST;
 154:ThirdPackage/lwip220/netif/ethernet.c ****       }
 155:ThirdPackage/lwip220/netif/ethernet.c **** #endif /* LWIP_IPV4 */
 156:ThirdPackage/lwip220/netif/ethernet.c ****     }
 157:ThirdPackage/lwip220/netif/ethernet.c **** #if LWIP_IPV6
 158:ThirdPackage/lwip220/netif/ethernet.c ****     else if ((ethhdr->dest.addr[0] == LL_IP6_MULTICAST_ADDR_0) &&
 159:ThirdPackage/lwip220/netif/ethernet.c ****              (ethhdr->dest.addr[1] == LL_IP6_MULTICAST_ADDR_1)) {
 160:ThirdPackage/lwip220/netif/ethernet.c ****       /* mark the pbuf as link-layer multicast */
 161:ThirdPackage/lwip220/netif/ethernet.c ****       p->flags |= PBUF_FLAG_LLMCAST;
 162:ThirdPackage/lwip220/netif/ethernet.c ****     }
 163:ThirdPackage/lwip220/netif/ethernet.c **** #endif /* LWIP_IPV6 */
 164:ThirdPackage/lwip220/netif/ethernet.c ****     else if (eth_addr_cmp(&ethhdr->dest, &ethbroadcast)) {
  87              		.loc 1 164 10 is_stmt 1 view .LVU25
  88              		.loc 1 164 14 is_stmt 0 view .LVU26
  89 0028 0622     		movs	r2, #6
  90 002a 1E49     		ldr	r1, .L11
  91              	.LVL5:
  92              		.loc 1 164 14 view .LVU27
  93 002c FFF7FEFF 		bl	memcmp
  94              	.LVL6:
  95              		.loc 1 164 13 view .LVU28
  96 0030 18B9     		cbnz	r0, .L4
 165:ThirdPackage/lwip220/netif/ethernet.c ****       /* mark the pbuf as link-layer broadcast */
 166:ThirdPackage/lwip220/netif/ethernet.c ****       p->flags |= PBUF_FLAG_LLBCAST;
  97              		.loc 1 166 7 is_stmt 1 view .LVU29
  98              		.loc 1 166 16 is_stmt 0 view .LVU30
  99 0032 637B     		ldrb	r3, [r4, #13]	@ zero_extendqisi2
 100 0034 43F00803 		orr	r3, r3, #8
 101 0038 6373     		strb	r3, [r4, #13]
 102              	.L4:
 167:ThirdPackage/lwip220/netif/ethernet.c ****     }
 168:ThirdPackage/lwip220/netif/ethernet.c ****   }
 169:ThirdPackage/lwip220/netif/ethernet.c **** 
 170:ThirdPackage/lwip220/netif/ethernet.c ****   switch (type) {
 103              		.loc 1 170 3 is_stmt 1 view .LVU31
 104 003a 082E     		cmp	r6, #8
 105 003c 12D0     		beq	.L6
 106 003e B6F5C16F 		cmp	r6, #1544
 107 0042 1FD0     		beq	.L7
 108              	.LVL7:
 109              	.L2:
 171:ThirdPackage/lwip220/netif/ethernet.c **** #if LWIP_IPV4 && LWIP_ARP
 172:ThirdPackage/lwip220/netif/ethernet.c ****     /* IP packet? */
 173:ThirdPackage/lwip220/netif/ethernet.c ****     case PP_HTONS(ETHTYPE_IP):
 174:ThirdPackage/lwip220/netif/ethernet.c ****       if (!(netif->flags & NETIF_FLAG_ETHARP)) {
 175:ThirdPackage/lwip220/netif/ethernet.c ****         goto free_and_return;
 176:ThirdPackage/lwip220/netif/ethernet.c ****       }
 177:ThirdPackage/lwip220/netif/ethernet.c ****       /* skip Ethernet header (min. size checked above) */
ARM GAS  C:\Users\86188\AppData\Local\Temp\cci5QYXq.s 			page 6


 178:ThirdPackage/lwip220/netif/ethernet.c ****       if (pbuf_remove_header(p, next_hdr_offset)) {
 179:ThirdPackage/lwip220/netif/ethernet.c ****         LWIP_DEBUGF(ETHARP_DEBUG | LWIP_DBG_TRACE | LWIP_DBG_LEVEL_WARNING,
 180:ThirdPackage/lwip220/netif/ethernet.c ****                     ("ethernet_input: IPv4 packet dropped, too short (%"U16_F"/%"U16_F")\n",
 181:ThirdPackage/lwip220/netif/ethernet.c ****                      p->tot_len, next_hdr_offset));
 182:ThirdPackage/lwip220/netif/ethernet.c ****         LWIP_DEBUGF(ETHARP_DEBUG | LWIP_DBG_TRACE, ("Can't move over header in packet\n"));
 183:ThirdPackage/lwip220/netif/ethernet.c ****         goto free_and_return;
 184:ThirdPackage/lwip220/netif/ethernet.c ****       } else {
 185:ThirdPackage/lwip220/netif/ethernet.c ****         /* pass to IP layer */
 186:ThirdPackage/lwip220/netif/ethernet.c ****         ip4_input(p, netif);
 187:ThirdPackage/lwip220/netif/ethernet.c ****       }
 188:ThirdPackage/lwip220/netif/ethernet.c ****       break;
 189:ThirdPackage/lwip220/netif/ethernet.c **** 
 190:ThirdPackage/lwip220/netif/ethernet.c ****     case PP_HTONS(ETHTYPE_ARP):
 191:ThirdPackage/lwip220/netif/ethernet.c ****       if (!(netif->flags & NETIF_FLAG_ETHARP)) {
 192:ThirdPackage/lwip220/netif/ethernet.c ****         goto free_and_return;
 193:ThirdPackage/lwip220/netif/ethernet.c ****       }
 194:ThirdPackage/lwip220/netif/ethernet.c ****       /* skip Ethernet header (min. size checked above) */
 195:ThirdPackage/lwip220/netif/ethernet.c ****       if (pbuf_remove_header(p, next_hdr_offset)) {
 196:ThirdPackage/lwip220/netif/ethernet.c ****         LWIP_DEBUGF(ETHARP_DEBUG | LWIP_DBG_TRACE | LWIP_DBG_LEVEL_WARNING,
 197:ThirdPackage/lwip220/netif/ethernet.c ****                     ("ethernet_input: ARP response packet dropped, too short (%"U16_F"/%"U16_F")\n"
 198:ThirdPackage/lwip220/netif/ethernet.c ****                      p->tot_len, next_hdr_offset));
 199:ThirdPackage/lwip220/netif/ethernet.c ****         LWIP_DEBUGF(ETHARP_DEBUG | LWIP_DBG_TRACE, ("Can't move over header in packet\n"));
 200:ThirdPackage/lwip220/netif/ethernet.c ****         ETHARP_STATS_INC(etharp.lenerr);
 201:ThirdPackage/lwip220/netif/ethernet.c ****         ETHARP_STATS_INC(etharp.drop);
 202:ThirdPackage/lwip220/netif/ethernet.c ****         goto free_and_return;
 203:ThirdPackage/lwip220/netif/ethernet.c ****       } else {
 204:ThirdPackage/lwip220/netif/ethernet.c ****         /* pass p to ARP module */
 205:ThirdPackage/lwip220/netif/ethernet.c ****         etharp_input(p, netif);
 206:ThirdPackage/lwip220/netif/ethernet.c ****       }
 207:ThirdPackage/lwip220/netif/ethernet.c ****       break;
 208:ThirdPackage/lwip220/netif/ethernet.c **** #endif /* LWIP_IPV4 && LWIP_ARP */
 209:ThirdPackage/lwip220/netif/ethernet.c **** #if PPPOE_SUPPORT
 210:ThirdPackage/lwip220/netif/ethernet.c ****     case PP_HTONS(ETHTYPE_PPPOEDISC): /* PPP Over Ethernet Discovery Stage */
 211:ThirdPackage/lwip220/netif/ethernet.c ****       pppoe_disc_input(netif, p);
 212:ThirdPackage/lwip220/netif/ethernet.c ****       break;
 213:ThirdPackage/lwip220/netif/ethernet.c **** 
 214:ThirdPackage/lwip220/netif/ethernet.c ****     case PP_HTONS(ETHTYPE_PPPOE): /* PPP Over Ethernet Session Stage */
 215:ThirdPackage/lwip220/netif/ethernet.c ****       pppoe_data_input(netif, p);
 216:ThirdPackage/lwip220/netif/ethernet.c ****       break;
 217:ThirdPackage/lwip220/netif/ethernet.c **** #endif /* PPPOE_SUPPORT */
 218:ThirdPackage/lwip220/netif/ethernet.c **** 
 219:ThirdPackage/lwip220/netif/ethernet.c **** #if LWIP_IPV6
 220:ThirdPackage/lwip220/netif/ethernet.c ****     case PP_HTONS(ETHTYPE_IPV6): /* IPv6 */
 221:ThirdPackage/lwip220/netif/ethernet.c ****       /* skip Ethernet header */
 222:ThirdPackage/lwip220/netif/ethernet.c ****       if ((p->len < next_hdr_offset) || pbuf_remove_header(p, next_hdr_offset)) {
 223:ThirdPackage/lwip220/netif/ethernet.c ****         LWIP_DEBUGF(ETHARP_DEBUG | LWIP_DBG_TRACE | LWIP_DBG_LEVEL_WARNING,
 224:ThirdPackage/lwip220/netif/ethernet.c ****                     ("ethernet_input: IPv6 packet dropped, too short (%"U16_F"/%"U16_F")\n",
 225:ThirdPackage/lwip220/netif/ethernet.c ****                      p->tot_len, next_hdr_offset));
 226:ThirdPackage/lwip220/netif/ethernet.c ****         goto free_and_return;
 227:ThirdPackage/lwip220/netif/ethernet.c ****       } else {
 228:ThirdPackage/lwip220/netif/ethernet.c ****         /* pass to IPv6 layer */
 229:ThirdPackage/lwip220/netif/ethernet.c ****         ip6_input(p, netif);
 230:ThirdPackage/lwip220/netif/ethernet.c ****       }
 231:ThirdPackage/lwip220/netif/ethernet.c ****       break;
 232:ThirdPackage/lwip220/netif/ethernet.c **** #endif /* LWIP_IPV6 */
 233:ThirdPackage/lwip220/netif/ethernet.c **** 
 234:ThirdPackage/lwip220/netif/ethernet.c ****     default:
ARM GAS  C:\Users\86188\AppData\Local\Temp\cci5QYXq.s 			page 7


 235:ThirdPackage/lwip220/netif/ethernet.c **** #ifdef LWIP_HOOK_UNKNOWN_ETH_PROTOCOL
 236:ThirdPackage/lwip220/netif/ethernet.c ****       if (LWIP_HOOK_UNKNOWN_ETH_PROTOCOL(p, netif) == ERR_OK) {
 237:ThirdPackage/lwip220/netif/ethernet.c ****         break;
 238:ThirdPackage/lwip220/netif/ethernet.c ****       }
 239:ThirdPackage/lwip220/netif/ethernet.c **** #endif
 240:ThirdPackage/lwip220/netif/ethernet.c ****       ETHARP_STATS_INC(etharp.proterr);
 241:ThirdPackage/lwip220/netif/ethernet.c ****       ETHARP_STATS_INC(etharp.drop);
 242:ThirdPackage/lwip220/netif/ethernet.c ****       MIB2_STATS_NETIF_INC(netif, ifinunknownprotos);
 243:ThirdPackage/lwip220/netif/ethernet.c ****       goto free_and_return;
 244:ThirdPackage/lwip220/netif/ethernet.c ****   }
 245:ThirdPackage/lwip220/netif/ethernet.c **** 
 246:ThirdPackage/lwip220/netif/ethernet.c ****   /* This means the pbuf is freed or consumed,
 247:ThirdPackage/lwip220/netif/ethernet.c ****      so the caller doesn't have to free it again */
 248:ThirdPackage/lwip220/netif/ethernet.c ****   return ERR_OK;
 249:ThirdPackage/lwip220/netif/ethernet.c **** 
 250:ThirdPackage/lwip220/netif/ethernet.c **** free_and_return:
 251:ThirdPackage/lwip220/netif/ethernet.c ****   pbuf_free(p);
 110              		.loc 1 251 3 view .LVU32
 111 0044 2046     		mov	r0, r4
 112 0046 FFF7FEFF 		bl	pbuf_free
 113              	.LVL8:
 252:ThirdPackage/lwip220/netif/ethernet.c ****   return ERR_OK;
 114              		.loc 1 252 3 view .LVU33
 115              	.L8:
 253:ThirdPackage/lwip220/netif/ethernet.c **** }
 116              		.loc 1 253 1 is_stmt 0 view .LVU34
 117 004a 0020     		movs	r0, #0
 118 004c 70BD     		pop	{r4, r5, r6, pc}
 119              	.LVL9:
 120              	.L10:
 150:ThirdPackage/lwip220/netif/ethernet.c ****           (ethhdr->dest.addr[2] == LL_IP4_MULTICAST_ADDR_2)) {
 121              		.loc 1 150 7 is_stmt 1 view .LVU35
 150:ThirdPackage/lwip220/netif/ethernet.c ****           (ethhdr->dest.addr[2] == LL_IP4_MULTICAST_ADDR_2)) {
 122              		.loc 1 150 29 is_stmt 0 view .LVU36
 123 004e 4378     		ldrb	r3, [r0, #1]	@ zero_extendqisi2
 150:ThirdPackage/lwip220/netif/ethernet.c ****           (ethhdr->dest.addr[2] == LL_IP4_MULTICAST_ADDR_2)) {
 124              		.loc 1 150 10 view .LVU37
 125 0050 002B     		cmp	r3, #0
 126 0052 F2D1     		bne	.L4
 151:ThirdPackage/lwip220/netif/ethernet.c ****         /* mark the pbuf as link-layer multicast */
 127              		.loc 1 151 29 discriminator 1 view .LVU38
 128 0054 8378     		ldrb	r3, [r0, #2]	@ zero_extendqisi2
 150:ThirdPackage/lwip220/netif/ethernet.c ****           (ethhdr->dest.addr[2] == LL_IP4_MULTICAST_ADDR_2)) {
 129              		.loc 1 150 61 discriminator 1 view .LVU39
 130 0056 5E2B     		cmp	r3, #94
 131 0058 EFD1     		bne	.L4
 153:ThirdPackage/lwip220/netif/ethernet.c ****       }
 132              		.loc 1 153 9 is_stmt 1 view .LVU40
 153:ThirdPackage/lwip220/netif/ethernet.c ****       }
 133              		.loc 1 153 18 is_stmt 0 view .LVU41
 134 005a 637B     		ldrb	r3, [r4, #13]	@ zero_extendqisi2
 135 005c 43F01003 		orr	r3, r3, #16
 136 0060 6373     		strb	r3, [r4, #13]
 137 0062 EAE7     		b	.L4
 138              	.LVL10:
 139              	.L6:
 174:ThirdPackage/lwip220/netif/ethernet.c ****         goto free_and_return;
ARM GAS  C:\Users\86188\AppData\Local\Temp\cci5QYXq.s 			page 8


 140              		.loc 1 174 7 is_stmt 1 view .LVU42
 174:ThirdPackage/lwip220/netif/ethernet.c ****         goto free_and_return;
 141              		.loc 1 174 18 is_stmt 0 view .LVU43
 142 0064 95F82D30 		ldrb	r3, [r5, #45]	@ zero_extendqisi2
 174:ThirdPackage/lwip220/netif/ethernet.c ****         goto free_and_return;
 143              		.loc 1 174 10 view .LVU44
 144 0068 13F0080F 		tst	r3, #8
 145 006c EAD0     		beq	.L2
 178:ThirdPackage/lwip220/netif/ethernet.c ****         LWIP_DEBUGF(ETHARP_DEBUG | LWIP_DBG_TRACE | LWIP_DBG_LEVEL_WARNING,
 146              		.loc 1 178 7 is_stmt 1 view .LVU45
 178:ThirdPackage/lwip220/netif/ethernet.c ****         LWIP_DEBUGF(ETHARP_DEBUG | LWIP_DBG_TRACE | LWIP_DBG_LEVEL_WARNING,
 147              		.loc 1 178 11 is_stmt 0 view .LVU46
 148 006e 0E21     		movs	r1, #14
 149 0070 2046     		mov	r0, r4
 150 0072 FFF7FEFF 		bl	pbuf_remove_header
 151              	.LVL11:
 178:ThirdPackage/lwip220/netif/ethernet.c ****         LWIP_DEBUGF(ETHARP_DEBUG | LWIP_DBG_TRACE | LWIP_DBG_LEVEL_WARNING,
 152              		.loc 1 178 10 view .LVU47
 153 0076 0028     		cmp	r0, #0
 154 0078 E4D1     		bne	.L2
 186:ThirdPackage/lwip220/netif/ethernet.c ****       }
 155              		.loc 1 186 9 is_stmt 1 view .LVU48
 156 007a 2946     		mov	r1, r5
 157 007c 2046     		mov	r0, r4
 158 007e FFF7FEFF 		bl	ip4_input
 159              	.LVL12:
 188:ThirdPackage/lwip220/netif/ethernet.c **** 
 160              		.loc 1 188 7 view .LVU49
 161 0082 E2E7     		b	.L8
 162              	.L7:
 191:ThirdPackage/lwip220/netif/ethernet.c ****         goto free_and_return;
 163              		.loc 1 191 7 view .LVU50
 191:ThirdPackage/lwip220/netif/ethernet.c ****         goto free_and_return;
 164              		.loc 1 191 18 is_stmt 0 view .LVU51
 165 0084 95F82D30 		ldrb	r3, [r5, #45]	@ zero_extendqisi2
 191:ThirdPackage/lwip220/netif/ethernet.c ****         goto free_and_return;
 166              		.loc 1 191 10 view .LVU52
 167 0088 13F0080F 		tst	r3, #8
 168 008c DAD0     		beq	.L2
 195:ThirdPackage/lwip220/netif/ethernet.c ****         LWIP_DEBUGF(ETHARP_DEBUG | LWIP_DBG_TRACE | LWIP_DBG_LEVEL_WARNING,
 169              		.loc 1 195 7 is_stmt 1 view .LVU53
 195:ThirdPackage/lwip220/netif/ethernet.c ****         LWIP_DEBUGF(ETHARP_DEBUG | LWIP_DBG_TRACE | LWIP_DBG_LEVEL_WARNING,
 170              		.loc 1 195 11 is_stmt 0 view .LVU54
 171 008e 0E21     		movs	r1, #14
 172 0090 2046     		mov	r0, r4
 173 0092 FFF7FEFF 		bl	pbuf_remove_header
 174              	.LVL13:
 195:ThirdPackage/lwip220/netif/ethernet.c ****         LWIP_DEBUGF(ETHARP_DEBUG | LWIP_DBG_TRACE | LWIP_DBG_LEVEL_WARNING,
 175              		.loc 1 195 10 view .LVU55
 176 0096 0028     		cmp	r0, #0
 177 0098 D4D1     		bne	.L2
 205:ThirdPackage/lwip220/netif/ethernet.c ****       }
 178              		.loc 1 205 9 is_stmt 1 view .LVU56
 179 009a 2946     		mov	r1, r5
 180 009c 2046     		mov	r0, r4
 181 009e FFF7FEFF 		bl	etharp_input
 182              	.LVL14:
ARM GAS  C:\Users\86188\AppData\Local\Temp\cci5QYXq.s 			page 9


 207:ThirdPackage/lwip220/netif/ethernet.c **** #endif /* LWIP_IPV4 && LWIP_ARP */
 183              		.loc 1 207 7 view .LVU57
 184 00a2 D2E7     		b	.L8
 185              	.L12:
 186              		.align	2
 187              	.L11:
 188 00a4 00000000 		.word	.LANCHOR0
 189              		.cfi_endproc
 190              	.LFE160:
 192              		.section	.rodata.ethernet_output.str1.4,"aMS",%progbits,1
 193              		.align	2
 194              	.LC0:
 195 0000 54686972 		.ascii	"ThirdPackage/lwip220/netif/ethernet.c\000"
 195      64506163 
 195      6B616765 
 195      2F6C7769 
 195      70323230 
 196 0026 0000     		.align	2
 197              	.LC1:
 198 0028 6E657469 		.ascii	"netif->hwaddr_len must be 6 for ethernet_output!\000"
 198      662D3E68 
 198      77616464 
 198      725F6C65 
 198      6E206D75 
 199 0059 000000   		.align	2
 200              	.LC2:
 201 005c 41737365 		.ascii	"Assertion \"%s\" failed at line %d in %s\012\000"
 201      7274696F 
 201      6E202225 
 201      73222066 
 201      61696C65 
 202              		.section	.text.ethernet_output,"ax",%progbits
 203              		.align	1
 204              		.global	ethernet_output
 205              		.syntax unified
 206              		.thumb
 207              		.thumb_func
 209              	ethernet_output:
 210              	.LVL15:
 211              	.LFB161:
 254:ThirdPackage/lwip220/netif/ethernet.c **** 
 255:ThirdPackage/lwip220/netif/ethernet.c **** /**
 256:ThirdPackage/lwip220/netif/ethernet.c ****  * @ingroup ethernet
 257:ThirdPackage/lwip220/netif/ethernet.c ****  * Send an ethernet packet on the network using netif->linkoutput().
 258:ThirdPackage/lwip220/netif/ethernet.c ****  * The ethernet header is filled in before sending.
 259:ThirdPackage/lwip220/netif/ethernet.c ****  *
 260:ThirdPackage/lwip220/netif/ethernet.c ****  * @see LWIP_HOOK_VLAN_SET
 261:ThirdPackage/lwip220/netif/ethernet.c ****  *
 262:ThirdPackage/lwip220/netif/ethernet.c ****  * @param netif the lwIP network interface on which to send the packet
 263:ThirdPackage/lwip220/netif/ethernet.c ****  * @param p the packet to send. pbuf layer must be @ref PBUF_LINK.
 264:ThirdPackage/lwip220/netif/ethernet.c ****  * @param src the source MAC address to be copied into the ethernet header
 265:ThirdPackage/lwip220/netif/ethernet.c ****  * @param dst the destination MAC address to be copied into the ethernet header
 266:ThirdPackage/lwip220/netif/ethernet.c ****  * @param eth_type ethernet type (@ref lwip_ieee_eth_type)
 267:ThirdPackage/lwip220/netif/ethernet.c ****  * @return ERR_OK if the packet was sent, any other err_t on failure
 268:ThirdPackage/lwip220/netif/ethernet.c ****  */
 269:ThirdPackage/lwip220/netif/ethernet.c **** err_t
 270:ThirdPackage/lwip220/netif/ethernet.c **** ethernet_output(struct netif * netif, struct pbuf * p,
ARM GAS  C:\Users\86188\AppData\Local\Temp\cci5QYXq.s 			page 10


 271:ThirdPackage/lwip220/netif/ethernet.c ****                 const struct eth_addr * src, const struct eth_addr * dst,
 272:ThirdPackage/lwip220/netif/ethernet.c ****                 u16_t eth_type) {
 212              		.loc 1 272 33 view -0
 213              		.cfi_startproc
 214              		@ args = 4, pretend = 0, frame = 0
 215              		@ frame_needed = 0, uses_anonymous_args = 0
 216              		.loc 1 272 33 is_stmt 0 view .LVU59
 217 0000 2DE9F041 		push	{r4, r5, r6, r7, r8, lr}
 218              	.LCFI1:
 219              		.cfi_def_cfa_offset 24
 220              		.cfi_offset 4, -24
 221              		.cfi_offset 5, -20
 222              		.cfi_offset 6, -16
 223              		.cfi_offset 7, -12
 224              		.cfi_offset 8, -8
 225              		.cfi_offset 14, -4
 226 0004 0546     		mov	r5, r0
 227 0006 0C46     		mov	r4, r1
 228 0008 1646     		mov	r6, r2
 229 000a 1F46     		mov	r7, r3
 273:ThirdPackage/lwip220/netif/ethernet.c ****   struct eth_hdr *ethhdr;
 230              		.loc 1 273 3 is_stmt 1 view .LVU60
 274:ThirdPackage/lwip220/netif/ethernet.c ****   u16_t eth_type_be = lwip_htons(eth_type);
 231              		.loc 1 274 3 view .LVU61
 232              		.loc 1 274 23 is_stmt 0 view .LVU62
 233 000c BDF81800 		ldrh	r0, [sp, #24]
 234              	.LVL16:
 235              		.loc 1 274 23 view .LVU63
 236 0010 FFF7FEFF 		bl	lwip_htons
 237              	.LVL17:
 238              		.loc 1 274 23 view .LVU64
 239 0014 8046     		mov	r8, r0
 240              	.LVL18:
 275:ThirdPackage/lwip220/netif/ethernet.c **** 
 276:ThirdPackage/lwip220/netif/ethernet.c **** #if ETHARP_SUPPORT_VLAN && (defined(LWIP_HOOK_VLAN_SET) || LWIP_VLAN_PCP)
 277:ThirdPackage/lwip220/netif/ethernet.c ****   s32_t vlan_prio_vid;
 278:ThirdPackage/lwip220/netif/ethernet.c **** #ifdef LWIP_HOOK_VLAN_SET
 279:ThirdPackage/lwip220/netif/ethernet.c ****   vlan_prio_vid = LWIP_HOOK_VLAN_SET(netif, p, src, dst, eth_type);
 280:ThirdPackage/lwip220/netif/ethernet.c **** #elif LWIP_VLAN_PCP
 281:ThirdPackage/lwip220/netif/ethernet.c ****   vlan_prio_vid = -1;
 282:ThirdPackage/lwip220/netif/ethernet.c ****   if (netif->hints && (netif->hints->tci >= 0)) {
 283:ThirdPackage/lwip220/netif/ethernet.c ****     vlan_prio_vid = (u16_t)netif->hints->tci;
 284:ThirdPackage/lwip220/netif/ethernet.c ****   }
 285:ThirdPackage/lwip220/netif/ethernet.c **** #endif
 286:ThirdPackage/lwip220/netif/ethernet.c ****   if (vlan_prio_vid >= 0) {
 287:ThirdPackage/lwip220/netif/ethernet.c ****     struct eth_vlan_hdr *vlanhdr;
 288:ThirdPackage/lwip220/netif/ethernet.c **** 
 289:ThirdPackage/lwip220/netif/ethernet.c ****     LWIP_ASSERT("prio_vid must be <= 0xFFFF", vlan_prio_vid <= 0xFFFF);
 290:ThirdPackage/lwip220/netif/ethernet.c **** 
 291:ThirdPackage/lwip220/netif/ethernet.c ****     if (pbuf_add_header(p, SIZEOF_ETH_HDR + SIZEOF_VLAN_HDR) != 0) {
 292:ThirdPackage/lwip220/netif/ethernet.c ****       goto pbuf_header_failed;
 293:ThirdPackage/lwip220/netif/ethernet.c ****     }
 294:ThirdPackage/lwip220/netif/ethernet.c ****     vlanhdr = (struct eth_vlan_hdr *)(((u8_t *)p->payload) + SIZEOF_ETH_HDR);
 295:ThirdPackage/lwip220/netif/ethernet.c ****     vlanhdr->tpid     = eth_type_be;
 296:ThirdPackage/lwip220/netif/ethernet.c ****     vlanhdr->prio_vid = lwip_htons((u16_t)vlan_prio_vid);
 297:ThirdPackage/lwip220/netif/ethernet.c **** 
 298:ThirdPackage/lwip220/netif/ethernet.c ****     eth_type_be = PP_HTONS(ETHTYPE_VLAN);
ARM GAS  C:\Users\86188\AppData\Local\Temp\cci5QYXq.s 			page 11


 299:ThirdPackage/lwip220/netif/ethernet.c ****   } else
 300:ThirdPackage/lwip220/netif/ethernet.c **** #endif /* ETHARP_SUPPORT_VLAN && (defined(LWIP_HOOK_VLAN_SET) || LWIP_VLAN_PCP) */
 301:ThirdPackage/lwip220/netif/ethernet.c ****   {
 302:ThirdPackage/lwip220/netif/ethernet.c ****     if (pbuf_add_header(p, SIZEOF_ETH_HDR) != 0) {
 241              		.loc 1 302 5 is_stmt 1 view .LVU65
 242              		.loc 1 302 9 is_stmt 0 view .LVU66
 243 0016 0E21     		movs	r1, #14
 244 0018 2046     		mov	r0, r4
 245 001a FFF7FEFF 		bl	pbuf_add_header
 246              	.LVL19:
 247              		.loc 1 302 8 view .LVU67
 248 001e E8B9     		cbnz	r0, .L16
 303:ThirdPackage/lwip220/netif/ethernet.c ****       goto pbuf_header_failed;
 304:ThirdPackage/lwip220/netif/ethernet.c ****     }
 305:ThirdPackage/lwip220/netif/ethernet.c ****   }
 306:ThirdPackage/lwip220/netif/ethernet.c **** 
 307:ThirdPackage/lwip220/netif/ethernet.c ****   LWIP_ASSERT_CORE_LOCKED();
 249              		.loc 1 307 28 is_stmt 1 view .LVU68
 308:ThirdPackage/lwip220/netif/ethernet.c **** 
 309:ThirdPackage/lwip220/netif/ethernet.c ****   ethhdr = (struct eth_hdr *)p->payload;
 250              		.loc 1 309 3 view .LVU69
 251              		.loc 1 309 10 is_stmt 0 view .LVU70
 252 0020 6168     		ldr	r1, [r4, #4]
 253              	.LVL20:
 310:ThirdPackage/lwip220/netif/ethernet.c ****   ethhdr->type = eth_type_be;
 254              		.loc 1 310 3 is_stmt 1 view .LVU71
 255              		.loc 1 310 16 is_stmt 0 view .LVU72
 256 0022 A1F80C80 		strh	r8, [r1, #12]	@ unaligned
 311:ThirdPackage/lwip220/netif/ethernet.c ****   SMEMCPY(&ethhdr->dest, dst, ETH_HWADDR_LEN);
 257              		.loc 1 311 3 is_stmt 1 view .LVU73
 258 0026 3B68     		ldr	r3, [r7]	@ unaligned
 259 0028 0B60     		str	r3, [r1]	@ unaligned
 260 002a BB88     		ldrh	r3, [r7, #4]	@ unaligned
 261 002c 8B80     		strh	r3, [r1, #4]	@ unaligned
 312:ThirdPackage/lwip220/netif/ethernet.c ****   SMEMCPY(&ethhdr->src,  src, ETH_HWADDR_LEN);
 262              		.loc 1 312 3 view .LVU74
 263 002e 3368     		ldr	r3, [r6]	@ unaligned
 264 0030 C1F80630 		str	r3, [r1, #6]	@ unaligned
 265 0034 B388     		ldrh	r3, [r6, #4]	@ unaligned
 266 0036 4B81     		strh	r3, [r1, #10]	@ unaligned
 313:ThirdPackage/lwip220/netif/ethernet.c **** 
 314:ThirdPackage/lwip220/netif/ethernet.c ****   LWIP_ASSERT("netif->hwaddr_len must be 6 for ethernet_output!",
 267              		.loc 1 314 3 view .LVU75
 268              		.loc 1 314 3 view .LVU76
 269 0038 95F82C30 		ldrb	r3, [r5, #44]	@ zero_extendqisi2
 270 003c 062B     		cmp	r3, #6
 271 003e 05D1     		bne	.L18
 272              	.LVL21:
 273              	.L15:
 274              		.loc 1 314 3 discriminator 3 view .LVU77
 275              		.loc 1 314 3 discriminator 3 view .LVU78
 315:ThirdPackage/lwip220/netif/ethernet.c ****               (netif->hwaddr_len == ETH_HWADDR_LEN));
 316:ThirdPackage/lwip220/netif/ethernet.c ****   LWIP_DEBUGF(ETHARP_DEBUG | LWIP_DBG_TRACE,
 317:ThirdPackage/lwip220/netif/ethernet.c ****               ("ethernet_output: sending packet %p\n", (void *)p));
 276              		.loc 1 317 67 discriminator 3 view .LVU79
 318:ThirdPackage/lwip220/netif/ethernet.c **** 
 319:ThirdPackage/lwip220/netif/ethernet.c ****   /* send the packet */
ARM GAS  C:\Users\86188\AppData\Local\Temp\cci5QYXq.s 			page 12


 320:ThirdPackage/lwip220/netif/ethernet.c ****   return netif->linkoutput(netif, p);
 277              		.loc 1 320 3 discriminator 3 view .LVU80
 278              		.loc 1 320 15 is_stmt 0 discriminator 3 view .LVU81
 279 0040 AB69     		ldr	r3, [r5, #24]
 280              		.loc 1 320 10 discriminator 3 view .LVU82
 281 0042 2146     		mov	r1, r4
 282 0044 2846     		mov	r0, r5
 283 0046 9847     		blx	r3
 284              	.LVL22:
 285              	.L14:
 286              	.LDL1:
 321:ThirdPackage/lwip220/netif/ethernet.c **** 
 322:ThirdPackage/lwip220/netif/ethernet.c **** pbuf_header_failed:
 323:ThirdPackage/lwip220/netif/ethernet.c ****   LWIP_DEBUGF(ETHARP_DEBUG | LWIP_DBG_TRACE | LWIP_DBG_LEVEL_SERIOUS,
 324:ThirdPackage/lwip220/netif/ethernet.c ****               ("ethernet_output: could not allocate room for header.\n"));
 325:ThirdPackage/lwip220/netif/ethernet.c ****   LINK_STATS_INC(link.lenerr);
 326:ThirdPackage/lwip220/netif/ethernet.c ****   return ERR_BUF;
 327:ThirdPackage/lwip220/netif/ethernet.c **** }
 287              		.loc 1 327 1 view .LVU83
 288 0048 BDE8F081 		pop	{r4, r5, r6, r7, r8, pc}
 289              	.LVL23:
 290              	.L18:
 314:ThirdPackage/lwip220/netif/ethernet.c ****               (netif->hwaddr_len == ETH_HWADDR_LEN));
 291              		.loc 1 314 3 is_stmt 1 discriminator 1 view .LVU84
 314:ThirdPackage/lwip220/netif/ethernet.c ****               (netif->hwaddr_len == ETH_HWADDR_LEN));
 292              		.loc 1 314 3 discriminator 1 view .LVU85
 293 004c 054B     		ldr	r3, .L19
 294 004e 4FF49D72 		mov	r2, #314
 295 0052 0549     		ldr	r1, .L19+4
 296              	.LVL24:
 314:ThirdPackage/lwip220/netif/ethernet.c ****               (netif->hwaddr_len == ETH_HWADDR_LEN));
 297              		.loc 1 314 3 is_stmt 0 discriminator 1 view .LVU86
 298 0054 0548     		ldr	r0, .L19+8
 299 0056 FFF7FEFF 		bl	printf
 300              	.LVL25:
 301 005a F1E7     		b	.L15
 302              	.L16:
 326:ThirdPackage/lwip220/netif/ethernet.c **** }
 303              		.loc 1 326 10 view .LVU87
 304 005c 6FF00100 		mvn	r0, #1
 305 0060 F2E7     		b	.L14
 306              	.L20:
 307 0062 00BF     		.align	2
 308              	.L19:
 309 0064 00000000 		.word	.LC0
 310 0068 28000000 		.word	.LC1
 311 006c 5C000000 		.word	.LC2
 312              		.cfi_endproc
 313              	.LFE161:
 315              		.global	ethzero
 316              		.global	ethbroadcast
 317              		.section	.rodata.ethbroadcast,"a"
 318              		.align	2
 319              		.set	.LANCHOR0,. + 0
 322              	ethbroadcast:
 323 0000 FFFFFFFF 		.ascii	"\377\377\377\377\377\377"
 323      FFFF
ARM GAS  C:\Users\86188\AppData\Local\Temp\cci5QYXq.s 			page 13


 324              		.section	.rodata.ethzero,"a"
 325              		.align	2
 328              	ethzero:
 329 0000 00000000 		.space	6
 329      0000
 330              		.text
 331              	.Letext0:
 332              		.file 2 "k:\\program files (x86)\\gnu arm embedded toolchain\\10 2021.10\\arm-none-eabi\\include\\
 333              		.file 3 "k:\\program files (x86)\\gnu arm embedded toolchain\\10 2021.10\\arm-none-eabi\\include\\
 334              		.file 4 "ThirdPackage/lwip220/include/lwip/arch.h"
 335              		.file 5 "ThirdPackage/lwip220/include/lwip/err.h"
 336              		.file 6 "ThirdPackage/lwip220/include/lwip/pbuf.h"
 337              		.file 7 "ThirdPackage/lwip220/include/lwip/ip4_addr.h"
 338              		.file 8 "ThirdPackage/lwip220/include/lwip/ip_addr.h"
 339              		.file 9 "ThirdPackage/lwip220/include/lwip/memp.h"
 340              		.file 10 "ThirdPackage/lwip220/include/lwip/netif.h"
 341              		.file 11 "ThirdPackage/lwip220/include/lwip/prot/ethernet.h"
 342              		.file 12 "ThirdPackage/lwip220/include/netif/ethernet.h"
 343              		.file 13 "ThirdPackage/lwip220/include/lwip/def.h"
 344              		.file 14 "k:\\program files (x86)\\gnu arm embedded toolchain\\10 2021.10\\arm-none-eabi\\include\
 345              		.file 15 "k:\\program files (x86)\\gnu arm embedded toolchain\\10 2021.10\\arm-none-eabi\\include\
 346              		.file 16 "ThirdPackage/lwip220/include/lwip/ip4.h"
 347              		.file 17 "ThirdPackage/lwip220/include/lwip/etharp.h"
 348              		.file 18 "ThirdPackage/lwip220/include/lwip/prot/ieee.h"
ARM GAS  C:\Users\86188\AppData\Local\Temp\cci5QYXq.s 			page 14

