ARM GAS  C:\Users\86188\AppData\Local\Temp\ccLSiKD8.s 			page 1


   1              		.cpu cortex-m4
   2              		.arch armv7e-m
   3              		.fpu fpv4-sp-d16
   4              		.eabi_attribute 27, 1
   5              		.eabi_attribute 28, 1
   6              		.eabi_attribute 20, 1
   7              		.eabi_attribute 21, 1
   8              		.eabi_attribute 23, 3
   9              		.eabi_attribute 24, 1
  10              		.eabi_attribute 25, 1
  11              		.eabi_attribute 26, 1
  12              		.eabi_attribute 30, 1
  13              		.eabi_attribute 34, 1
  14              		.eabi_attribute 18, 4
  15              		.file	"memp.c"
  16              		.text
  17              	.Ltext0:
  18              		.cfi_sections	.debug_frame
  19              		.section	.rodata.do_memp_malloc_pool.str1.4,"aMS",%progbits,1
  20              		.align	2
  21              	.LC0:
  22 0000 54686972 		.ascii	"ThirdPackage/lwip220/core/memp.c\000"
  22      64506163 
  22      6B616765 
  22      2F6C7769 
  22      70323230 
  23 0021 000000   		.align	2
  24              	.LC1:
  25 0024 6D656D70 		.ascii	"memp_malloc: memp properly aligned\000"
  25      5F6D616C 
  25      6C6F633A 
  25      206D656D 
  25      70207072 
  26 0047 00       		.align	2
  27              	.LC2:
  28 0048 41737365 		.ascii	"Assertion \"%s\" failed at line %d in %s\012\000"
  28      7274696F 
  28      6E202225 
  28      73222066 
  28      61696C65 
  29              		.section	.text.do_memp_malloc_pool,"ax",%progbits
  30              		.align	1
  31              		.syntax unified
  32              		.thumb
  33              		.thumb_func
  35              	do_memp_malloc_pool:
  36              	.LVL0:
  37              	.LFB162:
  38              		.file 1 "ThirdPackage/lwip220/core/memp.c"
   1:ThirdPackage/lwip220/core/memp.c **** /**
   2:ThirdPackage/lwip220/core/memp.c ****  * @file
   3:ThirdPackage/lwip220/core/memp.c ****  * Dynamic pool memory manager
   4:ThirdPackage/lwip220/core/memp.c ****  *
   5:ThirdPackage/lwip220/core/memp.c ****  * lwIP has dedicated pools for many structures (netconn, protocol control blocks,
   6:ThirdPackage/lwip220/core/memp.c ****  * packet buffers, ...). All these pools are managed here.
   7:ThirdPackage/lwip220/core/memp.c ****  *
   8:ThirdPackage/lwip220/core/memp.c ****  * @defgroup mempool Memory pools
ARM GAS  C:\Users\86188\AppData\Local\Temp\ccLSiKD8.s 			page 2


   9:ThirdPackage/lwip220/core/memp.c ****  * @ingroup infrastructure
  10:ThirdPackage/lwip220/core/memp.c ****  * Custom memory pools
  11:ThirdPackage/lwip220/core/memp.c **** 
  12:ThirdPackage/lwip220/core/memp.c ****  */
  13:ThirdPackage/lwip220/core/memp.c **** 
  14:ThirdPackage/lwip220/core/memp.c **** /*
  15:ThirdPackage/lwip220/core/memp.c ****  * Copyright (c) 2001-2004 Swedish Institute of Computer Science.
  16:ThirdPackage/lwip220/core/memp.c ****  * All rights reserved.
  17:ThirdPackage/lwip220/core/memp.c ****  *
  18:ThirdPackage/lwip220/core/memp.c ****  * Redistribution and use in source and binary forms, with or without modification,
  19:ThirdPackage/lwip220/core/memp.c ****  * are permitted provided that the following conditions are met:
  20:ThirdPackage/lwip220/core/memp.c ****  *
  21:ThirdPackage/lwip220/core/memp.c ****  * 1. Redistributions of source code must retain the above copyright notice,
  22:ThirdPackage/lwip220/core/memp.c ****  *    this list of conditions and the following disclaimer.
  23:ThirdPackage/lwip220/core/memp.c ****  * 2. Redistributions in binary form must reproduce the above copyright notice,
  24:ThirdPackage/lwip220/core/memp.c ****  *    this list of conditions and the following disclaimer in the documentation
  25:ThirdPackage/lwip220/core/memp.c ****  *    and/or other materials provided with the distribution.
  26:ThirdPackage/lwip220/core/memp.c ****  * 3. The name of the author may not be used to endorse or promote products
  27:ThirdPackage/lwip220/core/memp.c ****  *    derived from this software without specific prior written permission.
  28:ThirdPackage/lwip220/core/memp.c ****  *
  29:ThirdPackage/lwip220/core/memp.c ****  * THIS SOFTWARE IS PROVIDED BY THE AUTHOR ``AS IS'' AND ANY EXPRESS OR IMPLIED
  30:ThirdPackage/lwip220/core/memp.c ****  * WARRANTIES, INCLUDING, BUT NOT LIMITED TO, THE IMPLIED WARRANTIES OF
  31:ThirdPackage/lwip220/core/memp.c ****  * MERCHANTABILITY AND FITNESS FOR A PARTICULAR PURPOSE ARE DISCLAIMED. IN NO EVENT
  32:ThirdPackage/lwip220/core/memp.c ****  * SHALL THE AUTHOR BE LIABLE FOR ANY DIRECT, INDIRECT, INCIDENTAL, SPECIAL,
  33:ThirdPackage/lwip220/core/memp.c ****  * EXEMPLARY, OR CONSEQUENTIAL DAMAGES (INCLUDING, BUT NOT LIMITED TO, PROCUREMENT
  34:ThirdPackage/lwip220/core/memp.c ****  * OF SUBSTITUTE GOODS OR SERVICES; LOSS OF USE, DATA, OR PROFITS; OR BUSINESS
  35:ThirdPackage/lwip220/core/memp.c ****  * INTERRUPTION) HOWEVER CAUSED AND ON ANY THEORY OF LIABILITY, WHETHER IN
  36:ThirdPackage/lwip220/core/memp.c ****  * CONTRACT, STRICT LIABILITY, OR TORT (INCLUDING NEGLIGENCE OR OTHERWISE) ARISING
  37:ThirdPackage/lwip220/core/memp.c ****  * IN ANY WAY OUT OF THE USE OF THIS SOFTWARE, EVEN IF ADVISED OF THE POSSIBILITY
  38:ThirdPackage/lwip220/core/memp.c ****  * OF SUCH DAMAGE.
  39:ThirdPackage/lwip220/core/memp.c ****  *
  40:ThirdPackage/lwip220/core/memp.c ****  * This file is part of the lwIP TCP/IP stack.
  41:ThirdPackage/lwip220/core/memp.c ****  *
  42:ThirdPackage/lwip220/core/memp.c ****  * Author: Adam Dunkels <adam@sics.se>
  43:ThirdPackage/lwip220/core/memp.c ****  *
  44:ThirdPackage/lwip220/core/memp.c ****  */
  45:ThirdPackage/lwip220/core/memp.c **** 
  46:ThirdPackage/lwip220/core/memp.c **** #include "lwip/opt.h"
  47:ThirdPackage/lwip220/core/memp.c **** 
  48:ThirdPackage/lwip220/core/memp.c **** #include "lwip/memp.h"
  49:ThirdPackage/lwip220/core/memp.c **** #include "lwip/sys.h"
  50:ThirdPackage/lwip220/core/memp.c **** #include "lwip/stats.h"
  51:ThirdPackage/lwip220/core/memp.c **** 
  52:ThirdPackage/lwip220/core/memp.c **** #include <string.h>
  53:ThirdPackage/lwip220/core/memp.c **** 
  54:ThirdPackage/lwip220/core/memp.c **** /* Make sure we include everything we need for size calculation required by memp_std.h */
  55:ThirdPackage/lwip220/core/memp.c **** #include "lwip/pbuf.h"
  56:ThirdPackage/lwip220/core/memp.c **** #include "lwip/raw.h"
  57:ThirdPackage/lwip220/core/memp.c **** #include "lwip/udp.h"
  58:ThirdPackage/lwip220/core/memp.c **** #include "lwip/tcp.h"
  59:ThirdPackage/lwip220/core/memp.c **** #include "lwip/priv/tcp_priv.h"
  60:ThirdPackage/lwip220/core/memp.c **** #include "lwip/altcp.h"
  61:ThirdPackage/lwip220/core/memp.c **** #include "lwip/ip4_frag.h"
  62:ThirdPackage/lwip220/core/memp.c **** #include "lwip/netbuf.h"
  63:ThirdPackage/lwip220/core/memp.c **** #include "lwip/api.h"
  64:ThirdPackage/lwip220/core/memp.c **** #include "lwip/priv/tcpip_priv.h"
  65:ThirdPackage/lwip220/core/memp.c **** #include "lwip/priv/api_msg.h"
ARM GAS  C:\Users\86188\AppData\Local\Temp\ccLSiKD8.s 			page 3


  66:ThirdPackage/lwip220/core/memp.c **** #include "lwip/priv/sockets_priv.h"
  67:ThirdPackage/lwip220/core/memp.c **** #include "lwip/etharp.h"
  68:ThirdPackage/lwip220/core/memp.c **** #include "lwip/igmp.h"
  69:ThirdPackage/lwip220/core/memp.c **** #include "lwip/timeouts.h"
  70:ThirdPackage/lwip220/core/memp.c **** /* needed by default MEMP_NUM_SYS_TIMEOUT */
  71:ThirdPackage/lwip220/core/memp.c **** #include "netif/ppp/ppp_opts.h"
  72:ThirdPackage/lwip220/core/memp.c **** #include "lwip/netdb.h"
  73:ThirdPackage/lwip220/core/memp.c **** #include "lwip/dns.h"
  74:ThirdPackage/lwip220/core/memp.c **** #include "lwip/priv/nd6_priv.h"
  75:ThirdPackage/lwip220/core/memp.c **** #include "lwip/ip6_frag.h"
  76:ThirdPackage/lwip220/core/memp.c **** #include "lwip/mld6.h"
  77:ThirdPackage/lwip220/core/memp.c **** 
  78:ThirdPackage/lwip220/core/memp.c **** #define LWIP_MEMPOOL(name,num,size,desc) LWIP_MEMPOOL_DECLARE(name,num,size,desc)
  79:ThirdPackage/lwip220/core/memp.c **** #include "lwip/priv/memp_std.h"
  80:ThirdPackage/lwip220/core/memp.c **** 
  81:ThirdPackage/lwip220/core/memp.c **** const struct memp_desc *const memp_pools[MEMP_MAX] = {
  82:ThirdPackage/lwip220/core/memp.c **** #define LWIP_MEMPOOL(name,num,size,desc) &memp_ ## name,
  83:ThirdPackage/lwip220/core/memp.c **** #include "lwip/priv/memp_std.h"
  84:ThirdPackage/lwip220/core/memp.c **** };
  85:ThirdPackage/lwip220/core/memp.c **** 
  86:ThirdPackage/lwip220/core/memp.c **** #ifdef LWIP_HOOK_FILENAME
  87:ThirdPackage/lwip220/core/memp.c **** #include LWIP_HOOK_FILENAME
  88:ThirdPackage/lwip220/core/memp.c **** #endif
  89:ThirdPackage/lwip220/core/memp.c **** 
  90:ThirdPackage/lwip220/core/memp.c **** #if MEMP_MEM_MALLOC && MEMP_OVERFLOW_CHECK >= 2
  91:ThirdPackage/lwip220/core/memp.c **** #undef MEMP_OVERFLOW_CHECK
  92:ThirdPackage/lwip220/core/memp.c **** /* MEMP_OVERFLOW_CHECK >= 2 does not work with MEMP_MEM_MALLOC, use 1 instead */
  93:ThirdPackage/lwip220/core/memp.c **** #define MEMP_OVERFLOW_CHECK 1
  94:ThirdPackage/lwip220/core/memp.c **** #endif
  95:ThirdPackage/lwip220/core/memp.c **** 
  96:ThirdPackage/lwip220/core/memp.c **** #if MEMP_SANITY_CHECK && !MEMP_MEM_MALLOC
  97:ThirdPackage/lwip220/core/memp.c **** /**
  98:ThirdPackage/lwip220/core/memp.c ****  * Check that memp-lists don't form a circle, using "Floyd's cycle-finding algorithm".
  99:ThirdPackage/lwip220/core/memp.c ****  */
 100:ThirdPackage/lwip220/core/memp.c **** static int
 101:ThirdPackage/lwip220/core/memp.c **** memp_sanity(const struct memp_desc *desc)
 102:ThirdPackage/lwip220/core/memp.c **** {
 103:ThirdPackage/lwip220/core/memp.c ****   struct memp *t, *h;
 104:ThirdPackage/lwip220/core/memp.c **** 
 105:ThirdPackage/lwip220/core/memp.c ****   t = *desc->tab;
 106:ThirdPackage/lwip220/core/memp.c ****   if (t != NULL) {
 107:ThirdPackage/lwip220/core/memp.c ****     for (h = t->next; (t != NULL) && (h != NULL); t = t->next,
 108:ThirdPackage/lwip220/core/memp.c ****          h = ((h->next != NULL) ? h->next->next : NULL)) {
 109:ThirdPackage/lwip220/core/memp.c ****       if (t == h) {
 110:ThirdPackage/lwip220/core/memp.c ****         return 0;
 111:ThirdPackage/lwip220/core/memp.c ****       }
 112:ThirdPackage/lwip220/core/memp.c ****     }
 113:ThirdPackage/lwip220/core/memp.c ****   }
 114:ThirdPackage/lwip220/core/memp.c **** 
 115:ThirdPackage/lwip220/core/memp.c ****   return 1;
 116:ThirdPackage/lwip220/core/memp.c **** }
 117:ThirdPackage/lwip220/core/memp.c **** #endif /* MEMP_SANITY_CHECK && !MEMP_MEM_MALLOC */
 118:ThirdPackage/lwip220/core/memp.c **** 
 119:ThirdPackage/lwip220/core/memp.c **** #if MEMP_OVERFLOW_CHECK
 120:ThirdPackage/lwip220/core/memp.c **** /**
 121:ThirdPackage/lwip220/core/memp.c ****  * Check if a memp element was victim of an overflow or underflow
 122:ThirdPackage/lwip220/core/memp.c ****  * (e.g. the restricted area after/before it has been altered)
ARM GAS  C:\Users\86188\AppData\Local\Temp\ccLSiKD8.s 			page 4


 123:ThirdPackage/lwip220/core/memp.c ****  *
 124:ThirdPackage/lwip220/core/memp.c ****  * @param p the memp element to check
 125:ThirdPackage/lwip220/core/memp.c ****  * @param desc the pool p comes from
 126:ThirdPackage/lwip220/core/memp.c ****  */
 127:ThirdPackage/lwip220/core/memp.c **** static void
 128:ThirdPackage/lwip220/core/memp.c **** memp_overflow_check_element(struct memp *p, const struct memp_desc *desc)
 129:ThirdPackage/lwip220/core/memp.c **** {
 130:ThirdPackage/lwip220/core/memp.c ****   mem_overflow_check_raw((u8_t *)p + MEMP_SIZE, desc->size, "pool ", desc->desc);
 131:ThirdPackage/lwip220/core/memp.c **** }
 132:ThirdPackage/lwip220/core/memp.c **** 
 133:ThirdPackage/lwip220/core/memp.c **** /**
 134:ThirdPackage/lwip220/core/memp.c ****  * Initialize the restricted area of on memp element.
 135:ThirdPackage/lwip220/core/memp.c ****  */
 136:ThirdPackage/lwip220/core/memp.c **** static void
 137:ThirdPackage/lwip220/core/memp.c **** memp_overflow_init_element(struct memp *p, const struct memp_desc *desc)
 138:ThirdPackage/lwip220/core/memp.c **** {
 139:ThirdPackage/lwip220/core/memp.c ****   mem_overflow_init_raw((u8_t *)p + MEMP_SIZE, desc->size);
 140:ThirdPackage/lwip220/core/memp.c **** }
 141:ThirdPackage/lwip220/core/memp.c **** 
 142:ThirdPackage/lwip220/core/memp.c **** #if MEMP_OVERFLOW_CHECK >= 2
 143:ThirdPackage/lwip220/core/memp.c **** /**
 144:ThirdPackage/lwip220/core/memp.c ****  * Do an overflow check for all elements in every pool.
 145:ThirdPackage/lwip220/core/memp.c ****  *
 146:ThirdPackage/lwip220/core/memp.c ****  * @see memp_overflow_check_element for a description of the check
 147:ThirdPackage/lwip220/core/memp.c ****  */
 148:ThirdPackage/lwip220/core/memp.c **** static void
 149:ThirdPackage/lwip220/core/memp.c **** memp_overflow_check_all(void)
 150:ThirdPackage/lwip220/core/memp.c **** {
 151:ThirdPackage/lwip220/core/memp.c ****   u16_t i, j;
 152:ThirdPackage/lwip220/core/memp.c ****   struct memp *p;
 153:ThirdPackage/lwip220/core/memp.c ****   SYS_ARCH_DECL_PROTECT(old_level);
 154:ThirdPackage/lwip220/core/memp.c ****   SYS_ARCH_PROTECT(old_level);
 155:ThirdPackage/lwip220/core/memp.c **** 
 156:ThirdPackage/lwip220/core/memp.c ****   for (i = 0; i < MEMP_MAX; ++i) {
 157:ThirdPackage/lwip220/core/memp.c ****     p = (struct memp *)LWIP_MEM_ALIGN(memp_pools[i]->base);
 158:ThirdPackage/lwip220/core/memp.c ****     for (j = 0; j < memp_pools[i]->num; ++j) {
 159:ThirdPackage/lwip220/core/memp.c ****       memp_overflow_check_element(p, memp_pools[i]);
 160:ThirdPackage/lwip220/core/memp.c ****       p = LWIP_ALIGNMENT_CAST(struct memp *, ((u8_t *)p + MEMP_SIZE + memp_pools[i]->size + MEM_SAN
 161:ThirdPackage/lwip220/core/memp.c ****     }
 162:ThirdPackage/lwip220/core/memp.c ****   }
 163:ThirdPackage/lwip220/core/memp.c ****   SYS_ARCH_UNPROTECT(old_level);
 164:ThirdPackage/lwip220/core/memp.c **** }
 165:ThirdPackage/lwip220/core/memp.c **** #endif /* MEMP_OVERFLOW_CHECK >= 2 */
 166:ThirdPackage/lwip220/core/memp.c **** #endif /* MEMP_OVERFLOW_CHECK */
 167:ThirdPackage/lwip220/core/memp.c **** 
 168:ThirdPackage/lwip220/core/memp.c **** /**
 169:ThirdPackage/lwip220/core/memp.c ****  * Initialize custom memory pool.
 170:ThirdPackage/lwip220/core/memp.c ****  * Related functions: memp_malloc_pool, memp_free_pool
 171:ThirdPackage/lwip220/core/memp.c ****  *
 172:ThirdPackage/lwip220/core/memp.c ****  * @param desc pool to initialize
 173:ThirdPackage/lwip220/core/memp.c ****  */
 174:ThirdPackage/lwip220/core/memp.c **** void
 175:ThirdPackage/lwip220/core/memp.c **** memp_init_pool(const struct memp_desc *desc)
 176:ThirdPackage/lwip220/core/memp.c **** {
 177:ThirdPackage/lwip220/core/memp.c **** #if MEMP_MEM_MALLOC
 178:ThirdPackage/lwip220/core/memp.c ****   LWIP_UNUSED_ARG(desc);
 179:ThirdPackage/lwip220/core/memp.c **** #else
ARM GAS  C:\Users\86188\AppData\Local\Temp\ccLSiKD8.s 			page 5


 180:ThirdPackage/lwip220/core/memp.c ****   int i;
 181:ThirdPackage/lwip220/core/memp.c ****   struct memp *memp;
 182:ThirdPackage/lwip220/core/memp.c **** 
 183:ThirdPackage/lwip220/core/memp.c ****   *desc->tab = NULL;
 184:ThirdPackage/lwip220/core/memp.c ****   memp = (struct memp *)LWIP_MEM_ALIGN(desc->base);
 185:ThirdPackage/lwip220/core/memp.c **** #if MEMP_MEM_INIT
 186:ThirdPackage/lwip220/core/memp.c ****   /* force memset on pool memory */
 187:ThirdPackage/lwip220/core/memp.c ****   memset(memp, 0, (size_t)desc->num * (MEMP_SIZE + desc->size
 188:ThirdPackage/lwip220/core/memp.c **** #if MEMP_OVERFLOW_CHECK
 189:ThirdPackage/lwip220/core/memp.c ****                                        + MEM_SANITY_REGION_AFTER_ALIGNED
 190:ThirdPackage/lwip220/core/memp.c **** #endif
 191:ThirdPackage/lwip220/core/memp.c ****                                       ));
 192:ThirdPackage/lwip220/core/memp.c **** #endif
 193:ThirdPackage/lwip220/core/memp.c ****   /* create a linked list of memp elements */
 194:ThirdPackage/lwip220/core/memp.c ****   for (i = 0; i < desc->num; ++i) {
 195:ThirdPackage/lwip220/core/memp.c ****     memp->next = *desc->tab;
 196:ThirdPackage/lwip220/core/memp.c ****     *desc->tab = memp;
 197:ThirdPackage/lwip220/core/memp.c **** #if MEMP_OVERFLOW_CHECK
 198:ThirdPackage/lwip220/core/memp.c ****     memp_overflow_init_element(memp, desc);
 199:ThirdPackage/lwip220/core/memp.c **** #endif /* MEMP_OVERFLOW_CHECK */
 200:ThirdPackage/lwip220/core/memp.c ****     /* cast through void* to get rid of alignment warnings */
 201:ThirdPackage/lwip220/core/memp.c ****     memp = (struct memp *)(void *)((u8_t *)memp + MEMP_SIZE + desc->size
 202:ThirdPackage/lwip220/core/memp.c **** #if MEMP_OVERFLOW_CHECK
 203:ThirdPackage/lwip220/core/memp.c ****                                    + MEM_SANITY_REGION_AFTER_ALIGNED
 204:ThirdPackage/lwip220/core/memp.c **** #endif
 205:ThirdPackage/lwip220/core/memp.c ****                                   );
 206:ThirdPackage/lwip220/core/memp.c ****   }
 207:ThirdPackage/lwip220/core/memp.c **** #if MEMP_STATS
 208:ThirdPackage/lwip220/core/memp.c ****   desc->stats->avail = desc->num;
 209:ThirdPackage/lwip220/core/memp.c **** #endif /* MEMP_STATS */
 210:ThirdPackage/lwip220/core/memp.c **** #endif /* !MEMP_MEM_MALLOC */
 211:ThirdPackage/lwip220/core/memp.c **** 
 212:ThirdPackage/lwip220/core/memp.c **** #if MEMP_STATS && (defined(LWIP_DEBUG) || LWIP_STATS_DISPLAY)
 213:ThirdPackage/lwip220/core/memp.c ****   desc->stats->name  = desc->desc;
 214:ThirdPackage/lwip220/core/memp.c **** #endif /* MEMP_STATS && (defined(LWIP_DEBUG) || LWIP_STATS_DISPLAY) */
 215:ThirdPackage/lwip220/core/memp.c **** }
 216:ThirdPackage/lwip220/core/memp.c **** 
 217:ThirdPackage/lwip220/core/memp.c **** /**
 218:ThirdPackage/lwip220/core/memp.c ****  * Initializes lwIP built-in pools.
 219:ThirdPackage/lwip220/core/memp.c ****  * Related functions: memp_malloc, memp_free
 220:ThirdPackage/lwip220/core/memp.c ****  *
 221:ThirdPackage/lwip220/core/memp.c ****  * Carves out memp_memory into linked lists for each pool-type.
 222:ThirdPackage/lwip220/core/memp.c ****  */
 223:ThirdPackage/lwip220/core/memp.c **** void
 224:ThirdPackage/lwip220/core/memp.c **** memp_init(void)
 225:ThirdPackage/lwip220/core/memp.c **** {
 226:ThirdPackage/lwip220/core/memp.c ****   u16_t i;
 227:ThirdPackage/lwip220/core/memp.c **** 
 228:ThirdPackage/lwip220/core/memp.c ****   /* for every pool: */
 229:ThirdPackage/lwip220/core/memp.c ****   for (i = 0; i < LWIP_ARRAYSIZE(memp_pools); i++) {
 230:ThirdPackage/lwip220/core/memp.c ****     memp_init_pool(memp_pools[i]);
 231:ThirdPackage/lwip220/core/memp.c **** 
 232:ThirdPackage/lwip220/core/memp.c **** #if LWIP_STATS && MEMP_STATS
 233:ThirdPackage/lwip220/core/memp.c ****     lwip_stats.memp[i] = memp_pools[i]->stats;
 234:ThirdPackage/lwip220/core/memp.c **** #endif
 235:ThirdPackage/lwip220/core/memp.c ****   }
 236:ThirdPackage/lwip220/core/memp.c **** 
ARM GAS  C:\Users\86188\AppData\Local\Temp\ccLSiKD8.s 			page 6


 237:ThirdPackage/lwip220/core/memp.c **** #if MEMP_OVERFLOW_CHECK >= 2
 238:ThirdPackage/lwip220/core/memp.c ****   /* check everything a first time to see if it worked */
 239:ThirdPackage/lwip220/core/memp.c ****   memp_overflow_check_all();
 240:ThirdPackage/lwip220/core/memp.c **** #endif /* MEMP_OVERFLOW_CHECK >= 2 */
 241:ThirdPackage/lwip220/core/memp.c **** }
 242:ThirdPackage/lwip220/core/memp.c **** 
 243:ThirdPackage/lwip220/core/memp.c **** static void *
 244:ThirdPackage/lwip220/core/memp.c **** #if !MEMP_OVERFLOW_CHECK
 245:ThirdPackage/lwip220/core/memp.c **** do_memp_malloc_pool(const struct memp_desc *desc)
 246:ThirdPackage/lwip220/core/memp.c **** #else
 247:ThirdPackage/lwip220/core/memp.c **** do_memp_malloc_pool_fn(const struct memp_desc *desc, const char *file, const int line)
 248:ThirdPackage/lwip220/core/memp.c **** #endif
 249:ThirdPackage/lwip220/core/memp.c **** {
  39              		.loc 1 249 1 view -0
  40              		.cfi_startproc
  41              		@ args = 0, pretend = 0, frame = 0
  42              		@ frame_needed = 0, uses_anonymous_args = 0
  43              		.loc 1 249 1 is_stmt 0 view .LVU1
  44 0000 38B5     		push	{r3, r4, r5, lr}
  45              	.LCFI0:
  46              		.cfi_def_cfa_offset 16
  47              		.cfi_offset 3, -16
  48              		.cfi_offset 4, -12
  49              		.cfi_offset 5, -8
  50              		.cfi_offset 14, -4
  51 0002 0446     		mov	r4, r0
 250:ThirdPackage/lwip220/core/memp.c ****   struct memp *memp;
  52              		.loc 1 250 3 is_stmt 1 view .LVU2
 251:ThirdPackage/lwip220/core/memp.c ****   SYS_ARCH_DECL_PROTECT(old_level);
  53              		.loc 1 251 3 view .LVU3
 252:ThirdPackage/lwip220/core/memp.c **** 
 253:ThirdPackage/lwip220/core/memp.c **** #if MEMP_MEM_MALLOC
 254:ThirdPackage/lwip220/core/memp.c ****   memp = (struct memp *)mem_malloc(MEMP_SIZE + MEMP_ALIGN_SIZE(desc->size));
 255:ThirdPackage/lwip220/core/memp.c ****   SYS_ARCH_PROTECT(old_level);
 256:ThirdPackage/lwip220/core/memp.c **** #else /* MEMP_MEM_MALLOC */
 257:ThirdPackage/lwip220/core/memp.c ****   SYS_ARCH_PROTECT(old_level);
  54              		.loc 1 257 3 view .LVU4
  55 0004 FFF7FEFF 		bl	sys_arch_protect
  56              	.LVL1:
  57              		.loc 1 257 3 is_stmt 0 view .LVU5
  58 0008 0546     		mov	r5, r0
  59              	.LVL2:
 258:ThirdPackage/lwip220/core/memp.c **** 
 259:ThirdPackage/lwip220/core/memp.c ****   memp = *desc->tab;
  60              		.loc 1 259 3 is_stmt 1 view .LVU6
  61              		.loc 1 259 15 is_stmt 0 view .LVU7
  62 000a A368     		ldr	r3, [r4, #8]
  63              		.loc 1 259 8 view .LVU8
  64 000c 1C68     		ldr	r4, [r3]
  65              	.LVL3:
 260:ThirdPackage/lwip220/core/memp.c **** #endif /* MEMP_MEM_MALLOC */
 261:ThirdPackage/lwip220/core/memp.c **** 
 262:ThirdPackage/lwip220/core/memp.c ****   if (memp != NULL) {
  66              		.loc 1 262 3 is_stmt 1 view .LVU9
  67              		.loc 1 262 6 is_stmt 0 view .LVU10
  68 000e 8CB1     		cbz	r4, .L2
 263:ThirdPackage/lwip220/core/memp.c **** #if !MEMP_MEM_MALLOC
ARM GAS  C:\Users\86188\AppData\Local\Temp\ccLSiKD8.s 			page 7


 264:ThirdPackage/lwip220/core/memp.c **** #if MEMP_OVERFLOW_CHECK == 1
 265:ThirdPackage/lwip220/core/memp.c ****     memp_overflow_check_element(memp, desc);
 266:ThirdPackage/lwip220/core/memp.c **** #endif /* MEMP_OVERFLOW_CHECK */
 267:ThirdPackage/lwip220/core/memp.c **** 
 268:ThirdPackage/lwip220/core/memp.c ****     *desc->tab = memp->next;
  69              		.loc 1 268 5 is_stmt 1 view .LVU11
  70              		.loc 1 268 22 is_stmt 0 view .LVU12
  71 0010 2268     		ldr	r2, [r4]
  72              		.loc 1 268 16 view .LVU13
  73 0012 1A60     		str	r2, [r3]
 269:ThirdPackage/lwip220/core/memp.c **** #if MEMP_OVERFLOW_CHECK
 270:ThirdPackage/lwip220/core/memp.c ****     memp->next = NULL;
 271:ThirdPackage/lwip220/core/memp.c **** #endif /* MEMP_OVERFLOW_CHECK */
 272:ThirdPackage/lwip220/core/memp.c **** #endif /* !MEMP_MEM_MALLOC */
 273:ThirdPackage/lwip220/core/memp.c **** #if MEMP_OVERFLOW_CHECK
 274:ThirdPackage/lwip220/core/memp.c ****     memp->file = file;
 275:ThirdPackage/lwip220/core/memp.c ****     memp->line = line;
 276:ThirdPackage/lwip220/core/memp.c **** #if MEMP_MEM_MALLOC
 277:ThirdPackage/lwip220/core/memp.c ****     memp_overflow_init_element(memp, desc);
 278:ThirdPackage/lwip220/core/memp.c **** #endif /* MEMP_MEM_MALLOC */
 279:ThirdPackage/lwip220/core/memp.c **** #endif /* MEMP_OVERFLOW_CHECK */
 280:ThirdPackage/lwip220/core/memp.c ****     LWIP_ASSERT("memp_malloc: memp properly aligned",
  74              		.loc 1 280 5 is_stmt 1 view .LVU14
  75              		.loc 1 280 5 view .LVU15
  76 0014 14F0030F 		tst	r4, #3
  77 0018 04D1     		bne	.L6
  78              	.LVL4:
  79              	.L3:
  80              		.loc 1 280 5 discriminator 3 view .LVU16
  81              		.loc 1 280 5 discriminator 3 view .LVU17
 281:ThirdPackage/lwip220/core/memp.c ****                 ((mem_ptr_t)memp % MEM_ALIGNMENT) == 0);
 282:ThirdPackage/lwip220/core/memp.c **** #if MEMP_STATS
 283:ThirdPackage/lwip220/core/memp.c ****     desc->stats->used++;
 284:ThirdPackage/lwip220/core/memp.c ****     if (desc->stats->used > desc->stats->max) {
 285:ThirdPackage/lwip220/core/memp.c ****       desc->stats->max = desc->stats->used;
 286:ThirdPackage/lwip220/core/memp.c ****     }
 287:ThirdPackage/lwip220/core/memp.c **** #endif
 288:ThirdPackage/lwip220/core/memp.c ****     SYS_ARCH_UNPROTECT(old_level);
  82              		.loc 1 288 5 discriminator 3 view .LVU18
  83 001a 2846     		mov	r0, r5
  84 001c FFF7FEFF 		bl	sys_arch_unprotect
  85              	.LVL5:
 289:ThirdPackage/lwip220/core/memp.c ****     /* cast through u8_t* to get rid of alignment warnings */
 290:ThirdPackage/lwip220/core/memp.c ****     return ((u8_t *)memp + MEMP_SIZE);
  86              		.loc 1 290 5 discriminator 3 view .LVU19
  87              	.L1:
 291:ThirdPackage/lwip220/core/memp.c ****   } else {
 292:ThirdPackage/lwip220/core/memp.c **** #if MEMP_STATS
 293:ThirdPackage/lwip220/core/memp.c ****     desc->stats->err++;
 294:ThirdPackage/lwip220/core/memp.c **** #endif
 295:ThirdPackage/lwip220/core/memp.c ****     SYS_ARCH_UNPROTECT(old_level);
 296:ThirdPackage/lwip220/core/memp.c ****     LWIP_DEBUGF(MEMP_DEBUG | LWIP_DBG_LEVEL_SERIOUS, ("memp_malloc: out of memory in pool %s\n", de
 297:ThirdPackage/lwip220/core/memp.c ****   }
 298:ThirdPackage/lwip220/core/memp.c **** 
 299:ThirdPackage/lwip220/core/memp.c ****   return NULL;
 300:ThirdPackage/lwip220/core/memp.c **** }
  88              		.loc 1 300 1 is_stmt 0 view .LVU20
ARM GAS  C:\Users\86188\AppData\Local\Temp\ccLSiKD8.s 			page 8


  89 0020 2046     		mov	r0, r4
  90 0022 38BD     		pop	{r3, r4, r5, pc}
  91              	.LVL6:
  92              	.L6:
 280:ThirdPackage/lwip220/core/memp.c ****                 ((mem_ptr_t)memp % MEM_ALIGNMENT) == 0);
  93              		.loc 1 280 5 is_stmt 1 discriminator 1 view .LVU21
 280:ThirdPackage/lwip220/core/memp.c ****                 ((mem_ptr_t)memp % MEM_ALIGNMENT) == 0);
  94              		.loc 1 280 5 discriminator 1 view .LVU22
  95 0024 054B     		ldr	r3, .L7
  96 0026 4FF48C72 		mov	r2, #280
  97 002a 0549     		ldr	r1, .L7+4
  98 002c 0548     		ldr	r0, .L7+8
  99              	.LVL7:
 280:ThirdPackage/lwip220/core/memp.c ****                 ((mem_ptr_t)memp % MEM_ALIGNMENT) == 0);
 100              		.loc 1 280 5 is_stmt 0 discriminator 1 view .LVU23
 101 002e FFF7FEFF 		bl	printf
 102              	.LVL8:
 103 0032 F2E7     		b	.L3
 104              	.LVL9:
 105              	.L2:
 295:ThirdPackage/lwip220/core/memp.c ****     LWIP_DEBUGF(MEMP_DEBUG | LWIP_DBG_LEVEL_SERIOUS, ("memp_malloc: out of memory in pool %s\n", de
 106              		.loc 1 295 5 is_stmt 1 view .LVU24
 107 0034 FFF7FEFF 		bl	sys_arch_unprotect
 108              	.LVL10:
 296:ThirdPackage/lwip220/core/memp.c ****   }
 109              		.loc 1 296 110 view .LVU25
 299:ThirdPackage/lwip220/core/memp.c **** }
 110              		.loc 1 299 3 view .LVU26
 299:ThirdPackage/lwip220/core/memp.c **** }
 111              		.loc 1 299 10 is_stmt 0 view .LVU27
 112 0038 F2E7     		b	.L1
 113              	.L8:
 114 003a 00BF     		.align	2
 115              	.L7:
 116 003c 00000000 		.word	.LC0
 117 0040 24000000 		.word	.LC1
 118 0044 48000000 		.word	.LC2
 119              		.cfi_endproc
 120              	.LFE162:
 122              		.section	.rodata.do_memp_free_pool.str1.4,"aMS",%progbits,1
 123              		.align	2
 124              	.LC3:
 125 0000 6D656D70 		.ascii	"memp_free: mem properly aligned\000"
 125      5F667265 
 125      653A206D 
 125      656D2070 
 125      726F7065 
 126              		.section	.text.do_memp_free_pool,"ax",%progbits
 127              		.align	1
 128              		.syntax unified
 129              		.thumb
 130              		.thumb_func
 132              	do_memp_free_pool:
 133              	.LVL11:
 134              	.LFB165:
 301:ThirdPackage/lwip220/core/memp.c **** 
 302:ThirdPackage/lwip220/core/memp.c **** /**
ARM GAS  C:\Users\86188\AppData\Local\Temp\ccLSiKD8.s 			page 9


 303:ThirdPackage/lwip220/core/memp.c ****  * Get an element from a custom pool.
 304:ThirdPackage/lwip220/core/memp.c ****  *
 305:ThirdPackage/lwip220/core/memp.c ****  * @param desc the pool to get an element from
 306:ThirdPackage/lwip220/core/memp.c ****  *
 307:ThirdPackage/lwip220/core/memp.c ****  * @return a pointer to the allocated memory or a NULL pointer on error
 308:ThirdPackage/lwip220/core/memp.c ****  */
 309:ThirdPackage/lwip220/core/memp.c **** void *
 310:ThirdPackage/lwip220/core/memp.c **** #if !MEMP_OVERFLOW_CHECK
 311:ThirdPackage/lwip220/core/memp.c **** memp_malloc_pool(const struct memp_desc *desc)
 312:ThirdPackage/lwip220/core/memp.c **** #else
 313:ThirdPackage/lwip220/core/memp.c **** memp_malloc_pool_fn(const struct memp_desc *desc, const char *file, const int line)
 314:ThirdPackage/lwip220/core/memp.c **** #endif
 315:ThirdPackage/lwip220/core/memp.c **** {
 316:ThirdPackage/lwip220/core/memp.c ****   LWIP_ASSERT("invalid pool desc", desc != NULL);
 317:ThirdPackage/lwip220/core/memp.c ****   if (desc == NULL) {
 318:ThirdPackage/lwip220/core/memp.c ****     return NULL;
 319:ThirdPackage/lwip220/core/memp.c ****   }
 320:ThirdPackage/lwip220/core/memp.c **** 
 321:ThirdPackage/lwip220/core/memp.c **** #if !MEMP_OVERFLOW_CHECK
 322:ThirdPackage/lwip220/core/memp.c ****   return do_memp_malloc_pool(desc);
 323:ThirdPackage/lwip220/core/memp.c **** #else
 324:ThirdPackage/lwip220/core/memp.c ****   return do_memp_malloc_pool_fn(desc, file, line);
 325:ThirdPackage/lwip220/core/memp.c **** #endif
 326:ThirdPackage/lwip220/core/memp.c **** }
 327:ThirdPackage/lwip220/core/memp.c **** 
 328:ThirdPackage/lwip220/core/memp.c **** /**
 329:ThirdPackage/lwip220/core/memp.c ****  * Get an element from a specific pool.
 330:ThirdPackage/lwip220/core/memp.c ****  *
 331:ThirdPackage/lwip220/core/memp.c ****  * @param type the pool to get an element from
 332:ThirdPackage/lwip220/core/memp.c ****  *
 333:ThirdPackage/lwip220/core/memp.c ****  * @return a pointer to the allocated memory or a NULL pointer on error
 334:ThirdPackage/lwip220/core/memp.c ****  */
 335:ThirdPackage/lwip220/core/memp.c **** void *
 336:ThirdPackage/lwip220/core/memp.c **** #if !MEMP_OVERFLOW_CHECK
 337:ThirdPackage/lwip220/core/memp.c **** memp_malloc(memp_t type)
 338:ThirdPackage/lwip220/core/memp.c **** #else
 339:ThirdPackage/lwip220/core/memp.c **** memp_malloc_fn(memp_t type, const char *file, const int line)
 340:ThirdPackage/lwip220/core/memp.c **** #endif
 341:ThirdPackage/lwip220/core/memp.c **** {
 342:ThirdPackage/lwip220/core/memp.c ****   void *memp;
 343:ThirdPackage/lwip220/core/memp.c ****   LWIP_ERROR("memp_malloc: type < MEMP_MAX", (type < MEMP_MAX), return NULL;);
 344:ThirdPackage/lwip220/core/memp.c **** 
 345:ThirdPackage/lwip220/core/memp.c **** #if MEMP_OVERFLOW_CHECK >= 2
 346:ThirdPackage/lwip220/core/memp.c ****   memp_overflow_check_all();
 347:ThirdPackage/lwip220/core/memp.c **** #endif /* MEMP_OVERFLOW_CHECK >= 2 */
 348:ThirdPackage/lwip220/core/memp.c **** 
 349:ThirdPackage/lwip220/core/memp.c **** #if !MEMP_OVERFLOW_CHECK
 350:ThirdPackage/lwip220/core/memp.c ****   memp = do_memp_malloc_pool(memp_pools[type]);
 351:ThirdPackage/lwip220/core/memp.c **** #else
 352:ThirdPackage/lwip220/core/memp.c ****   memp = do_memp_malloc_pool_fn(memp_pools[type], file, line);
 353:ThirdPackage/lwip220/core/memp.c **** #endif
 354:ThirdPackage/lwip220/core/memp.c **** 
 355:ThirdPackage/lwip220/core/memp.c ****   return memp;
 356:ThirdPackage/lwip220/core/memp.c **** }
 357:ThirdPackage/lwip220/core/memp.c **** 
 358:ThirdPackage/lwip220/core/memp.c **** static void
 359:ThirdPackage/lwip220/core/memp.c **** do_memp_free_pool(const struct memp_desc *desc, void *mem)
ARM GAS  C:\Users\86188\AppData\Local\Temp\ccLSiKD8.s 			page 10


 360:ThirdPackage/lwip220/core/memp.c **** {
 135              		.loc 1 360 1 is_stmt 1 view -0
 136              		.cfi_startproc
 137              		@ args = 0, pretend = 0, frame = 0
 138              		@ frame_needed = 0, uses_anonymous_args = 0
 139              		.loc 1 360 1 is_stmt 0 view .LVU29
 140 0000 38B5     		push	{r3, r4, r5, lr}
 141              	.LCFI1:
 142              		.cfi_def_cfa_offset 16
 143              		.cfi_offset 3, -16
 144              		.cfi_offset 4, -12
 145              		.cfi_offset 5, -8
 146              		.cfi_offset 14, -4
 147 0002 0546     		mov	r5, r0
 148 0004 0C46     		mov	r4, r1
 361:ThirdPackage/lwip220/core/memp.c ****   struct memp *memp;
 149              		.loc 1 361 3 is_stmt 1 view .LVU30
 362:ThirdPackage/lwip220/core/memp.c ****   SYS_ARCH_DECL_PROTECT(old_level);
 150              		.loc 1 362 3 view .LVU31
 363:ThirdPackage/lwip220/core/memp.c **** 
 364:ThirdPackage/lwip220/core/memp.c ****   LWIP_ASSERT("memp_free: mem properly aligned",
 151              		.loc 1 364 3 view .LVU32
 152              		.loc 1 364 3 view .LVU33
 153 0006 11F0030F 		tst	r1, #3
 154 000a 09D1     		bne	.L12
 155              	.LVL12:
 156              	.L10:
 157              		.loc 1 364 3 discriminator 3 view .LVU34
 158              		.loc 1 364 3 discriminator 3 view .LVU35
 365:ThirdPackage/lwip220/core/memp.c ****               ((mem_ptr_t)mem % MEM_ALIGNMENT) == 0);
 366:ThirdPackage/lwip220/core/memp.c **** 
 367:ThirdPackage/lwip220/core/memp.c ****   /* cast through void* to get rid of alignment warnings */
 368:ThirdPackage/lwip220/core/memp.c ****   memp = (struct memp *)(void *)((u8_t *)mem - MEMP_SIZE);
 159              		.loc 1 368 3 discriminator 3 view .LVU36
 369:ThirdPackage/lwip220/core/memp.c **** 
 370:ThirdPackage/lwip220/core/memp.c ****   SYS_ARCH_PROTECT(old_level);
 160              		.loc 1 370 3 discriminator 3 view .LVU37
 161 000c FFF7FEFF 		bl	sys_arch_protect
 162              	.LVL13:
 371:ThirdPackage/lwip220/core/memp.c **** 
 372:ThirdPackage/lwip220/core/memp.c **** #if MEMP_OVERFLOW_CHECK == 1
 373:ThirdPackage/lwip220/core/memp.c ****   memp_overflow_check_element(memp, desc);
 374:ThirdPackage/lwip220/core/memp.c **** #endif /* MEMP_OVERFLOW_CHECK */
 375:ThirdPackage/lwip220/core/memp.c **** 
 376:ThirdPackage/lwip220/core/memp.c **** #if MEMP_STATS
 377:ThirdPackage/lwip220/core/memp.c ****   desc->stats->used--;
 378:ThirdPackage/lwip220/core/memp.c **** #endif
 379:ThirdPackage/lwip220/core/memp.c **** 
 380:ThirdPackage/lwip220/core/memp.c **** #if MEMP_MEM_MALLOC
 381:ThirdPackage/lwip220/core/memp.c ****   LWIP_UNUSED_ARG(desc);
 382:ThirdPackage/lwip220/core/memp.c ****   SYS_ARCH_UNPROTECT(old_level);
 383:ThirdPackage/lwip220/core/memp.c ****   mem_free(memp);
 384:ThirdPackage/lwip220/core/memp.c **** #else /* MEMP_MEM_MALLOC */
 385:ThirdPackage/lwip220/core/memp.c ****   memp->next = *desc->tab;
 163              		.loc 1 385 3 discriminator 3 view .LVU38
 164              		.loc 1 385 21 is_stmt 0 discriminator 3 view .LVU39
 165 0010 AB68     		ldr	r3, [r5, #8]
ARM GAS  C:\Users\86188\AppData\Local\Temp\ccLSiKD8.s 			page 11


 166              		.loc 1 385 16 discriminator 3 view .LVU40
 167 0012 1B68     		ldr	r3, [r3]
 168              		.loc 1 385 14 discriminator 3 view .LVU41
 169 0014 2360     		str	r3, [r4]
 386:ThirdPackage/lwip220/core/memp.c ****   *desc->tab = memp;
 170              		.loc 1 386 3 is_stmt 1 discriminator 3 view .LVU42
 171              		.loc 1 386 8 is_stmt 0 discriminator 3 view .LVU43
 172 0016 AB68     		ldr	r3, [r5, #8]
 173              		.loc 1 386 14 discriminator 3 view .LVU44
 174 0018 1C60     		str	r4, [r3]
 387:ThirdPackage/lwip220/core/memp.c **** 
 388:ThirdPackage/lwip220/core/memp.c **** #if MEMP_SANITY_CHECK
 389:ThirdPackage/lwip220/core/memp.c ****   LWIP_ASSERT("memp sanity", memp_sanity(desc));
 390:ThirdPackage/lwip220/core/memp.c **** #endif /* MEMP_SANITY_CHECK */
 391:ThirdPackage/lwip220/core/memp.c **** 
 392:ThirdPackage/lwip220/core/memp.c ****   SYS_ARCH_UNPROTECT(old_level);
 175              		.loc 1 392 3 is_stmt 1 discriminator 3 view .LVU45
 176 001a FFF7FEFF 		bl	sys_arch_unprotect
 177              	.LVL14:
 393:ThirdPackage/lwip220/core/memp.c **** #endif /* !MEMP_MEM_MALLOC */
 394:ThirdPackage/lwip220/core/memp.c **** }
 178              		.loc 1 394 1 is_stmt 0 discriminator 3 view .LVU46
 179 001e 38BD     		pop	{r3, r4, r5, pc}
 180              	.LVL15:
 181              	.L12:
 364:ThirdPackage/lwip220/core/memp.c ****               ((mem_ptr_t)mem % MEM_ALIGNMENT) == 0);
 182              		.loc 1 364 3 is_stmt 1 discriminator 1 view .LVU47
 364:ThirdPackage/lwip220/core/memp.c ****               ((mem_ptr_t)mem % MEM_ALIGNMENT) == 0);
 183              		.loc 1 364 3 discriminator 1 view .LVU48
 184 0020 034B     		ldr	r3, .L13
 185 0022 4FF4B672 		mov	r2, #364
 186 0026 0349     		ldr	r1, .L13+4
 187              	.LVL16:
 364:ThirdPackage/lwip220/core/memp.c ****               ((mem_ptr_t)mem % MEM_ALIGNMENT) == 0);
 188              		.loc 1 364 3 is_stmt 0 discriminator 1 view .LVU49
 189 0028 0348     		ldr	r0, .L13+8
 190              	.LVL17:
 364:ThirdPackage/lwip220/core/memp.c ****               ((mem_ptr_t)mem % MEM_ALIGNMENT) == 0);
 191              		.loc 1 364 3 discriminator 1 view .LVU50
 192 002a FFF7FEFF 		bl	printf
 193              	.LVL18:
 194 002e EDE7     		b	.L10
 195              	.L14:
 196              		.align	2
 197              	.L13:
 198 0030 00000000 		.word	.LC0
 199 0034 00000000 		.word	.LC3
 200 0038 48000000 		.word	.LC2
 201              		.cfi_endproc
 202              	.LFE165:
 204              		.section	.text.memp_init_pool,"ax",%progbits
 205              		.align	1
 206              		.global	memp_init_pool
 207              		.syntax unified
 208              		.thumb
 209              		.thumb_func
 211              	memp_init_pool:
ARM GAS  C:\Users\86188\AppData\Local\Temp\ccLSiKD8.s 			page 12


 212              	.LVL19:
 213              	.LFB160:
 176:ThirdPackage/lwip220/core/memp.c **** #if MEMP_MEM_MALLOC
 214              		.loc 1 176 1 is_stmt 1 view -0
 215              		.cfi_startproc
 216              		@ args = 0, pretend = 0, frame = 0
 217              		@ frame_needed = 0, uses_anonymous_args = 0
 218              		@ link register save eliminated.
 180:ThirdPackage/lwip220/core/memp.c ****   struct memp *memp;
 219              		.loc 1 180 3 view .LVU52
 181:ThirdPackage/lwip220/core/memp.c **** 
 220              		.loc 1 181 3 view .LVU53
 183:ThirdPackage/lwip220/core/memp.c ****   memp = (struct memp *)LWIP_MEM_ALIGN(desc->base);
 221              		.loc 1 183 3 view .LVU54
 183:ThirdPackage/lwip220/core/memp.c ****   memp = (struct memp *)LWIP_MEM_ALIGN(desc->base);
 222              		.loc 1 183 8 is_stmt 0 view .LVU55
 223 0000 8368     		ldr	r3, [r0, #8]
 183:ThirdPackage/lwip220/core/memp.c ****   memp = (struct memp *)LWIP_MEM_ALIGN(desc->base);
 224              		.loc 1 183 14 view .LVU56
 225 0002 0022     		movs	r2, #0
 226 0004 1A60     		str	r2, [r3]
 184:ThirdPackage/lwip220/core/memp.c **** #if MEMP_MEM_INIT
 227              		.loc 1 184 3 is_stmt 1 view .LVU57
 184:ThirdPackage/lwip220/core/memp.c **** #if MEMP_MEM_INIT
 228              		.loc 1 184 25 is_stmt 0 view .LVU58
 229 0006 4368     		ldr	r3, [r0, #4]
 230 0008 0333     		adds	r3, r3, #3
 231 000a 23F00303 		bic	r3, r3, #3
 232              	.LVL20:
 194:ThirdPackage/lwip220/core/memp.c ****     memp->next = *desc->tab;
 233              		.loc 1 194 3 is_stmt 1 view .LVU59
 194:ThirdPackage/lwip220/core/memp.c ****     memp->next = *desc->tab;
 234              		.loc 1 194 3 is_stmt 0 view .LVU60
 235 000e 07E0     		b	.L16
 236              	.LVL21:
 237              	.L17:
 195:ThirdPackage/lwip220/core/memp.c ****     *desc->tab = memp;
 238              		.loc 1 195 5 is_stmt 1 discriminator 3 view .LVU61
 195:ThirdPackage/lwip220/core/memp.c ****     *desc->tab = memp;
 239              		.loc 1 195 23 is_stmt 0 discriminator 3 view .LVU62
 240 0010 8168     		ldr	r1, [r0, #8]
 195:ThirdPackage/lwip220/core/memp.c ****     *desc->tab = memp;
 241              		.loc 1 195 18 discriminator 3 view .LVU63
 242 0012 0968     		ldr	r1, [r1]
 195:ThirdPackage/lwip220/core/memp.c ****     *desc->tab = memp;
 243              		.loc 1 195 16 discriminator 3 view .LVU64
 244 0014 1960     		str	r1, [r3]
 196:ThirdPackage/lwip220/core/memp.c **** #if MEMP_OVERFLOW_CHECK
 245              		.loc 1 196 5 is_stmt 1 discriminator 3 view .LVU65
 196:ThirdPackage/lwip220/core/memp.c **** #if MEMP_OVERFLOW_CHECK
 246              		.loc 1 196 10 is_stmt 0 discriminator 3 view .LVU66
 247 0016 8168     		ldr	r1, [r0, #8]
 196:ThirdPackage/lwip220/core/memp.c **** #if MEMP_OVERFLOW_CHECK
 248              		.loc 1 196 16 discriminator 3 view .LVU67
 249 0018 0B60     		str	r3, [r1]
 201:ThirdPackage/lwip220/core/memp.c **** #if MEMP_OVERFLOW_CHECK
 250              		.loc 1 201 5 is_stmt 1 discriminator 3 view .LVU68
ARM GAS  C:\Users\86188\AppData\Local\Temp\ccLSiKD8.s 			page 13


 201:ThirdPackage/lwip220/core/memp.c **** #if MEMP_OVERFLOW_CHECK
 251              		.loc 1 201 67 is_stmt 0 discriminator 3 view .LVU69
 252 001a 0188     		ldrh	r1, [r0]
 201:ThirdPackage/lwip220/core/memp.c **** #if MEMP_OVERFLOW_CHECK
 253              		.loc 1 201 10 discriminator 3 view .LVU70
 254 001c 0B44     		add	r3, r3, r1
 255              	.LVL22:
 194:ThirdPackage/lwip220/core/memp.c ****     memp->next = *desc->tab;
 256              		.loc 1 194 30 is_stmt 1 discriminator 3 view .LVU71
 257 001e 0132     		adds	r2, r2, #1
 258              	.LVL23:
 259              	.L16:
 194:ThirdPackage/lwip220/core/memp.c ****     memp->next = *desc->tab;
 260              		.loc 1 194 15 discriminator 1 view .LVU72
 194:ThirdPackage/lwip220/core/memp.c ****     memp->next = *desc->tab;
 261              		.loc 1 194 23 is_stmt 0 discriminator 1 view .LVU73
 262 0020 4188     		ldrh	r1, [r0, #2]
 194:ThirdPackage/lwip220/core/memp.c ****     memp->next = *desc->tab;
 263              		.loc 1 194 3 discriminator 1 view .LVU74
 264 0022 9142     		cmp	r1, r2
 265 0024 F4DC     		bgt	.L17
 215:ThirdPackage/lwip220/core/memp.c **** 
 266              		.loc 1 215 1 view .LVU75
 267 0026 7047     		bx	lr
 268              		.cfi_endproc
 269              	.LFE160:
 271              		.section	.text.memp_init,"ax",%progbits
 272              		.align	1
 273              		.global	memp_init
 274              		.syntax unified
 275              		.thumb
 276              		.thumb_func
 278              	memp_init:
 279              	.LFB161:
 225:ThirdPackage/lwip220/core/memp.c ****   u16_t i;
 280              		.loc 1 225 1 is_stmt 1 view -0
 281              		.cfi_startproc
 282              		@ args = 0, pretend = 0, frame = 0
 283              		@ frame_needed = 0, uses_anonymous_args = 0
 284 0000 10B5     		push	{r4, lr}
 285              	.LCFI2:
 286              		.cfi_def_cfa_offset 8
 287              		.cfi_offset 4, -8
 288              		.cfi_offset 14, -4
 226:ThirdPackage/lwip220/core/memp.c **** 
 289              		.loc 1 226 3 view .LVU77
 229:ThirdPackage/lwip220/core/memp.c ****     memp_init_pool(memp_pools[i]);
 290              		.loc 1 229 3 view .LVU78
 291              	.LVL24:
 229:ThirdPackage/lwip220/core/memp.c ****     memp_init_pool(memp_pools[i]);
 292              		.loc 1 229 10 is_stmt 0 view .LVU79
 293 0002 0024     		movs	r4, #0
 229:ThirdPackage/lwip220/core/memp.c ****     memp_init_pool(memp_pools[i]);
 294              		.loc 1 229 3 view .LVU80
 295 0004 06E0     		b	.L19
 296              	.LVL25:
 297              	.L20:
ARM GAS  C:\Users\86188\AppData\Local\Temp\ccLSiKD8.s 			page 14


 230:ThirdPackage/lwip220/core/memp.c **** 
 298              		.loc 1 230 5 is_stmt 1 discriminator 3 view .LVU81
 299 0006 054B     		ldr	r3, .L22
 300 0008 53F82400 		ldr	r0, [r3, r4, lsl #2]
 301 000c FFF7FEFF 		bl	memp_init_pool
 302              	.LVL26:
 229:ThirdPackage/lwip220/core/memp.c ****     memp_init_pool(memp_pools[i]);
 303              		.loc 1 229 47 discriminator 3 view .LVU82
 229:ThirdPackage/lwip220/core/memp.c ****     memp_init_pool(memp_pools[i]);
 304              		.loc 1 229 48 is_stmt 0 discriminator 3 view .LVU83
 305 0010 0134     		adds	r4, r4, #1
 306              	.LVL27:
 229:ThirdPackage/lwip220/core/memp.c ****     memp_init_pool(memp_pools[i]);
 307              		.loc 1 229 48 discriminator 3 view .LVU84
 308 0012 A4B2     		uxth	r4, r4
 309              	.LVL28:
 310              	.L19:
 229:ThirdPackage/lwip220/core/memp.c ****     memp_init_pool(memp_pools[i]);
 311              		.loc 1 229 15 is_stmt 1 discriminator 1 view .LVU85
 229:ThirdPackage/lwip220/core/memp.c ****     memp_init_pool(memp_pools[i]);
 312              		.loc 1 229 3 is_stmt 0 discriminator 1 view .LVU86
 313 0014 0C2C     		cmp	r4, #12
 314 0016 F6D9     		bls	.L20
 241:ThirdPackage/lwip220/core/memp.c **** 
 315              		.loc 1 241 1 view .LVU87
 316 0018 10BD     		pop	{r4, pc}
 317              	.LVL29:
 318              	.L23:
 241:ThirdPackage/lwip220/core/memp.c **** 
 319              		.loc 1 241 1 view .LVU88
 320 001a 00BF     		.align	2
 321              	.L22:
 322 001c 00000000 		.word	.LANCHOR0
 323              		.cfi_endproc
 324              	.LFE161:
 326              		.section	.rodata.memp_malloc_pool.str1.4,"aMS",%progbits,1
 327              		.align	2
 328              	.LC4:
 329 0000 696E7661 		.ascii	"invalid pool desc\000"
 329      6C696420 
 329      706F6F6C 
 329      20646573 
 329      6300
 330              		.section	.text.memp_malloc_pool,"ax",%progbits
 331              		.align	1
 332              		.global	memp_malloc_pool
 333              		.syntax unified
 334              		.thumb
 335              		.thumb_func
 337              	memp_malloc_pool:
 338              	.LVL30:
 339              	.LFB163:
 315:ThirdPackage/lwip220/core/memp.c ****   LWIP_ASSERT("invalid pool desc", desc != NULL);
 340              		.loc 1 315 1 is_stmt 1 view -0
 341              		.cfi_startproc
 342              		@ args = 0, pretend = 0, frame = 0
 343              		@ frame_needed = 0, uses_anonymous_args = 0
ARM GAS  C:\Users\86188\AppData\Local\Temp\ccLSiKD8.s 			page 15


 315:ThirdPackage/lwip220/core/memp.c ****   LWIP_ASSERT("invalid pool desc", desc != NULL);
 344              		.loc 1 315 1 is_stmt 0 view .LVU90
 345 0000 10B5     		push	{r4, lr}
 346              	.LCFI3:
 347              		.cfi_def_cfa_offset 8
 348              		.cfi_offset 4, -8
 349              		.cfi_offset 14, -4
 316:ThirdPackage/lwip220/core/memp.c ****   if (desc == NULL) {
 350              		.loc 1 316 3 is_stmt 1 view .LVU91
 316:ThirdPackage/lwip220/core/memp.c ****   if (desc == NULL) {
 351              		.loc 1 316 3 view .LVU92
 352 0002 0446     		mov	r4, r0
 353 0004 20B1     		cbz	r0, .L29
 354              	.LVL31:
 355              	.L25:
 316:ThirdPackage/lwip220/core/memp.c ****   if (desc == NULL) {
 356              		.loc 1 316 3 discriminator 3 view .LVU93
 316:ThirdPackage/lwip220/core/memp.c ****   if (desc == NULL) {
 357              		.loc 1 316 3 discriminator 3 view .LVU94
 317:ThirdPackage/lwip220/core/memp.c ****     return NULL;
 358              		.loc 1 317 3 discriminator 3 view .LVU95
 317:ThirdPackage/lwip220/core/memp.c ****     return NULL;
 359              		.loc 1 317 6 is_stmt 0 discriminator 3 view .LVU96
 360 0006 5CB1     		cbz	r4, .L27
 322:ThirdPackage/lwip220/core/memp.c **** #else
 361              		.loc 1 322 3 is_stmt 1 view .LVU97
 322:ThirdPackage/lwip220/core/memp.c **** #else
 362              		.loc 1 322 10 is_stmt 0 view .LVU98
 363 0008 2046     		mov	r0, r4
 364 000a FFF7FEFF 		bl	do_memp_malloc_pool
 365              	.LVL32:
 366              	.L24:
 326:ThirdPackage/lwip220/core/memp.c **** 
 367              		.loc 1 326 1 view .LVU99
 368 000e 10BD     		pop	{r4, pc}
 369              	.LVL33:
 370              	.L29:
 316:ThirdPackage/lwip220/core/memp.c ****   if (desc == NULL) {
 371              		.loc 1 316 3 is_stmt 1 discriminator 1 view .LVU100
 316:ThirdPackage/lwip220/core/memp.c ****   if (desc == NULL) {
 372              		.loc 1 316 3 discriminator 1 view .LVU101
 373 0010 044B     		ldr	r3, .L30
 374 0012 4FF49E72 		mov	r2, #316
 375 0016 0449     		ldr	r1, .L30+4
 376 0018 0448     		ldr	r0, .L30+8
 377              	.LVL34:
 316:ThirdPackage/lwip220/core/memp.c ****   if (desc == NULL) {
 378              		.loc 1 316 3 is_stmt 0 discriminator 1 view .LVU102
 379 001a FFF7FEFF 		bl	printf
 380              	.LVL35:
 381 001e F2E7     		b	.L25
 382              	.L27:
 318:ThirdPackage/lwip220/core/memp.c ****   }
 383              		.loc 1 318 12 view .LVU103
 384 0020 2046     		mov	r0, r4
 385 0022 F4E7     		b	.L24
 386              	.L31:
ARM GAS  C:\Users\86188\AppData\Local\Temp\ccLSiKD8.s 			page 16


 387              		.align	2
 388              	.L30:
 389 0024 00000000 		.word	.LC0
 390 0028 00000000 		.word	.LC4
 391 002c 48000000 		.word	.LC2
 392              		.cfi_endproc
 393              	.LFE163:
 395              		.section	.text.memp_malloc,"ax",%progbits
 396              		.align	1
 397              		.global	memp_malloc
 398              		.syntax unified
 399              		.thumb
 400              		.thumb_func
 402              	memp_malloc:
 403              	.LVL36:
 404              	.LFB164:
 341:ThirdPackage/lwip220/core/memp.c ****   void *memp;
 405              		.loc 1 341 1 is_stmt 1 view -0
 406              		.cfi_startproc
 407              		@ args = 0, pretend = 0, frame = 0
 408              		@ frame_needed = 0, uses_anonymous_args = 0
 342:ThirdPackage/lwip220/core/memp.c ****   LWIP_ERROR("memp_malloc: type < MEMP_MAX", (type < MEMP_MAX), return NULL;);
 409              		.loc 1 342 3 view .LVU105
 343:ThirdPackage/lwip220/core/memp.c **** 
 410              		.loc 1 343 3 view .LVU106
 343:ThirdPackage/lwip220/core/memp.c **** 
 411              		.loc 1 343 3 view .LVU107
 412 0000 0C28     		cmp	r0, #12
 413 0002 06D8     		bhi	.L34
 341:ThirdPackage/lwip220/core/memp.c ****   void *memp;
 414              		.loc 1 341 1 is_stmt 0 discriminator 2 view .LVU108
 415 0004 08B5     		push	{r3, lr}
 416              	.LCFI4:
 417              		.cfi_def_cfa_offset 8
 418              		.cfi_offset 3, -8
 419              		.cfi_offset 14, -4
 343:ThirdPackage/lwip220/core/memp.c **** 
 420              		.loc 1 343 3 is_stmt 1 discriminator 2 view .LVU109
 343:ThirdPackage/lwip220/core/memp.c **** 
 421              		.loc 1 343 3 discriminator 2 view .LVU110
 350:ThirdPackage/lwip220/core/memp.c **** #else
 422              		.loc 1 350 3 discriminator 2 view .LVU111
 350:ThirdPackage/lwip220/core/memp.c **** #else
 423              		.loc 1 350 10 is_stmt 0 discriminator 2 view .LVU112
 424 0006 044B     		ldr	r3, .L39
 425 0008 53F82000 		ldr	r0, [r3, r0, lsl #2]
 426              	.LVL37:
 350:ThirdPackage/lwip220/core/memp.c **** #else
 427              		.loc 1 350 10 discriminator 2 view .LVU113
 428 000c FFF7FEFF 		bl	do_memp_malloc_pool
 429              	.LVL38:
 355:ThirdPackage/lwip220/core/memp.c **** }
 430              		.loc 1 355 3 is_stmt 1 discriminator 2 view .LVU114
 356:ThirdPackage/lwip220/core/memp.c **** 
 431              		.loc 1 356 1 is_stmt 0 discriminator 2 view .LVU115
 432 0010 08BD     		pop	{r3, pc}
 433              	.LVL39:
ARM GAS  C:\Users\86188\AppData\Local\Temp\ccLSiKD8.s 			page 17


 434              	.L34:
 435              	.LCFI5:
 436              		.cfi_def_cfa_offset 0
 437              		.cfi_restore 3
 438              		.cfi_restore 14
 343:ThirdPackage/lwip220/core/memp.c **** 
 439              		.loc 1 343 3 view .LVU116
 440 0012 0020     		movs	r0, #0
 441              	.LVL40:
 356:ThirdPackage/lwip220/core/memp.c **** 
 442              		.loc 1 356 1 view .LVU117
 443 0014 7047     		bx	lr
 444              	.L40:
 445 0016 00BF     		.align	2
 446              	.L39:
 447 0018 00000000 		.word	.LANCHOR0
 448              		.cfi_endproc
 449              	.LFE164:
 451              		.section	.text.memp_free_pool,"ax",%progbits
 452              		.align	1
 453              		.global	memp_free_pool
 454              		.syntax unified
 455              		.thumb
 456              		.thumb_func
 458              	memp_free_pool:
 459              	.LVL41:
 460              	.LFB166:
 395:ThirdPackage/lwip220/core/memp.c **** 
 396:ThirdPackage/lwip220/core/memp.c **** /**
 397:ThirdPackage/lwip220/core/memp.c ****  * Put a custom pool element back into its pool.
 398:ThirdPackage/lwip220/core/memp.c ****  *
 399:ThirdPackage/lwip220/core/memp.c ****  * @param desc the pool where to put mem
 400:ThirdPackage/lwip220/core/memp.c ****  * @param mem the memp element to free
 401:ThirdPackage/lwip220/core/memp.c ****  */
 402:ThirdPackage/lwip220/core/memp.c **** void
 403:ThirdPackage/lwip220/core/memp.c **** memp_free_pool(const struct memp_desc *desc, void *mem)
 404:ThirdPackage/lwip220/core/memp.c **** {
 461              		.loc 1 404 1 is_stmt 1 view -0
 462              		.cfi_startproc
 463              		@ args = 0, pretend = 0, frame = 0
 464              		@ frame_needed = 0, uses_anonymous_args = 0
 465              		.loc 1 404 1 is_stmt 0 view .LVU119
 466 0000 38B5     		push	{r3, r4, r5, lr}
 467              	.LCFI6:
 468              		.cfi_def_cfa_offset 16
 469              		.cfi_offset 3, -16
 470              		.cfi_offset 4, -12
 471              		.cfi_offset 5, -8
 472              		.cfi_offset 14, -4
 473 0002 0C46     		mov	r4, r1
 405:ThirdPackage/lwip220/core/memp.c ****   LWIP_ASSERT("invalid pool desc", desc != NULL);
 474              		.loc 1 405 3 is_stmt 1 view .LVU120
 475              		.loc 1 405 3 view .LVU121
 476 0004 0546     		mov	r5, r0
 477 0006 30B1     		cbz	r0, .L45
 478              	.LVL42:
 479              	.L42:
ARM GAS  C:\Users\86188\AppData\Local\Temp\ccLSiKD8.s 			page 18


 480              		.loc 1 405 3 discriminator 3 view .LVU122
 481              		.loc 1 405 3 discriminator 3 view .LVU123
 406:ThirdPackage/lwip220/core/memp.c ****   if ((desc == NULL) || (mem == NULL)) {
 482              		.loc 1 406 3 discriminator 3 view .LVU124
 483              		.loc 1 406 6 is_stmt 0 discriminator 3 view .LVU125
 484 0008 25B1     		cbz	r5, .L41
 485              		.loc 1 406 22 discriminator 1 view .LVU126
 486 000a 1CB1     		cbz	r4, .L41
 407:ThirdPackage/lwip220/core/memp.c ****     return;
 408:ThirdPackage/lwip220/core/memp.c ****   }
 409:ThirdPackage/lwip220/core/memp.c **** 
 410:ThirdPackage/lwip220/core/memp.c ****   do_memp_free_pool(desc, mem);
 487              		.loc 1 410 3 is_stmt 1 view .LVU127
 488 000c 2146     		mov	r1, r4
 489 000e 2846     		mov	r0, r5
 490 0010 FFF7FEFF 		bl	do_memp_free_pool
 491              	.LVL43:
 492              	.L41:
 411:ThirdPackage/lwip220/core/memp.c **** }
 493              		.loc 1 411 1 is_stmt 0 view .LVU128
 494 0014 38BD     		pop	{r3, r4, r5, pc}
 495              	.LVL44:
 496              	.L45:
 405:ThirdPackage/lwip220/core/memp.c ****   if ((desc == NULL) || (mem == NULL)) {
 497              		.loc 1 405 3 is_stmt 1 discriminator 1 view .LVU129
 405:ThirdPackage/lwip220/core/memp.c ****   if ((desc == NULL) || (mem == NULL)) {
 498              		.loc 1 405 3 discriminator 1 view .LVU130
 499 0016 044B     		ldr	r3, .L46
 500 0018 40F29512 		movw	r2, #405
 501 001c 0349     		ldr	r1, .L46+4
 502              	.LVL45:
 405:ThirdPackage/lwip220/core/memp.c ****   if ((desc == NULL) || (mem == NULL)) {
 503              		.loc 1 405 3 is_stmt 0 discriminator 1 view .LVU131
 504 001e 0448     		ldr	r0, .L46+8
 505              	.LVL46:
 405:ThirdPackage/lwip220/core/memp.c ****   if ((desc == NULL) || (mem == NULL)) {
 506              		.loc 1 405 3 discriminator 1 view .LVU132
 507 0020 FFF7FEFF 		bl	printf
 508              	.LVL47:
 509 0024 F0E7     		b	.L42
 510              	.L47:
 511 0026 00BF     		.align	2
 512              	.L46:
 513 0028 00000000 		.word	.LC0
 514 002c 00000000 		.word	.LC4
 515 0030 48000000 		.word	.LC2
 516              		.cfi_endproc
 517              	.LFE166:
 519              		.section	.text.memp_free,"ax",%progbits
 520              		.align	1
 521              		.global	memp_free
 522              		.syntax unified
 523              		.thumb
 524              		.thumb_func
 526              	memp_free:
 527              	.LVL48:
 528              	.LFB167:
ARM GAS  C:\Users\86188\AppData\Local\Temp\ccLSiKD8.s 			page 19


 412:ThirdPackage/lwip220/core/memp.c **** 
 413:ThirdPackage/lwip220/core/memp.c **** /**
 414:ThirdPackage/lwip220/core/memp.c ****  * Put an element back into its pool.
 415:ThirdPackage/lwip220/core/memp.c ****  *
 416:ThirdPackage/lwip220/core/memp.c ****  * @param type the pool where to put mem
 417:ThirdPackage/lwip220/core/memp.c ****  * @param mem the memp element to free
 418:ThirdPackage/lwip220/core/memp.c ****  */
 419:ThirdPackage/lwip220/core/memp.c **** void
 420:ThirdPackage/lwip220/core/memp.c **** memp_free(memp_t type, void *mem)
 421:ThirdPackage/lwip220/core/memp.c **** {
 529              		.loc 1 421 1 is_stmt 1 view -0
 530              		.cfi_startproc
 531              		@ args = 0, pretend = 0, frame = 0
 532              		@ frame_needed = 0, uses_anonymous_args = 0
 422:ThirdPackage/lwip220/core/memp.c **** #ifdef LWIP_HOOK_MEMP_AVAILABLE
 423:ThirdPackage/lwip220/core/memp.c ****   struct memp *old_first;
 424:ThirdPackage/lwip220/core/memp.c **** #endif
 425:ThirdPackage/lwip220/core/memp.c **** 
 426:ThirdPackage/lwip220/core/memp.c ****   LWIP_ERROR("memp_free: type < MEMP_MAX", (type < MEMP_MAX), return;);
 533              		.loc 1 426 3 view .LVU134
 534              		.loc 1 426 3 view .LVU135
 535 0000 0C28     		cmp	r0, #12
 536 0002 07D8     		bhi	.L51
 537              		.loc 1 426 3 discriminator 2 view .LVU136
 538              		.loc 1 426 3 discriminator 2 view .LVU137
 427:ThirdPackage/lwip220/core/memp.c **** 
 428:ThirdPackage/lwip220/core/memp.c ****   if (mem == NULL) {
 539              		.loc 1 428 3 discriminator 2 view .LVU138
 540              		.loc 1 428 6 is_stmt 0 discriminator 2 view .LVU139
 541 0004 31B1     		cbz	r1, .L51
 421:ThirdPackage/lwip220/core/memp.c **** #ifdef LWIP_HOOK_MEMP_AVAILABLE
 542              		.loc 1 421 1 view .LVU140
 543 0006 08B5     		push	{r3, lr}
 544              	.LCFI7:
 545              		.cfi_def_cfa_offset 8
 546              		.cfi_offset 3, -8
 547              		.cfi_offset 14, -4
 429:ThirdPackage/lwip220/core/memp.c ****     return;
 430:ThirdPackage/lwip220/core/memp.c ****   }
 431:ThirdPackage/lwip220/core/memp.c **** 
 432:ThirdPackage/lwip220/core/memp.c **** #if MEMP_OVERFLOW_CHECK >= 2
 433:ThirdPackage/lwip220/core/memp.c ****   memp_overflow_check_all();
 434:ThirdPackage/lwip220/core/memp.c **** #endif /* MEMP_OVERFLOW_CHECK >= 2 */
 435:ThirdPackage/lwip220/core/memp.c **** 
 436:ThirdPackage/lwip220/core/memp.c **** #ifdef LWIP_HOOK_MEMP_AVAILABLE
 437:ThirdPackage/lwip220/core/memp.c ****   old_first = *memp_pools[type]->tab;
 438:ThirdPackage/lwip220/core/memp.c **** #endif
 439:ThirdPackage/lwip220/core/memp.c **** 
 440:ThirdPackage/lwip220/core/memp.c ****   do_memp_free_pool(memp_pools[type], mem);
 548              		.loc 1 440 3 is_stmt 1 view .LVU141
 549 0008 034B     		ldr	r3, .L54
 550 000a 53F82000 		ldr	r0, [r3, r0, lsl #2]
 551              	.LVL49:
 552              		.loc 1 440 3 is_stmt 0 view .LVU142
 553 000e FFF7FEFF 		bl	do_memp_free_pool
 554              	.LVL50:
 441:ThirdPackage/lwip220/core/memp.c **** 
ARM GAS  C:\Users\86188\AppData\Local\Temp\ccLSiKD8.s 			page 20


 442:ThirdPackage/lwip220/core/memp.c **** #ifdef LWIP_HOOK_MEMP_AVAILABLE
 443:ThirdPackage/lwip220/core/memp.c ****   if (old_first == NULL) {
 444:ThirdPackage/lwip220/core/memp.c ****     LWIP_HOOK_MEMP_AVAILABLE(type);
 445:ThirdPackage/lwip220/core/memp.c ****   }
 446:ThirdPackage/lwip220/core/memp.c **** #endif
 447:ThirdPackage/lwip220/core/memp.c **** }
 555              		.loc 1 447 1 view .LVU143
 556 0012 08BD     		pop	{r3, pc}
 557              	.LVL51:
 558              	.L51:
 559              	.LCFI8:
 560              		.cfi_def_cfa_offset 0
 561              		.cfi_restore 3
 562              		.cfi_restore 14
 563              		.loc 1 447 1 view .LVU144
 564 0014 7047     		bx	lr
 565              	.L55:
 566 0016 00BF     		.align	2
 567              	.L54:
 568 0018 00000000 		.word	.LANCHOR0
 569              		.cfi_endproc
 570              	.LFE167:
 572              		.global	memp_pools
 573              		.global	memp_PBUF_POOL
 574              		.global	memp_memory_PBUF_POOL_base
 575              		.global	memp_PBUF
 576              		.global	memp_memory_PBUF_base
 577              		.global	memp_SYS_TIMEOUT
 578              		.global	memp_memory_SYS_TIMEOUT_base
 579              		.global	memp_TCPIP_MSG_INPKT
 580              		.global	memp_memory_TCPIP_MSG_INPKT_base
 581              		.global	memp_TCPIP_MSG_API
 582              		.global	memp_memory_TCPIP_MSG_API_base
 583              		.global	memp_NETCONN
 584              		.global	memp_memory_NETCONN_base
 585              		.global	memp_NETBUF
 586              		.global	memp_memory_NETBUF_base
 587              		.global	memp_FRAG_PBUF
 588              		.global	memp_memory_FRAG_PBUF_base
 589              		.global	memp_REASSDATA
 590              		.global	memp_memory_REASSDATA_base
 591              		.global	memp_TCP_SEG
 592              		.global	memp_memory_TCP_SEG_base
 593              		.global	memp_TCP_PCB_LISTEN
 594              		.global	memp_memory_TCP_PCB_LISTEN_base
 595              		.global	memp_TCP_PCB
 596              		.global	memp_memory_TCP_PCB_base
 597              		.global	memp_UDP_PCB
 598              		.global	memp_memory_UDP_PCB_base
 599              		.section	.bss.memp_memory_FRAG_PBUF_base,"aw",%nobits
 600              		.align	2
 603              	memp_memory_FRAG_PBUF_base:
 604 0000 00000000 		.space	363
 604      00000000 
 604      00000000 
 604      00000000 
 604      00000000 
ARM GAS  C:\Users\86188\AppData\Local\Temp\ccLSiKD8.s 			page 21


 605              		.section	.bss.memp_memory_NETBUF_base,"aw",%nobits
 606              		.align	2
 609              	memp_memory_NETBUF_base:
 610 0000 00000000 		.space	35
 610      00000000 
 610      00000000 
 610      00000000 
 610      00000000 
 611              		.section	.bss.memp_memory_NETCONN_base,"aw",%nobits
 612              		.align	2
 615              	memp_memory_NETCONN_base:
 616 0000 00000000 		.space	163
 616      00000000 
 616      00000000 
 616      00000000 
 616      00000000 
 617              		.section	.bss.memp_memory_PBUF_POOL_base,"aw",%nobits
 618              		.align	2
 621              	memp_memory_PBUF_POOL_base:
 622 0000 00000000 		.space	9731
 622      00000000 
 622      00000000 
 622      00000000 
 622      00000000 
 623              		.section	.bss.memp_memory_PBUF_base,"aw",%nobits
 624              		.align	2
 627              	memp_memory_PBUF_base:
 628 0000 00000000 		.space	259
 628      00000000 
 628      00000000 
 628      00000000 
 628      00000000 
 629              		.section	.bss.memp_memory_REASSDATA_base,"aw",%nobits
 630              		.align	2
 633              	memp_memory_REASSDATA_base:
 634 0000 00000000 		.space	163
 634      00000000 
 634      00000000 
 634      00000000 
 634      00000000 
 635              		.section	.bss.memp_memory_SYS_TIMEOUT_base,"aw",%nobits
 636              		.align	2
 639              	memp_memory_SYS_TIMEOUT_base:
 640 0000 00000000 		.space	51
 640      00000000 
 640      00000000 
 640      00000000 
 640      00000000 
 641              		.section	.bss.memp_memory_TCPIP_MSG_API_base,"aw",%nobits
 642              		.align	2
 645              	memp_memory_TCPIP_MSG_API_base:
 646 0000 00000000 		.space	131
 646      00000000 
 646      00000000 
 646      00000000 
 646      00000000 
 647              		.section	.bss.memp_memory_TCPIP_MSG_INPKT_base,"aw",%nobits
ARM GAS  C:\Users\86188\AppData\Local\Temp\ccLSiKD8.s 			page 22


 648              		.align	2
 651              	memp_memory_TCPIP_MSG_INPKT_base:
 652 0000 00000000 		.space	131
 652      00000000 
 652      00000000 
 652      00000000 
 652      00000000 
 653              		.section	.bss.memp_memory_TCP_PCB_LISTEN_base,"aw",%nobits
 654              		.align	2
 657              	memp_memory_TCP_PCB_LISTEN_base:
 658 0000 00000000 		.space	227
 658      00000000 
 658      00000000 
 658      00000000 
 658      00000000 
 659              		.section	.bss.memp_memory_TCP_PCB_base,"aw",%nobits
 660              		.align	2
 663              	memp_memory_TCP_PCB_base:
 664 0000 00000000 		.space	783
 664      00000000 
 664      00000000 
 664      00000000 
 664      00000000 
 665              		.section	.bss.memp_memory_TCP_SEG_base,"aw",%nobits
 666              		.align	2
 669              	memp_memory_TCP_SEG_base:
 670 0000 00000000 		.space	259
 670      00000000 
 670      00000000 
 670      00000000 
 670      00000000 
 671              		.section	.bss.memp_memory_UDP_PCB_base,"aw",%nobits
 672              		.align	2
 675              	memp_memory_UDP_PCB_base:
 676 0000 00000000 		.space	131
 676      00000000 
 676      00000000 
 676      00000000 
 676      00000000 
 677              		.section	.bss.memp_tab_FRAG_PBUF,"aw",%nobits
 678              		.align	2
 681              	memp_tab_FRAG_PBUF:
 682 0000 00000000 		.space	4
 683              		.section	.bss.memp_tab_NETBUF,"aw",%nobits
 684              		.align	2
 687              	memp_tab_NETBUF:
 688 0000 00000000 		.space	4
 689              		.section	.bss.memp_tab_NETCONN,"aw",%nobits
 690              		.align	2
 693              	memp_tab_NETCONN:
 694 0000 00000000 		.space	4
 695              		.section	.bss.memp_tab_PBUF,"aw",%nobits
 696              		.align	2
 699              	memp_tab_PBUF:
 700 0000 00000000 		.space	4
 701              		.section	.bss.memp_tab_PBUF_POOL,"aw",%nobits
 702              		.align	2
ARM GAS  C:\Users\86188\AppData\Local\Temp\ccLSiKD8.s 			page 23


 705              	memp_tab_PBUF_POOL:
 706 0000 00000000 		.space	4
 707              		.section	.bss.memp_tab_REASSDATA,"aw",%nobits
 708              		.align	2
 711              	memp_tab_REASSDATA:
 712 0000 00000000 		.space	4
 713              		.section	.bss.memp_tab_SYS_TIMEOUT,"aw",%nobits
 714              		.align	2
 717              	memp_tab_SYS_TIMEOUT:
 718 0000 00000000 		.space	4
 719              		.section	.bss.memp_tab_TCPIP_MSG_API,"aw",%nobits
 720              		.align	2
 723              	memp_tab_TCPIP_MSG_API:
 724 0000 00000000 		.space	4
 725              		.section	.bss.memp_tab_TCPIP_MSG_INPKT,"aw",%nobits
 726              		.align	2
 729              	memp_tab_TCPIP_MSG_INPKT:
 730 0000 00000000 		.space	4
 731              		.section	.bss.memp_tab_TCP_PCB,"aw",%nobits
 732              		.align	2
 735              	memp_tab_TCP_PCB:
 736 0000 00000000 		.space	4
 737              		.section	.bss.memp_tab_TCP_PCB_LISTEN,"aw",%nobits
 738              		.align	2
 741              	memp_tab_TCP_PCB_LISTEN:
 742 0000 00000000 		.space	4
 743              		.section	.bss.memp_tab_TCP_SEG,"aw",%nobits
 744              		.align	2
 747              	memp_tab_TCP_SEG:
 748 0000 00000000 		.space	4
 749              		.section	.bss.memp_tab_UDP_PCB,"aw",%nobits
 750              		.align	2
 753              	memp_tab_UDP_PCB:
 754 0000 00000000 		.space	4
 755              		.section	.rodata.memp_FRAG_PBUF,"a"
 756              		.align	2
 759              	memp_FRAG_PBUF:
 760 0000 1800     		.short	24
 761 0002 0F00     		.short	15
 762 0004 00000000 		.word	memp_memory_FRAG_PBUF_base
 763 0008 00000000 		.word	memp_tab_FRAG_PBUF
 764              		.section	.rodata.memp_NETBUF,"a"
 765              		.align	2
 768              	memp_NETBUF:
 769 0000 1000     		.short	16
 770 0002 0200     		.short	2
 771 0004 00000000 		.word	memp_memory_NETBUF_base
 772 0008 00000000 		.word	memp_tab_NETBUF
 773              		.section	.rodata.memp_NETCONN,"a"
 774              		.align	2
 777              	memp_NETCONN:
 778 0000 2800     		.short	40
 779 0002 0400     		.short	4
 780 0004 00000000 		.word	memp_memory_NETCONN_base
 781 0008 00000000 		.word	memp_tab_NETCONN
 782              		.section	.rodata.memp_PBUF,"a"
 783              		.align	2
ARM GAS  C:\Users\86188\AppData\Local\Temp\ccLSiKD8.s 			page 24


 786              	memp_PBUF:
 787 0000 1000     		.short	16
 788 0002 1000     		.short	16
 789 0004 00000000 		.word	memp_memory_PBUF_base
 790 0008 00000000 		.word	memp_tab_PBUF
 791              		.section	.rodata.memp_PBUF_POOL,"a"
 792              		.align	2
 795              	memp_PBUF_POOL:
 796 0000 6002     		.short	608
 797 0002 1000     		.short	16
 798 0004 00000000 		.word	memp_memory_PBUF_POOL_base
 799 0008 00000000 		.word	memp_tab_PBUF_POOL
 800              		.section	.rodata.memp_REASSDATA,"a"
 801              		.align	2
 804              	memp_REASSDATA:
 805 0000 2000     		.short	32
 806 0002 0500     		.short	5
 807 0004 00000000 		.word	memp_memory_REASSDATA_base
 808 0008 00000000 		.word	memp_tab_REASSDATA
 809              		.section	.rodata.memp_SYS_TIMEOUT,"a"
 810              		.align	2
 813              	memp_SYS_TIMEOUT:
 814 0000 1000     		.short	16
 815 0002 0300     		.short	3
 816 0004 00000000 		.word	memp_memory_SYS_TIMEOUT_base
 817 0008 00000000 		.word	memp_tab_SYS_TIMEOUT
 818              		.section	.rodata.memp_TCPIP_MSG_API,"a"
 819              		.align	2
 822              	memp_TCPIP_MSG_API:
 823 0000 1000     		.short	16
 824 0002 0800     		.short	8
 825 0004 00000000 		.word	memp_memory_TCPIP_MSG_API_base
 826 0008 00000000 		.word	memp_tab_TCPIP_MSG_API
 827              		.section	.rodata.memp_TCPIP_MSG_INPKT,"a"
 828              		.align	2
 831              	memp_TCPIP_MSG_INPKT:
 832 0000 1000     		.short	16
 833 0002 0800     		.short	8
 834 0004 00000000 		.word	memp_memory_TCPIP_MSG_INPKT_base
 835 0008 00000000 		.word	memp_tab_TCPIP_MSG_INPKT
 836              		.section	.rodata.memp_TCP_PCB,"a"
 837              		.align	2
 840              	memp_TCP_PCB:
 841 0000 9C00     		.short	156
 842 0002 0500     		.short	5
 843 0004 00000000 		.word	memp_memory_TCP_PCB_base
 844 0008 00000000 		.word	memp_tab_TCP_PCB
 845              		.section	.rodata.memp_TCP_PCB_LISTEN,"a"
 846              		.align	2
 849              	memp_TCP_PCB_LISTEN:
 850 0000 1C00     		.short	28
 851 0002 0800     		.short	8
 852 0004 00000000 		.word	memp_memory_TCP_PCB_LISTEN_base
 853 0008 00000000 		.word	memp_tab_TCP_PCB_LISTEN
 854              		.section	.rodata.memp_TCP_SEG,"a"
 855              		.align	2
 858              	memp_TCP_SEG:
ARM GAS  C:\Users\86188\AppData\Local\Temp\ccLSiKD8.s 			page 25


 859 0000 1000     		.short	16
 860 0002 1000     		.short	16
 861 0004 00000000 		.word	memp_memory_TCP_SEG_base
 862 0008 00000000 		.word	memp_tab_TCP_SEG
 863              		.section	.rodata.memp_UDP_PCB,"a"
 864              		.align	2
 867              	memp_UDP_PCB:
 868 0000 2000     		.short	32
 869 0002 0400     		.short	4
 870 0004 00000000 		.word	memp_memory_UDP_PCB_base
 871 0008 00000000 		.word	memp_tab_UDP_PCB
 872              		.section	.rodata.memp_pools,"a"
 873              		.align	2
 874              		.set	.LANCHOR0,. + 0
 877              	memp_pools:
 878 0000 00000000 		.word	memp_UDP_PCB
 879 0004 00000000 		.word	memp_TCP_PCB
 880 0008 00000000 		.word	memp_TCP_PCB_LISTEN
 881 000c 00000000 		.word	memp_TCP_SEG
 882 0010 00000000 		.word	memp_REASSDATA
 883 0014 00000000 		.word	memp_FRAG_PBUF
 884 0018 00000000 		.word	memp_NETBUF
 885 001c 00000000 		.word	memp_NETCONN
 886 0020 00000000 		.word	memp_TCPIP_MSG_API
 887 0024 00000000 		.word	memp_TCPIP_MSG_INPKT
 888 0028 00000000 		.word	memp_SYS_TIMEOUT
 889 002c 00000000 		.word	memp_PBUF
 890 0030 00000000 		.word	memp_PBUF_POOL
 891              		.text
 892              	.Letext0:
 893              		.file 2 "k:\\program files (x86)\\gnu arm embedded toolchain\\10 2021.10\\arm-none-eabi\\include\\
 894              		.file 3 "k:\\program files (x86)\\gnu arm embedded toolchain\\10 2021.10\\arm-none-eabi\\include\\
 895              		.file 4 "ThirdPackage/lwip220/include/arch/cc.h"
 896              		.file 5 "ThirdPackage/lwip220/include/lwip/arch.h"
 897              		.file 6 "ThirdPackage/lwip220/include/lwip/memp.h"
 898              		.file 7 "ThirdPackage/lwip220/include/lwip/priv/memp_priv.h"
 899              		.file 8 "ThirdPackage/lwip220/include/lwip/priv/memp_std.h"
 900              		.file 9 "k:\\program files (x86)\\gnu arm embedded toolchain\\10 2021.10\\arm-none-eabi\\include\\
 901              		.file 10 "ThirdPackage/lwip220/include/lwip/sys.h"
ARM GAS  C:\Users\86188\AppData\Local\Temp\ccLSiKD8.s 			page 26

