ARM GAS  C:\Users\86188\AppData\Local\Temp\ccBQr5KG.s 			page 1


   1              		.cpu cortex-m4
   2              		.arch armv7e-m
   3              		.fpu fpv4-sp-d16
   4              		.eabi_attribute 27, 1
   5              		.eabi_attribute 28, 1
   6              		.eabi_attribute 20, 1
   7              		.eabi_attribute 21, 1
   8              		.eabi_attribute 23, 3
   9              		.eabi_attribute 24, 1
  10              		.eabi_attribute 25, 1
  11              		.eabi_attribute 26, 1
  12              		.eabi_attribute 30, 1
  13              		.eabi_attribute 34, 1
  14              		.eabi_attribute 18, 4
  15              		.file	"slipif.c"
  16              		.text
  17              	.Ltext0:
  18              		.cfi_sections	.debug_frame
  19              		.section	.rodata.slipif_rxbyte.str1.4,"aMS",%progbits,1
  20              		.align	2
  21              	.LC0:
  22 0000 54686972 		.ascii	"ThirdPackage/lwip220/netif/slipif.c\000"
  22      64506163 
  22      6B616765 
  22      2F6C7769 
  22      70323230 
  23              		.align	2
  24              	.LC1:
  25 0024 6E657469 		.ascii	"netif != NULL\000"
  25      6620213D 
  25      204E554C 
  25      4C00
  26 0032 0000     		.align	2
  27              	.LC2:
  28 0034 41737365 		.ascii	"Assertion \"%s\" failed at line %d in %s\012\000"
  28      7274696F 
  28      6E202225 
  28      73222066 
  28      61696C65 
  29              		.align	2
  30              	.LC3:
  31 005c 6E657469 		.ascii	"netif->state != NULL\000"
  31      662D3E73 
  31      74617465 
  31      20213D20 
  31      4E554C4C 
  32              		.section	.text.slipif_rxbyte,"ax",%progbits
  33              		.align	1
  34              		.syntax unified
  35              		.thumb
  36              		.thumb_func
  38              	slipif_rxbyte:
  39              	.LVL0:
  40              	.LFB162:
  41              		.file 1 "ThirdPackage/lwip220/netif/slipif.c"
   1:ThirdPackage/lwip220/netif/slipif.c **** /**
   2:ThirdPackage/lwip220/netif/slipif.c ****  * @file
ARM GAS  C:\Users\86188\AppData\Local\Temp\ccBQr5KG.s 			page 2


   3:ThirdPackage/lwip220/netif/slipif.c ****  * SLIP Interface
   4:ThirdPackage/lwip220/netif/slipif.c ****  *
   5:ThirdPackage/lwip220/netif/slipif.c ****  */
   6:ThirdPackage/lwip220/netif/slipif.c **** 
   7:ThirdPackage/lwip220/netif/slipif.c **** /*
   8:ThirdPackage/lwip220/netif/slipif.c ****  * Copyright (c) 2001-2004 Swedish Institute of Computer Science.
   9:ThirdPackage/lwip220/netif/slipif.c ****  * All rights reserved.
  10:ThirdPackage/lwip220/netif/slipif.c ****  *
  11:ThirdPackage/lwip220/netif/slipif.c ****  * Redistribution and use in source and binary forms, with or without
  12:ThirdPackage/lwip220/netif/slipif.c ****  * modification, are permitted provided that the following conditions
  13:ThirdPackage/lwip220/netif/slipif.c ****  * are met:
  14:ThirdPackage/lwip220/netif/slipif.c ****  * 1. Redistributions of source code must retain the above copyright
  15:ThirdPackage/lwip220/netif/slipif.c ****  *    notice, this list of conditions and the following disclaimer.
  16:ThirdPackage/lwip220/netif/slipif.c ****  * 2. Redistributions in binary form must reproduce the above copyright
  17:ThirdPackage/lwip220/netif/slipif.c ****  *    notice, this list of conditions and the following disclaimer in the
  18:ThirdPackage/lwip220/netif/slipif.c ****  *    documentation and/or other materials provided with the distribution.
  19:ThirdPackage/lwip220/netif/slipif.c ****  * 3. Neither the name of the Institute nor the names of its contributors
  20:ThirdPackage/lwip220/netif/slipif.c ****  *    may be used to endorse or promote products derived from this software
  21:ThirdPackage/lwip220/netif/slipif.c ****  *    without specific prior written permission.
  22:ThirdPackage/lwip220/netif/slipif.c ****  *
  23:ThirdPackage/lwip220/netif/slipif.c ****  * THIS SOFTWARE IS PROVIDED BY THE INSTITUTE AND CONTRIBUTORS ``AS IS'' AND
  24:ThirdPackage/lwip220/netif/slipif.c ****  * ANY EXPRESS OR IMPLIED WARRANTIES, INCLUDING, BUT NOT LIMITED TO, THE
  25:ThirdPackage/lwip220/netif/slipif.c ****  * IMPLIED WARRANTIES OF MERCHANTABILITY AND FITNESS FOR A PARTICULAR PURPOSE
  26:ThirdPackage/lwip220/netif/slipif.c ****  * ARE DISCLAIMED.  IN NO EVENT SHALL THE INSTITUTE OR CONTRIBUTORS BE LIABLE
  27:ThirdPackage/lwip220/netif/slipif.c ****  * FOR ANY DIRECT, INDIRECT, INCIDENTAL, SPECIAL, EXEMPLARY, OR CONSEQUENTIAL
  28:ThirdPackage/lwip220/netif/slipif.c ****  * DAMAGES (INCLUDING, BUT NOT LIMITED TO, PROCUREMENT OF SUBSTITUTE GOODS
  29:ThirdPackage/lwip220/netif/slipif.c ****  * OR SERVICES; LOSS OF USE, DATA, OR PROFITS; OR BUSINESS INTERRUPTION)
  30:ThirdPackage/lwip220/netif/slipif.c ****  * HOWEVER CAUSED AND ON ANY THEORY OF LIABILITY, WHETHER IN CONTRACT, STRICT
  31:ThirdPackage/lwip220/netif/slipif.c ****  * LIABILITY, OR TORT (INCLUDING NEGLIGENCE OR OTHERWISE) ARISING IN ANY WAY
  32:ThirdPackage/lwip220/netif/slipif.c ****  * OUT OF THE USE OF THIS SOFTWARE, EVEN IF ADVISED OF THE POSSIBILITY OF
  33:ThirdPackage/lwip220/netif/slipif.c ****  * SUCH DAMAGE.
  34:ThirdPackage/lwip220/netif/slipif.c ****  *
  35:ThirdPackage/lwip220/netif/slipif.c ****  * This file is built upon the file: src/arch/rtxc/netif/sioslip.c
  36:ThirdPackage/lwip220/netif/slipif.c ****  *
  37:ThirdPackage/lwip220/netif/slipif.c ****  * Author: Magnus Ivarsson <magnus.ivarsson(at)volvo.com>
  38:ThirdPackage/lwip220/netif/slipif.c ****  *         Simon Goldschmidt
  39:ThirdPackage/lwip220/netif/slipif.c ****  */
  40:ThirdPackage/lwip220/netif/slipif.c **** 
  41:ThirdPackage/lwip220/netif/slipif.c **** 
  42:ThirdPackage/lwip220/netif/slipif.c **** /**
  43:ThirdPackage/lwip220/netif/slipif.c ****  * @defgroup slipif SLIP
  44:ThirdPackage/lwip220/netif/slipif.c ****  * @ingroup netifs
  45:ThirdPackage/lwip220/netif/slipif.c ****  *
  46:ThirdPackage/lwip220/netif/slipif.c ****  * This is an arch independent SLIP netif. The specific serial hooks must be
  47:ThirdPackage/lwip220/netif/slipif.c ****  * provided by another file. They are sio_open, sio_read/sio_tryread and sio_send
  48:ThirdPackage/lwip220/netif/slipif.c ****  *
  49:ThirdPackage/lwip220/netif/slipif.c ****  * Usage: This netif can be used in three ways:
  50:ThirdPackage/lwip220/netif/slipif.c ****  *        1. For NO_SYS==0, an RX thread can be used which blocks on sio_read()
  51:ThirdPackage/lwip220/netif/slipif.c ****  *           until data is received.
  52:ThirdPackage/lwip220/netif/slipif.c ****  *        2. In your main loop, call slipif_poll() to check for new RX bytes,
  53:ThirdPackage/lwip220/netif/slipif.c ****  *           completed packets are fed into netif->input().
  54:ThirdPackage/lwip220/netif/slipif.c ****  *        3. Call slipif_received_byte[s]() from your serial RX ISR and
  55:ThirdPackage/lwip220/netif/slipif.c ****  *           slipif_process_rxqueue() from your main loop. ISR level decodes
  56:ThirdPackage/lwip220/netif/slipif.c ****  *           packets and puts completed packets on a queue which is fed into
  57:ThirdPackage/lwip220/netif/slipif.c ****  *           the stack from the main loop (needs SYS_LIGHTWEIGHT_PROT for
  58:ThirdPackage/lwip220/netif/slipif.c ****  *           pbuf_alloc to work on ISR level!).
  59:ThirdPackage/lwip220/netif/slipif.c ****  *
ARM GAS  C:\Users\86188\AppData\Local\Temp\ccBQr5KG.s 			page 3


  60:ThirdPackage/lwip220/netif/slipif.c ****  */
  61:ThirdPackage/lwip220/netif/slipif.c **** 
  62:ThirdPackage/lwip220/netif/slipif.c **** #include "netif/slipif.h"
  63:ThirdPackage/lwip220/netif/slipif.c **** #include "lwip/opt.h"
  64:ThirdPackage/lwip220/netif/slipif.c **** 
  65:ThirdPackage/lwip220/netif/slipif.c **** #include "lwip/def.h"
  66:ThirdPackage/lwip220/netif/slipif.c **** #include "lwip/pbuf.h"
  67:ThirdPackage/lwip220/netif/slipif.c **** #include "lwip/stats.h"
  68:ThirdPackage/lwip220/netif/slipif.c **** #include "lwip/snmp.h"
  69:ThirdPackage/lwip220/netif/slipif.c **** #include "lwip/sys.h"
  70:ThirdPackage/lwip220/netif/slipif.c **** #include "lwip/sio.h"
  71:ThirdPackage/lwip220/netif/slipif.c **** 
  72:ThirdPackage/lwip220/netif/slipif.c **** #define SLIP_END     0xC0 /* 0300: start and end of every packet */
  73:ThirdPackage/lwip220/netif/slipif.c **** #define SLIP_ESC     0xDB /* 0333: escape start (one byte escaped data follows) */
  74:ThirdPackage/lwip220/netif/slipif.c **** #define SLIP_ESC_END 0xDC /* 0334: following escape: original byte is 0xC0 (END) */
  75:ThirdPackage/lwip220/netif/slipif.c **** #define SLIP_ESC_ESC 0xDD /* 0335: following escape: original byte is 0xDB (ESC) */
  76:ThirdPackage/lwip220/netif/slipif.c **** 
  77:ThirdPackage/lwip220/netif/slipif.c **** /** Maximum packet size that is received by this netif */
  78:ThirdPackage/lwip220/netif/slipif.c **** #ifndef SLIP_MAX_SIZE
  79:ThirdPackage/lwip220/netif/slipif.c **** #define SLIP_MAX_SIZE 1500
  80:ThirdPackage/lwip220/netif/slipif.c **** #endif
  81:ThirdPackage/lwip220/netif/slipif.c **** 
  82:ThirdPackage/lwip220/netif/slipif.c **** /** Define this to the interface speed for SNMP
  83:ThirdPackage/lwip220/netif/slipif.c ****  * (sio_fd is the sio_fd_t returned by sio_open).
  84:ThirdPackage/lwip220/netif/slipif.c ****  * The default value of zero means 'unknown'.
  85:ThirdPackage/lwip220/netif/slipif.c ****  */
  86:ThirdPackage/lwip220/netif/slipif.c **** #ifndef SLIP_SIO_SPEED
  87:ThirdPackage/lwip220/netif/slipif.c **** #define SLIP_SIO_SPEED(sio_fd) 0
  88:ThirdPackage/lwip220/netif/slipif.c **** #endif
  89:ThirdPackage/lwip220/netif/slipif.c **** 
  90:ThirdPackage/lwip220/netif/slipif.c **** enum slipif_recv_state {
  91:ThirdPackage/lwip220/netif/slipif.c ****   SLIP_RECV_NORMAL,
  92:ThirdPackage/lwip220/netif/slipif.c ****   SLIP_RECV_ESCAPE
  93:ThirdPackage/lwip220/netif/slipif.c **** };
  94:ThirdPackage/lwip220/netif/slipif.c **** 
  95:ThirdPackage/lwip220/netif/slipif.c **** struct slipif_priv {
  96:ThirdPackage/lwip220/netif/slipif.c ****   sio_fd_t sd;
  97:ThirdPackage/lwip220/netif/slipif.c ****   /* q is the whole pbuf chain for a packet, p is the current pbuf in the chain */
  98:ThirdPackage/lwip220/netif/slipif.c ****   struct pbuf *p, *q;
  99:ThirdPackage/lwip220/netif/slipif.c ****   u8_t state;
 100:ThirdPackage/lwip220/netif/slipif.c ****   u16_t i, recved;
 101:ThirdPackage/lwip220/netif/slipif.c **** #if SLIP_RX_FROM_ISR
 102:ThirdPackage/lwip220/netif/slipif.c ****   struct pbuf *rxpackets;
 103:ThirdPackage/lwip220/netif/slipif.c **** #endif
 104:ThirdPackage/lwip220/netif/slipif.c **** };
 105:ThirdPackage/lwip220/netif/slipif.c **** 
 106:ThirdPackage/lwip220/netif/slipif.c **** /**
 107:ThirdPackage/lwip220/netif/slipif.c ****  * Send a pbuf doing the necessary SLIP encapsulation
 108:ThirdPackage/lwip220/netif/slipif.c ****  *
 109:ThirdPackage/lwip220/netif/slipif.c ****  * Uses the serial layer's sio_send()
 110:ThirdPackage/lwip220/netif/slipif.c ****  *
 111:ThirdPackage/lwip220/netif/slipif.c ****  * @param netif the lwip network interface structure for this slipif
 112:ThirdPackage/lwip220/netif/slipif.c ****  * @param p the pbuf chain packet to send
 113:ThirdPackage/lwip220/netif/slipif.c ****  * @return always returns ERR_OK since the serial layer does not provide return values
 114:ThirdPackage/lwip220/netif/slipif.c ****  */
 115:ThirdPackage/lwip220/netif/slipif.c **** static err_t
 116:ThirdPackage/lwip220/netif/slipif.c **** slipif_output(struct netif *netif, struct pbuf *p)
ARM GAS  C:\Users\86188\AppData\Local\Temp\ccBQr5KG.s 			page 4


 117:ThirdPackage/lwip220/netif/slipif.c **** {
 118:ThirdPackage/lwip220/netif/slipif.c ****   struct slipif_priv *priv;
 119:ThirdPackage/lwip220/netif/slipif.c ****   struct pbuf *q;
 120:ThirdPackage/lwip220/netif/slipif.c ****   u16_t i;
 121:ThirdPackage/lwip220/netif/slipif.c ****   u8_t c;
 122:ThirdPackage/lwip220/netif/slipif.c **** 
 123:ThirdPackage/lwip220/netif/slipif.c ****   LWIP_ASSERT("netif != NULL", (netif != NULL));
 124:ThirdPackage/lwip220/netif/slipif.c ****   LWIP_ASSERT("netif->state != NULL", (netif->state != NULL));
 125:ThirdPackage/lwip220/netif/slipif.c ****   LWIP_ASSERT("p != NULL", (p != NULL));
 126:ThirdPackage/lwip220/netif/slipif.c **** 
 127:ThirdPackage/lwip220/netif/slipif.c ****   LWIP_DEBUGF(SLIP_DEBUG, ("slipif_output: sending %"U16_F" bytes\n", p->tot_len));
 128:ThirdPackage/lwip220/netif/slipif.c ****   priv = (struct slipif_priv *)netif->state;
 129:ThirdPackage/lwip220/netif/slipif.c **** 
 130:ThirdPackage/lwip220/netif/slipif.c ****   /* Send pbuf out on the serial I/O device. */
 131:ThirdPackage/lwip220/netif/slipif.c ****   /* Start with packet delimiter. */
 132:ThirdPackage/lwip220/netif/slipif.c ****   sio_send(SLIP_END, priv->sd);
 133:ThirdPackage/lwip220/netif/slipif.c **** 
 134:ThirdPackage/lwip220/netif/slipif.c ****   for (q = p; q != NULL; q = q->next) {
 135:ThirdPackage/lwip220/netif/slipif.c ****     for (i = 0; i < q->len; i++) {
 136:ThirdPackage/lwip220/netif/slipif.c ****       c = ((u8_t *)q->payload)[i];
 137:ThirdPackage/lwip220/netif/slipif.c ****       switch (c) {
 138:ThirdPackage/lwip220/netif/slipif.c ****         case SLIP_END:
 139:ThirdPackage/lwip220/netif/slipif.c ****           /* need to escape this byte (0xC0 -> 0xDB, 0xDC) */
 140:ThirdPackage/lwip220/netif/slipif.c ****           sio_send(SLIP_ESC, priv->sd);
 141:ThirdPackage/lwip220/netif/slipif.c ****           sio_send(SLIP_ESC_END, priv->sd);
 142:ThirdPackage/lwip220/netif/slipif.c ****           break;
 143:ThirdPackage/lwip220/netif/slipif.c ****         case SLIP_ESC:
 144:ThirdPackage/lwip220/netif/slipif.c ****           /* need to escape this byte (0xDB -> 0xDB, 0xDD) */
 145:ThirdPackage/lwip220/netif/slipif.c ****           sio_send(SLIP_ESC, priv->sd);
 146:ThirdPackage/lwip220/netif/slipif.c ****           sio_send(SLIP_ESC_ESC, priv->sd);
 147:ThirdPackage/lwip220/netif/slipif.c ****           break;
 148:ThirdPackage/lwip220/netif/slipif.c ****         default:
 149:ThirdPackage/lwip220/netif/slipif.c ****           /* normal byte - no need for escaping */
 150:ThirdPackage/lwip220/netif/slipif.c ****           sio_send(c, priv->sd);
 151:ThirdPackage/lwip220/netif/slipif.c ****           break;
 152:ThirdPackage/lwip220/netif/slipif.c ****       }
 153:ThirdPackage/lwip220/netif/slipif.c ****     }
 154:ThirdPackage/lwip220/netif/slipif.c ****   }
 155:ThirdPackage/lwip220/netif/slipif.c ****   /* End with packet delimiter. */
 156:ThirdPackage/lwip220/netif/slipif.c ****   sio_send(SLIP_END, priv->sd);
 157:ThirdPackage/lwip220/netif/slipif.c ****   return ERR_OK;
 158:ThirdPackage/lwip220/netif/slipif.c **** }
 159:ThirdPackage/lwip220/netif/slipif.c **** 
 160:ThirdPackage/lwip220/netif/slipif.c **** #if LWIP_IPV4
 161:ThirdPackage/lwip220/netif/slipif.c **** /**
 162:ThirdPackage/lwip220/netif/slipif.c ****  * Send a pbuf doing the necessary SLIP encapsulation
 163:ThirdPackage/lwip220/netif/slipif.c ****  *
 164:ThirdPackage/lwip220/netif/slipif.c ****  * Uses the serial layer's sio_send()
 165:ThirdPackage/lwip220/netif/slipif.c ****  *
 166:ThirdPackage/lwip220/netif/slipif.c ****  * @param netif the lwip network interface structure for this slipif
 167:ThirdPackage/lwip220/netif/slipif.c ****  * @param p the pbuf chain packet to send
 168:ThirdPackage/lwip220/netif/slipif.c ****  * @param ipaddr the ip address to send the packet to (not used for slipif)
 169:ThirdPackage/lwip220/netif/slipif.c ****  * @return always returns ERR_OK since the serial layer does not provide return values
 170:ThirdPackage/lwip220/netif/slipif.c ****  */
 171:ThirdPackage/lwip220/netif/slipif.c **** static err_t
 172:ThirdPackage/lwip220/netif/slipif.c **** slipif_output_v4(struct netif *netif, struct pbuf *p, const ip4_addr_t *ipaddr)
 173:ThirdPackage/lwip220/netif/slipif.c **** {
ARM GAS  C:\Users\86188\AppData\Local\Temp\ccBQr5KG.s 			page 5


 174:ThirdPackage/lwip220/netif/slipif.c ****   LWIP_UNUSED_ARG(ipaddr);
 175:ThirdPackage/lwip220/netif/slipif.c ****   return slipif_output(netif, p);
 176:ThirdPackage/lwip220/netif/slipif.c **** }
 177:ThirdPackage/lwip220/netif/slipif.c **** #endif /* LWIP_IPV4 */
 178:ThirdPackage/lwip220/netif/slipif.c **** 
 179:ThirdPackage/lwip220/netif/slipif.c **** #if LWIP_IPV6
 180:ThirdPackage/lwip220/netif/slipif.c **** /**
 181:ThirdPackage/lwip220/netif/slipif.c ****  * Send a pbuf doing the necessary SLIP encapsulation
 182:ThirdPackage/lwip220/netif/slipif.c ****  *
 183:ThirdPackage/lwip220/netif/slipif.c ****  * Uses the serial layer's sio_send()
 184:ThirdPackage/lwip220/netif/slipif.c ****  *
 185:ThirdPackage/lwip220/netif/slipif.c ****  * @param netif the lwip network interface structure for this slipif
 186:ThirdPackage/lwip220/netif/slipif.c ****  * @param p the pbuf chain packet to send
 187:ThirdPackage/lwip220/netif/slipif.c ****  * @param ipaddr the ip address to send the packet to (not used for slipif)
 188:ThirdPackage/lwip220/netif/slipif.c ****  * @return always returns ERR_OK since the serial layer does not provide return values
 189:ThirdPackage/lwip220/netif/slipif.c ****  */
 190:ThirdPackage/lwip220/netif/slipif.c **** static err_t
 191:ThirdPackage/lwip220/netif/slipif.c **** slipif_output_v6(struct netif *netif, struct pbuf *p, const ip6_addr_t *ipaddr)
 192:ThirdPackage/lwip220/netif/slipif.c **** {
 193:ThirdPackage/lwip220/netif/slipif.c ****   LWIP_UNUSED_ARG(ipaddr);
 194:ThirdPackage/lwip220/netif/slipif.c ****   return slipif_output(netif, p);
 195:ThirdPackage/lwip220/netif/slipif.c **** }
 196:ThirdPackage/lwip220/netif/slipif.c **** #endif /* LWIP_IPV6 */
 197:ThirdPackage/lwip220/netif/slipif.c **** 
 198:ThirdPackage/lwip220/netif/slipif.c **** /**
 199:ThirdPackage/lwip220/netif/slipif.c ****  * Handle the incoming SLIP stream character by character
 200:ThirdPackage/lwip220/netif/slipif.c ****  *
 201:ThirdPackage/lwip220/netif/slipif.c ****  * @param netif the lwip network interface structure for this slipif
 202:ThirdPackage/lwip220/netif/slipif.c ****  * @param c received character (multiple calls to this function will
 203:ThirdPackage/lwip220/netif/slipif.c ****  *        return a complete packet, NULL is returned before - used for polling)
 204:ThirdPackage/lwip220/netif/slipif.c ****  * @return The IP packet when SLIP_END is received
 205:ThirdPackage/lwip220/netif/slipif.c ****  */
 206:ThirdPackage/lwip220/netif/slipif.c **** static struct pbuf *
 207:ThirdPackage/lwip220/netif/slipif.c **** slipif_rxbyte(struct netif *netif, u8_t c)
 208:ThirdPackage/lwip220/netif/slipif.c **** {
  42              		.loc 1 208 1 view -0
  43              		.cfi_startproc
  44              		@ args = 0, pretend = 0, frame = 0
  45              		@ frame_needed = 0, uses_anonymous_args = 0
  46              		.loc 1 208 1 is_stmt 0 view .LVU1
  47 0000 38B5     		push	{r3, r4, r5, lr}
  48              	.LCFI0:
  49              		.cfi_def_cfa_offset 16
  50              		.cfi_offset 3, -16
  51              		.cfi_offset 4, -12
  52              		.cfi_offset 5, -8
  53              		.cfi_offset 14, -4
  54 0002 0D46     		mov	r5, r1
 209:ThirdPackage/lwip220/netif/slipif.c ****   struct slipif_priv *priv;
  55              		.loc 1 209 3 is_stmt 1 view .LVU2
 210:ThirdPackage/lwip220/netif/slipif.c ****   struct pbuf *t;
  56              		.loc 1 210 3 view .LVU3
 211:ThirdPackage/lwip220/netif/slipif.c **** 
 212:ThirdPackage/lwip220/netif/slipif.c ****   LWIP_ASSERT("netif != NULL", (netif != NULL));
  57              		.loc 1 212 3 view .LVU4
  58              		.loc 1 212 3 view .LVU5
  59 0004 0446     		mov	r4, r0
ARM GAS  C:\Users\86188\AppData\Local\Temp\ccBQr5KG.s 			page 6


  60 0006 0028     		cmp	r0, #0
  61 0008 2CD0     		beq	.L19
  62              	.LVL1:
  63              	.L2:
  64              		.loc 1 212 3 discriminator 3 view .LVU6
  65              		.loc 1 212 3 discriminator 3 view .LVU7
 213:ThirdPackage/lwip220/netif/slipif.c ****   LWIP_ASSERT("netif->state != NULL", (netif->state != NULL));
  66              		.loc 1 213 3 discriminator 3 view .LVU8
  67              		.loc 1 213 3 discriminator 3 view .LVU9
  68 000a 236A     		ldr	r3, [r4, #32]
  69 000c 002B     		cmp	r3, #0
  70 000e 30D0     		beq	.L20
  71              	.L3:
  72              		.loc 1 213 3 discriminator 3 view .LVU10
  73              		.loc 1 213 3 discriminator 3 view .LVU11
 214:ThirdPackage/lwip220/netif/slipif.c **** 
 215:ThirdPackage/lwip220/netif/slipif.c ****   priv = (struct slipif_priv *)netif->state;
  74              		.loc 1 215 3 discriminator 3 view .LVU12
  75              		.loc 1 215 8 is_stmt 0 discriminator 3 view .LVU13
  76 0010 246A     		ldr	r4, [r4, #32]
  77              	.LVL2:
 216:ThirdPackage/lwip220/netif/slipif.c **** 
 217:ThirdPackage/lwip220/netif/slipif.c ****   switch (priv->state) {
  78              		.loc 1 217 3 is_stmt 1 discriminator 3 view .LVU14
  79              		.loc 1 217 15 is_stmt 0 discriminator 3 view .LVU15
  80 0012 237B     		ldrb	r3, [r4, #12]	@ zero_extendqisi2
  81              		.loc 1 217 3 discriminator 3 view .LVU16
  82 0014 002B     		cmp	r3, #0
  83 0016 33D0     		beq	.L4
  84              		.loc 1 217 3 view .LVU17
  85 0018 012B     		cmp	r3, #1
  86 001a 47D0     		beq	.L5
  87              	.LVL3:
  88              	.L6:
 218:ThirdPackage/lwip220/netif/slipif.c ****     case SLIP_RECV_NORMAL:
 219:ThirdPackage/lwip220/netif/slipif.c ****       switch (c) {
 220:ThirdPackage/lwip220/netif/slipif.c ****         case SLIP_END:
 221:ThirdPackage/lwip220/netif/slipif.c ****           if (priv->recved > 0) {
 222:ThirdPackage/lwip220/netif/slipif.c ****             /* Received whole packet. */
 223:ThirdPackage/lwip220/netif/slipif.c ****             /* Trim the pbuf to the size of the received packet. */
 224:ThirdPackage/lwip220/netif/slipif.c ****             pbuf_realloc(priv->q, priv->recved);
 225:ThirdPackage/lwip220/netif/slipif.c **** 
 226:ThirdPackage/lwip220/netif/slipif.c ****             LINK_STATS_INC(link.recv);
 227:ThirdPackage/lwip220/netif/slipif.c **** 
 228:ThirdPackage/lwip220/netif/slipif.c ****             LWIP_DEBUGF(SLIP_DEBUG, ("slipif: Got packet (%"U16_F" bytes)\n", priv->recved));
 229:ThirdPackage/lwip220/netif/slipif.c ****             t = priv->q;
 230:ThirdPackage/lwip220/netif/slipif.c ****             priv->p = priv->q = NULL;
 231:ThirdPackage/lwip220/netif/slipif.c ****             priv->i = priv->recved = 0;
 232:ThirdPackage/lwip220/netif/slipif.c ****             return t;
 233:ThirdPackage/lwip220/netif/slipif.c ****           }
 234:ThirdPackage/lwip220/netif/slipif.c ****           return NULL;
 235:ThirdPackage/lwip220/netif/slipif.c ****         case SLIP_ESC:
 236:ThirdPackage/lwip220/netif/slipif.c ****           priv->state = SLIP_RECV_ESCAPE;
 237:ThirdPackage/lwip220/netif/slipif.c ****           return NULL;
 238:ThirdPackage/lwip220/netif/slipif.c ****         default:
 239:ThirdPackage/lwip220/netif/slipif.c ****           break;
 240:ThirdPackage/lwip220/netif/slipif.c ****       } /* end switch (c) */
ARM GAS  C:\Users\86188\AppData\Local\Temp\ccBQr5KG.s 			page 7


 241:ThirdPackage/lwip220/netif/slipif.c ****       break;
 242:ThirdPackage/lwip220/netif/slipif.c ****     case SLIP_RECV_ESCAPE:
 243:ThirdPackage/lwip220/netif/slipif.c ****       /* un-escape END or ESC bytes, leave other bytes
 244:ThirdPackage/lwip220/netif/slipif.c ****          (although that would be a protocol error) */
 245:ThirdPackage/lwip220/netif/slipif.c ****       switch (c) {
 246:ThirdPackage/lwip220/netif/slipif.c ****         case SLIP_ESC_END:
 247:ThirdPackage/lwip220/netif/slipif.c ****           c = SLIP_END;
 248:ThirdPackage/lwip220/netif/slipif.c ****           break;
 249:ThirdPackage/lwip220/netif/slipif.c ****         case SLIP_ESC_ESC:
 250:ThirdPackage/lwip220/netif/slipif.c ****           c = SLIP_ESC;
 251:ThirdPackage/lwip220/netif/slipif.c ****           break;
 252:ThirdPackage/lwip220/netif/slipif.c ****         default:
 253:ThirdPackage/lwip220/netif/slipif.c ****           break;
 254:ThirdPackage/lwip220/netif/slipif.c ****       }
 255:ThirdPackage/lwip220/netif/slipif.c ****       priv->state = SLIP_RECV_NORMAL;
 256:ThirdPackage/lwip220/netif/slipif.c ****       break;
 257:ThirdPackage/lwip220/netif/slipif.c ****     default:
 258:ThirdPackage/lwip220/netif/slipif.c ****       break;
 259:ThirdPackage/lwip220/netif/slipif.c ****   } /* end switch (priv->state) */
 260:ThirdPackage/lwip220/netif/slipif.c **** 
 261:ThirdPackage/lwip220/netif/slipif.c ****   /* byte received, packet not yet completely received */
 262:ThirdPackage/lwip220/netif/slipif.c ****   if (priv->p == NULL) {
  89              		.loc 1 262 3 is_stmt 1 view .LVU18
  90              		.loc 1 262 11 is_stmt 0 view .LVU19
  91 001c 6368     		ldr	r3, [r4, #4]
  92              		.loc 1 262 6 view .LVU20
  93 001e 002B     		cmp	r3, #0
  94 0020 4ED0     		beq	.L21
  95              	.L11:
 263:ThirdPackage/lwip220/netif/slipif.c ****     /* allocate a new pbuf */
 264:ThirdPackage/lwip220/netif/slipif.c ****     LWIP_DEBUGF(SLIP_DEBUG, ("slipif_input: alloc\n"));
 265:ThirdPackage/lwip220/netif/slipif.c ****     priv->p = pbuf_alloc(PBUF_LINK, (PBUF_POOL_BUFSIZE - PBUF_LINK_HLEN - PBUF_LINK_ENCAPSULATION_H
 266:ThirdPackage/lwip220/netif/slipif.c **** 
 267:ThirdPackage/lwip220/netif/slipif.c ****     if (priv->p == NULL) {
 268:ThirdPackage/lwip220/netif/slipif.c ****       LINK_STATS_INC(link.drop);
 269:ThirdPackage/lwip220/netif/slipif.c ****       LWIP_DEBUGF(SLIP_DEBUG, ("slipif_input: no new pbuf! (DROP)\n"));
 270:ThirdPackage/lwip220/netif/slipif.c ****       /* don't process any further since we got no pbuf to receive to */
 271:ThirdPackage/lwip220/netif/slipif.c ****       return NULL;
 272:ThirdPackage/lwip220/netif/slipif.c ****     }
 273:ThirdPackage/lwip220/netif/slipif.c **** 
 274:ThirdPackage/lwip220/netif/slipif.c ****     if (priv->q != NULL) {
 275:ThirdPackage/lwip220/netif/slipif.c ****       /* 'chain' the pbuf to the existing chain */
 276:ThirdPackage/lwip220/netif/slipif.c ****       pbuf_cat(priv->q, priv->p);
 277:ThirdPackage/lwip220/netif/slipif.c ****     } else {
 278:ThirdPackage/lwip220/netif/slipif.c ****       /* p is the first pbuf in the chain */
 279:ThirdPackage/lwip220/netif/slipif.c ****       priv->q = priv->p;
 280:ThirdPackage/lwip220/netif/slipif.c ****     }
 281:ThirdPackage/lwip220/netif/slipif.c ****   }
 282:ThirdPackage/lwip220/netif/slipif.c **** 
 283:ThirdPackage/lwip220/netif/slipif.c ****   /* this automatically drops bytes if > SLIP_MAX_SIZE */
 284:ThirdPackage/lwip220/netif/slipif.c ****   if ((priv->p != NULL) && (priv->recved <= SLIP_MAX_SIZE)) {
  96              		.loc 1 284 3 is_stmt 1 view .LVU21
  97              		.loc 1 284 12 is_stmt 0 view .LVU22
  98 0022 6068     		ldr	r0, [r4, #4]
  99              		.loc 1 284 6 view .LVU23
 100 0024 0028     		cmp	r0, #0
 101 0026 61D0     		beq	.L1
ARM GAS  C:\Users\86188\AppData\Local\Temp\ccBQr5KG.s 			page 8


 102              		.loc 1 284 33 discriminator 1 view .LVU24
 103 0028 228A     		ldrh	r2, [r4, #16]
 104              		.loc 1 284 25 discriminator 1 view .LVU25
 105 002a 40F2DC53 		movw	r3, #1500
 106 002e 9A42     		cmp	r2, r3
 107 0030 5BD8     		bhi	.L16
 285:ThirdPackage/lwip220/netif/slipif.c ****     ((u8_t *)priv->p->payload)[priv->i] = c;
 108              		.loc 1 285 5 is_stmt 1 view .LVU26
 109              		.loc 1 285 21 is_stmt 0 view .LVU27
 110 0032 4268     		ldr	r2, [r0, #4]
 111              		.loc 1 285 36 view .LVU28
 112 0034 E389     		ldrh	r3, [r4, #14]
 113              		.loc 1 285 41 view .LVU29
 114 0036 D554     		strb	r5, [r2, r3]
 286:ThirdPackage/lwip220/netif/slipif.c ****     priv->recved++;
 115              		.loc 1 286 5 is_stmt 1 view .LVU30
 116              		.loc 1 286 9 is_stmt 0 view .LVU31
 117 0038 238A     		ldrh	r3, [r4, #16]
 118              		.loc 1 286 17 view .LVU32
 119 003a 0133     		adds	r3, r3, #1
 120 003c 2382     		strh	r3, [r4, #16]	@ movhi
 287:ThirdPackage/lwip220/netif/slipif.c ****     priv->i++;
 121              		.loc 1 287 5 is_stmt 1 view .LVU33
 122              		.loc 1 287 9 is_stmt 0 view .LVU34
 123 003e E389     		ldrh	r3, [r4, #14]
 124              		.loc 1 287 12 view .LVU35
 125 0040 0133     		adds	r3, r3, #1
 126 0042 9BB2     		uxth	r3, r3
 127 0044 E381     		strh	r3, [r4, #14]	@ movhi
 288:ThirdPackage/lwip220/netif/slipif.c ****     if (priv->i >= priv->p->len) {
 128              		.loc 1 288 5 is_stmt 1 view .LVU36
 129              		.loc 1 288 24 is_stmt 0 view .LVU37
 130 0046 6268     		ldr	r2, [r4, #4]
 131              		.loc 1 288 27 view .LVU38
 132 0048 5189     		ldrh	r1, [r2, #10]
 133              		.loc 1 288 8 view .LVU39
 134 004a 8B42     		cmp	r3, r1
 135 004c 4FD3     		bcc	.L17
 289:ThirdPackage/lwip220/netif/slipif.c ****       /* on to the next pbuf */
 290:ThirdPackage/lwip220/netif/slipif.c ****       priv->i = 0;
 136              		.loc 1 290 7 is_stmt 1 view .LVU40
 137              		.loc 1 290 15 is_stmt 0 view .LVU41
 138 004e 0023     		movs	r3, #0
 139 0050 E381     		strh	r3, [r4, #14]	@ movhi
 291:ThirdPackage/lwip220/netif/slipif.c ****       if (priv->p->next != NULL && priv->p->next->len > 0) {
 140              		.loc 1 291 7 is_stmt 1 view .LVU42
 141              		.loc 1 291 18 is_stmt 0 view .LVU43
 142 0052 1368     		ldr	r3, [r2]
 143              		.loc 1 291 10 view .LVU44
 144 0054 002B     		cmp	r3, #0
 145 0056 45D0     		beq	.L13
 146              		.loc 1 291 49 discriminator 1 view .LVU45
 147 0058 5A89     		ldrh	r2, [r3, #10]
 148              		.loc 1 291 33 discriminator 1 view .LVU46
 149 005a 002A     		cmp	r2, #0
 150 005c 42D0     		beq	.L13
 292:ThirdPackage/lwip220/netif/slipif.c ****         /* p is a chain, on to the next in the chain */
ARM GAS  C:\Users\86188\AppData\Local\Temp\ccBQr5KG.s 			page 9


 293:ThirdPackage/lwip220/netif/slipif.c ****         priv->p = priv->p->next;
 151              		.loc 1 293 9 is_stmt 1 view .LVU47
 152              		.loc 1 293 17 is_stmt 0 view .LVU48
 153 005e 6360     		str	r3, [r4, #4]
 294:ThirdPackage/lwip220/netif/slipif.c ****       } else {
 295:ThirdPackage/lwip220/netif/slipif.c ****         /* p is a single pbuf, set it to NULL so next time a new
 296:ThirdPackage/lwip220/netif/slipif.c ****          * pbuf is allocated */
 297:ThirdPackage/lwip220/netif/slipif.c ****         priv->p = NULL;
 298:ThirdPackage/lwip220/netif/slipif.c ****       }
 299:ThirdPackage/lwip220/netif/slipif.c ****     }
 300:ThirdPackage/lwip220/netif/slipif.c ****   }
 301:ThirdPackage/lwip220/netif/slipif.c ****   return NULL;
 154              		.loc 1 301 10 view .LVU49
 155 0060 0020     		movs	r0, #0
 293:ThirdPackage/lwip220/netif/slipif.c ****       } else {
 156              		.loc 1 293 17 view .LVU50
 157 0062 43E0     		b	.L1
 158              	.LVL4:
 159              	.L19:
 212:ThirdPackage/lwip220/netif/slipif.c ****   LWIP_ASSERT("netif->state != NULL", (netif->state != NULL));
 160              		.loc 1 212 3 is_stmt 1 discriminator 1 view .LVU51
 212:ThirdPackage/lwip220/netif/slipif.c ****   LWIP_ASSERT("netif->state != NULL", (netif->state != NULL));
 161              		.loc 1 212 3 discriminator 1 view .LVU52
 162 0064 234B     		ldr	r3, .L23
 163 0066 D422     		movs	r2, #212
 164 0068 2349     		ldr	r1, .L23+4
 165              	.LVL5:
 212:ThirdPackage/lwip220/netif/slipif.c ****   LWIP_ASSERT("netif->state != NULL", (netif->state != NULL));
 166              		.loc 1 212 3 is_stmt 0 discriminator 1 view .LVU53
 167 006a 2448     		ldr	r0, .L23+8
 168              	.LVL6:
 212:ThirdPackage/lwip220/netif/slipif.c ****   LWIP_ASSERT("netif->state != NULL", (netif->state != NULL));
 169              		.loc 1 212 3 discriminator 1 view .LVU54
 170 006c FFF7FEFF 		bl	printf
 171              	.LVL7:
 172 0070 CBE7     		b	.L2
 173              	.L20:
 213:ThirdPackage/lwip220/netif/slipif.c **** 
 174              		.loc 1 213 3 is_stmt 1 discriminator 1 view .LVU55
 213:ThirdPackage/lwip220/netif/slipif.c **** 
 175              		.loc 1 213 3 discriminator 1 view .LVU56
 176 0072 204B     		ldr	r3, .L23
 177 0074 D522     		movs	r2, #213
 178 0076 2249     		ldr	r1, .L23+12
 179 0078 2048     		ldr	r0, .L23+8
 180 007a FFF7FEFF 		bl	printf
 181              	.LVL8:
 182 007e C7E7     		b	.L3
 183              	.LVL9:
 184              	.L4:
 219:ThirdPackage/lwip220/netif/slipif.c ****         case SLIP_END:
 185              		.loc 1 219 7 view .LVU57
 186 0080 C02D     		cmp	r5, #192
 187 0082 05D0     		beq	.L7
 188 0084 DB2D     		cmp	r5, #219
 189 0086 C9D1     		bne	.L6
 236:ThirdPackage/lwip220/netif/slipif.c ****           return NULL;
ARM GAS  C:\Users\86188\AppData\Local\Temp\ccBQr5KG.s 			page 10


 190              		.loc 1 236 11 view .LVU58
 236:ThirdPackage/lwip220/netif/slipif.c ****           return NULL;
 191              		.loc 1 236 23 is_stmt 0 view .LVU59
 192 0088 0123     		movs	r3, #1
 193 008a 2373     		strb	r3, [r4, #12]
 237:ThirdPackage/lwip220/netif/slipif.c ****         default:
 194              		.loc 1 237 11 is_stmt 1 view .LVU60
 237:ThirdPackage/lwip220/netif/slipif.c ****         default:
 195              		.loc 1 237 18 is_stmt 0 view .LVU61
 196 008c 0020     		movs	r0, #0
 197 008e 2DE0     		b	.L1
 198              	.L7:
 221:ThirdPackage/lwip220/netif/slipif.c ****             /* Received whole packet. */
 199              		.loc 1 221 11 is_stmt 1 view .LVU62
 221:ThirdPackage/lwip220/netif/slipif.c ****             /* Received whole packet. */
 200              		.loc 1 221 19 is_stmt 0 view .LVU63
 201 0090 218A     		ldrh	r1, [r4, #16]
 221:ThirdPackage/lwip220/netif/slipif.c ****             /* Received whole packet. */
 202              		.loc 1 221 14 view .LVU64
 203 0092 09B9     		cbnz	r1, .L22
 234:ThirdPackage/lwip220/netif/slipif.c ****         case SLIP_ESC:
 204              		.loc 1 234 18 view .LVU65
 205 0094 0020     		movs	r0, #0
 206 0096 29E0     		b	.L1
 207              	.L22:
 224:ThirdPackage/lwip220/netif/slipif.c **** 
 208              		.loc 1 224 13 is_stmt 1 view .LVU66
 209 0098 A068     		ldr	r0, [r4, #8]
 210 009a FFF7FEFF 		bl	pbuf_realloc
 211              	.LVL10:
 226:ThirdPackage/lwip220/netif/slipif.c **** 
 212              		.loc 1 226 38 view .LVU67
 228:ThirdPackage/lwip220/netif/slipif.c ****             t = priv->q;
 213              		.loc 1 228 93 view .LVU68
 229:ThirdPackage/lwip220/netif/slipif.c ****             priv->p = priv->q = NULL;
 214              		.loc 1 229 13 view .LVU69
 229:ThirdPackage/lwip220/netif/slipif.c ****             priv->p = priv->q = NULL;
 215              		.loc 1 229 15 is_stmt 0 view .LVU70
 216 009e A068     		ldr	r0, [r4, #8]
 217              	.LVL11:
 230:ThirdPackage/lwip220/netif/slipif.c ****             priv->i = priv->recved = 0;
 218              		.loc 1 230 13 is_stmt 1 view .LVU71
 230:ThirdPackage/lwip220/netif/slipif.c ****             priv->i = priv->recved = 0;
 219              		.loc 1 230 31 is_stmt 0 view .LVU72
 220 00a0 0023     		movs	r3, #0
 221 00a2 A360     		str	r3, [r4, #8]
 230:ThirdPackage/lwip220/netif/slipif.c ****             priv->i = priv->recved = 0;
 222              		.loc 1 230 21 view .LVU73
 223 00a4 6360     		str	r3, [r4, #4]
 231:ThirdPackage/lwip220/netif/slipif.c ****             return t;
 224              		.loc 1 231 13 is_stmt 1 view .LVU74
 231:ThirdPackage/lwip220/netif/slipif.c ****             return t;
 225              		.loc 1 231 36 is_stmt 0 view .LVU75
 226 00a6 2382     		strh	r3, [r4, #16]	@ movhi
 231:ThirdPackage/lwip220/netif/slipif.c ****             return t;
 227              		.loc 1 231 21 view .LVU76
 228 00a8 E381     		strh	r3, [r4, #14]	@ movhi
ARM GAS  C:\Users\86188\AppData\Local\Temp\ccBQr5KG.s 			page 11


 232:ThirdPackage/lwip220/netif/slipif.c ****           }
 229              		.loc 1 232 13 is_stmt 1 view .LVU77
 232:ThirdPackage/lwip220/netif/slipif.c ****           }
 230              		.loc 1 232 20 is_stmt 0 view .LVU78
 231 00aa 1FE0     		b	.L1
 232              	.LVL12:
 233              	.L5:
 245:ThirdPackage/lwip220/netif/slipif.c ****         case SLIP_ESC_END:
 234              		.loc 1 245 7 is_stmt 1 view .LVU79
 235 00ac DC2D     		cmp	r5, #220
 236 00ae 05D0     		beq	.L15
 237 00b0 DD2D     		cmp	r5, #221
 238 00b2 00D1     		bne	.L10
 250:ThirdPackage/lwip220/netif/slipif.c ****           break;
 239              		.loc 1 250 13 is_stmt 0 view .LVU80
 240 00b4 DB25     		movs	r5, #219
 241              	.L10:
 242              	.LVL13:
 255:ThirdPackage/lwip220/netif/slipif.c ****       break;
 243              		.loc 1 255 7 is_stmt 1 view .LVU81
 255:ThirdPackage/lwip220/netif/slipif.c ****       break;
 244              		.loc 1 255 19 is_stmt 0 view .LVU82
 245 00b6 0023     		movs	r3, #0
 246 00b8 2373     		strb	r3, [r4, #12]
 256:ThirdPackage/lwip220/netif/slipif.c ****     default:
 247              		.loc 1 256 7 is_stmt 1 view .LVU83
 248 00ba AFE7     		b	.L6
 249              	.LVL14:
 250              	.L15:
 247:ThirdPackage/lwip220/netif/slipif.c ****           break;
 251              		.loc 1 247 13 is_stmt 0 view .LVU84
 252 00bc C025     		movs	r5, #192
 253 00be FAE7     		b	.L10
 254              	.LVL15:
 255              	.L21:
 264:ThirdPackage/lwip220/netif/slipif.c ****     priv->p = pbuf_alloc(PBUF_LINK, (PBUF_POOL_BUFSIZE - PBUF_LINK_HLEN - PBUF_LINK_ENCAPSULATION_H
 256              		.loc 1 264 55 is_stmt 1 view .LVU85
 265:ThirdPackage/lwip220/netif/slipif.c **** 
 257              		.loc 1 265 5 view .LVU86
 265:ThirdPackage/lwip220/netif/slipif.c **** 
 258              		.loc 1 265 15 is_stmt 0 view .LVU87
 259 00c0 4FF4C172 		mov	r2, #386
 260 00c4 40F24221 		movw	r1, #578
 261 00c8 0E20     		movs	r0, #14
 262 00ca FFF7FEFF 		bl	pbuf_alloc
 263              	.LVL16:
 265:ThirdPackage/lwip220/netif/slipif.c **** 
 264              		.loc 1 265 13 view .LVU88
 265 00ce 6060     		str	r0, [r4, #4]
 267:ThirdPackage/lwip220/netif/slipif.c ****       LINK_STATS_INC(link.drop);
 266              		.loc 1 267 5 is_stmt 1 view .LVU89
 267:ThirdPackage/lwip220/netif/slipif.c ****       LINK_STATS_INC(link.drop);
 267              		.loc 1 267 8 is_stmt 0 view .LVU90
 268 00d0 60B1     		cbz	r0, .L1
 274:ThirdPackage/lwip220/netif/slipif.c ****       /* 'chain' the pbuf to the existing chain */
 269              		.loc 1 274 5 is_stmt 1 view .LVU91
 274:ThirdPackage/lwip220/netif/slipif.c ****       /* 'chain' the pbuf to the existing chain */
ARM GAS  C:\Users\86188\AppData\Local\Temp\ccBQr5KG.s 			page 12


 270              		.loc 1 274 13 is_stmt 0 view .LVU92
 271 00d2 A368     		ldr	r3, [r4, #8]
 274:ThirdPackage/lwip220/netif/slipif.c ****       /* 'chain' the pbuf to the existing chain */
 272              		.loc 1 274 8 view .LVU93
 273 00d4 23B1     		cbz	r3, .L12
 276:ThirdPackage/lwip220/netif/slipif.c ****     } else {
 274              		.loc 1 276 7 is_stmt 1 view .LVU94
 275 00d6 0146     		mov	r1, r0
 276 00d8 1846     		mov	r0, r3
 277 00da FFF7FEFF 		bl	pbuf_cat
 278              	.LVL17:
 279 00de A0E7     		b	.L11
 280              	.L12:
 279:ThirdPackage/lwip220/netif/slipif.c ****     }
 281              		.loc 1 279 7 view .LVU95
 279:ThirdPackage/lwip220/netif/slipif.c ****     }
 282              		.loc 1 279 15 is_stmt 0 view .LVU96
 283 00e0 A060     		str	r0, [r4, #8]
 284 00e2 9EE7     		b	.L11
 285              	.L13:
 297:ThirdPackage/lwip220/netif/slipif.c ****       }
 286              		.loc 1 297 9 is_stmt 1 view .LVU97
 297:ThirdPackage/lwip220/netif/slipif.c ****       }
 287              		.loc 1 297 17 is_stmt 0 view .LVU98
 288 00e4 0020     		movs	r0, #0
 289 00e6 6060     		str	r0, [r4, #4]
 290 00e8 00E0     		b	.L1
 291              	.L16:
 292              		.loc 1 301 10 view .LVU99
 293 00ea 0020     		movs	r0, #0
 294              	.LVL18:
 295              	.L1:
 302:ThirdPackage/lwip220/netif/slipif.c **** }
 296              		.loc 1 302 1 view .LVU100
 297 00ec 38BD     		pop	{r3, r4, r5, pc}
 298              	.LVL19:
 299              	.L17:
 301:ThirdPackage/lwip220/netif/slipif.c **** }
 300              		.loc 1 301 10 view .LVU101
 301 00ee 0020     		movs	r0, #0
 302 00f0 FCE7     		b	.L1
 303              	.L24:
 304 00f2 00BF     		.align	2
 305              	.L23:
 306 00f4 00000000 		.word	.LC0
 307 00f8 24000000 		.word	.LC1
 308 00fc 34000000 		.word	.LC2
 309 0100 5C000000 		.word	.LC3
 310              		.cfi_endproc
 311              	.LFE162:
 313              		.section	.text.slipif_rxbyte_input,"ax",%progbits
 314              		.align	1
 315              		.syntax unified
 316              		.thumb
 317              		.thumb_func
 319              	slipif_rxbyte_input:
 320              	.LVL20:
ARM GAS  C:\Users\86188\AppData\Local\Temp\ccBQr5KG.s 			page 13


 321              	.LFB163:
 303:ThirdPackage/lwip220/netif/slipif.c **** 
 304:ThirdPackage/lwip220/netif/slipif.c **** /** Like slipif_rxbyte, but passes completed packets to netif->input
 305:ThirdPackage/lwip220/netif/slipif.c ****  *
 306:ThirdPackage/lwip220/netif/slipif.c ****  * @param netif The lwip network interface structure for this slipif
 307:ThirdPackage/lwip220/netif/slipif.c ****  * @param c received character
 308:ThirdPackage/lwip220/netif/slipif.c ****  */
 309:ThirdPackage/lwip220/netif/slipif.c **** static void
 310:ThirdPackage/lwip220/netif/slipif.c **** slipif_rxbyte_input(struct netif *netif, u8_t c)
 311:ThirdPackage/lwip220/netif/slipif.c **** {
 322              		.loc 1 311 1 is_stmt 1 view -0
 323              		.cfi_startproc
 324              		@ args = 0, pretend = 0, frame = 0
 325              		@ frame_needed = 0, uses_anonymous_args = 0
 326              		.loc 1 311 1 is_stmt 0 view .LVU103
 327 0000 38B5     		push	{r3, r4, r5, lr}
 328              	.LCFI1:
 329              		.cfi_def_cfa_offset 16
 330              		.cfi_offset 3, -16
 331              		.cfi_offset 4, -12
 332              		.cfi_offset 5, -8
 333              		.cfi_offset 14, -4
 334 0002 0446     		mov	r4, r0
 312:ThirdPackage/lwip220/netif/slipif.c ****   struct pbuf *p;
 335              		.loc 1 312 3 is_stmt 1 view .LVU104
 313:ThirdPackage/lwip220/netif/slipif.c ****   p = slipif_rxbyte(netif, c);
 336              		.loc 1 313 3 view .LVU105
 337              		.loc 1 313 7 is_stmt 0 view .LVU106
 338 0004 FFF7FEFF 		bl	slipif_rxbyte
 339              	.LVL21:
 314:ThirdPackage/lwip220/netif/slipif.c ****   if (p != NULL) {
 340              		.loc 1 314 3 is_stmt 1 view .LVU107
 341              		.loc 1 314 6 is_stmt 0 view .LVU108
 342 0008 20B1     		cbz	r0, .L25
 343 000a 0546     		mov	r5, r0
 315:ThirdPackage/lwip220/netif/slipif.c ****     if (netif->input(p, netif) != ERR_OK) {
 344              		.loc 1 315 5 is_stmt 1 view .LVU109
 345              		.loc 1 315 14 is_stmt 0 view .LVU110
 346 000c 2369     		ldr	r3, [r4, #16]
 347              		.loc 1 315 9 view .LVU111
 348 000e 2146     		mov	r1, r4
 349 0010 9847     		blx	r3
 350              	.LVL22:
 351              		.loc 1 315 8 view .LVU112
 352 0012 00B9     		cbnz	r0, .L28
 353              	.LVL23:
 354              	.L25:
 316:ThirdPackage/lwip220/netif/slipif.c ****       pbuf_free(p);
 317:ThirdPackage/lwip220/netif/slipif.c ****     }
 318:ThirdPackage/lwip220/netif/slipif.c ****   }
 319:ThirdPackage/lwip220/netif/slipif.c **** }
 355              		.loc 1 319 1 view .LVU113
 356 0014 38BD     		pop	{r3, r4, r5, pc}
 357              	.LVL24:
 358              	.L28:
 316:ThirdPackage/lwip220/netif/slipif.c ****       pbuf_free(p);
 359              		.loc 1 316 7 is_stmt 1 view .LVU114
ARM GAS  C:\Users\86188\AppData\Local\Temp\ccBQr5KG.s 			page 14


 360 0016 2846     		mov	r0, r5
 361 0018 FFF7FEFF 		bl	pbuf_free
 362              	.LVL25:
 363              		.loc 1 319 1 is_stmt 0 view .LVU115
 364 001c FAE7     		b	.L25
 365              		.cfi_endproc
 366              	.LFE163:
 368              		.section	.text.slipif_loop_thread,"ax",%progbits
 369              		.align	1
 370              		.syntax unified
 371              		.thumb
 372              		.thumb_func
 374              	slipif_loop_thread:
 375              	.LVL26:
 376              	.LFB164:
 320:ThirdPackage/lwip220/netif/slipif.c **** 
 321:ThirdPackage/lwip220/netif/slipif.c **** #if SLIP_USE_RX_THREAD
 322:ThirdPackage/lwip220/netif/slipif.c **** /**
 323:ThirdPackage/lwip220/netif/slipif.c ****  * The SLIP input thread.
 324:ThirdPackage/lwip220/netif/slipif.c ****  *
 325:ThirdPackage/lwip220/netif/slipif.c ****  * Feed the IP layer with incoming packets
 326:ThirdPackage/lwip220/netif/slipif.c ****  *
 327:ThirdPackage/lwip220/netif/slipif.c ****  * @param nf the lwip network interface structure for this slipif
 328:ThirdPackage/lwip220/netif/slipif.c ****  */
 329:ThirdPackage/lwip220/netif/slipif.c **** static void
 330:ThirdPackage/lwip220/netif/slipif.c **** slipif_loop_thread(void *nf)
 331:ThirdPackage/lwip220/netif/slipif.c **** {
 377              		.loc 1 331 1 is_stmt 1 view -0
 378              		.cfi_startproc
 379              		@ args = 0, pretend = 0, frame = 8
 380              		@ frame_needed = 0, uses_anonymous_args = 0
 381              		.loc 1 331 1 is_stmt 0 view .LVU117
 382 0000 30B5     		push	{r4, r5, lr}
 383              	.LCFI2:
 384              		.cfi_def_cfa_offset 12
 385              		.cfi_offset 4, -12
 386              		.cfi_offset 5, -8
 387              		.cfi_offset 14, -4
 388 0002 83B0     		sub	sp, sp, #12
 389              	.LCFI3:
 390              		.cfi_def_cfa_offset 24
 391 0004 0546     		mov	r5, r0
 332:ThirdPackage/lwip220/netif/slipif.c ****   u8_t c;
 392              		.loc 1 332 3 is_stmt 1 view .LVU118
 333:ThirdPackage/lwip220/netif/slipif.c ****   struct netif *netif = (struct netif *)nf;
 393              		.loc 1 333 3 view .LVU119
 394              	.LVL27:
 334:ThirdPackage/lwip220/netif/slipif.c ****   struct slipif_priv *priv = (struct slipif_priv *)netif->state;
 395              		.loc 1 334 3 view .LVU120
 396              		.loc 1 334 23 is_stmt 0 view .LVU121
 397 0006 046A     		ldr	r4, [r0, #32]
 398              	.LVL28:
 399              	.L30:
 335:ThirdPackage/lwip220/netif/slipif.c **** 
 336:ThirdPackage/lwip220/netif/slipif.c ****   while (1) {
 400              		.loc 1 336 3 is_stmt 1 view .LVU122
 337:ThirdPackage/lwip220/netif/slipif.c ****     if (sio_read(priv->sd, &c, 1) > 0) {
ARM GAS  C:\Users\86188\AppData\Local\Temp\ccBQr5KG.s 			page 15


 401              		.loc 1 337 5 view .LVU123
 402              		.loc 1 337 9 is_stmt 0 view .LVU124
 403 0008 0122     		movs	r2, #1
 404 000a 0DF10701 		add	r1, sp, #7
 405 000e 2068     		ldr	r0, [r4]
 406 0010 FFF7FEFF 		bl	sio_read
 407              	.LVL29:
 408              		.loc 1 337 8 view .LVU125
 409 0014 0028     		cmp	r0, #0
 410 0016 F7D0     		beq	.L30
 338:ThirdPackage/lwip220/netif/slipif.c ****       slipif_rxbyte_input(netif, c);
 411              		.loc 1 338 7 is_stmt 1 view .LVU126
 412 0018 9DF80710 		ldrb	r1, [sp, #7]	@ zero_extendqisi2
 413 001c 2846     		mov	r0, r5
 414 001e FFF7FEFF 		bl	slipif_rxbyte_input
 415              	.LVL30:
 416 0022 F1E7     		b	.L30
 417              		.cfi_endproc
 418              	.LFE164:
 420              		.section	.rodata.slipif_output.str1.4,"aMS",%progbits,1
 421              		.align	2
 422              	.LC4:
 423 0000 7020213D 		.ascii	"p != NULL\000"
 423      204E554C 
 423      4C00
 424              		.section	.text.slipif_output,"ax",%progbits
 425              		.align	1
 426              		.syntax unified
 427              		.thumb
 428              		.thumb_func
 430              	slipif_output:
 431              	.LVL31:
 432              	.LFB160:
 117:ThirdPackage/lwip220/netif/slipif.c ****   struct slipif_priv *priv;
 433              		.loc 1 117 1 view -0
 434              		.cfi_startproc
 435              		@ args = 0, pretend = 0, frame = 0
 436              		@ frame_needed = 0, uses_anonymous_args = 0
 117:ThirdPackage/lwip220/netif/slipif.c ****   struct slipif_priv *priv;
 437              		.loc 1 117 1 is_stmt 0 view .LVU128
 438 0000 70B5     		push	{r4, r5, r6, lr}
 439              	.LCFI4:
 440              		.cfi_def_cfa_offset 16
 441              		.cfi_offset 4, -16
 442              		.cfi_offset 5, -12
 443              		.cfi_offset 6, -8
 444              		.cfi_offset 14, -4
 445 0002 0D46     		mov	r5, r1
 118:ThirdPackage/lwip220/netif/slipif.c ****   struct pbuf *q;
 446              		.loc 1 118 3 is_stmt 1 view .LVU129
 119:ThirdPackage/lwip220/netif/slipif.c ****   u16_t i;
 447              		.loc 1 119 3 view .LVU130
 120:ThirdPackage/lwip220/netif/slipif.c ****   u8_t c;
 448              		.loc 1 120 3 view .LVU131
 121:ThirdPackage/lwip220/netif/slipif.c **** 
 449              		.loc 1 121 3 view .LVU132
 123:ThirdPackage/lwip220/netif/slipif.c ****   LWIP_ASSERT("netif->state != NULL", (netif->state != NULL));
ARM GAS  C:\Users\86188\AppData\Local\Temp\ccBQr5KG.s 			page 16


 450              		.loc 1 123 3 view .LVU133
 123:ThirdPackage/lwip220/netif/slipif.c ****   LWIP_ASSERT("netif->state != NULL", (netif->state != NULL));
 451              		.loc 1 123 3 view .LVU134
 452 0004 0446     		mov	r4, r0
 453 0006 40B1     		cbz	r0, .L47
 454              	.LVL32:
 455              	.L34:
 123:ThirdPackage/lwip220/netif/slipif.c ****   LWIP_ASSERT("netif->state != NULL", (netif->state != NULL));
 456              		.loc 1 123 3 discriminator 3 view .LVU135
 123:ThirdPackage/lwip220/netif/slipif.c ****   LWIP_ASSERT("netif->state != NULL", (netif->state != NULL));
 457              		.loc 1 123 3 discriminator 3 view .LVU136
 124:ThirdPackage/lwip220/netif/slipif.c ****   LWIP_ASSERT("p != NULL", (p != NULL));
 458              		.loc 1 124 3 discriminator 3 view .LVU137
 124:ThirdPackage/lwip220/netif/slipif.c ****   LWIP_ASSERT("p != NULL", (p != NULL));
 459              		.loc 1 124 3 discriminator 3 view .LVU138
 460 0008 236A     		ldr	r3, [r4, #32]
 461 000a 6BB1     		cbz	r3, .L48
 462              	.L35:
 124:ThirdPackage/lwip220/netif/slipif.c ****   LWIP_ASSERT("p != NULL", (p != NULL));
 463              		.loc 1 124 3 discriminator 3 view .LVU139
 124:ThirdPackage/lwip220/netif/slipif.c ****   LWIP_ASSERT("p != NULL", (p != NULL));
 464              		.loc 1 124 3 discriminator 3 view .LVU140
 125:ThirdPackage/lwip220/netif/slipif.c **** 
 465              		.loc 1 125 3 discriminator 3 view .LVU141
 125:ThirdPackage/lwip220/netif/slipif.c **** 
 466              		.loc 1 125 3 discriminator 3 view .LVU142
 467 000c 9DB1     		cbz	r5, .L49
 468              	.L36:
 125:ThirdPackage/lwip220/netif/slipif.c **** 
 469              		.loc 1 125 3 discriminator 3 view .LVU143
 125:ThirdPackage/lwip220/netif/slipif.c **** 
 470              		.loc 1 125 3 discriminator 3 view .LVU144
 127:ThirdPackage/lwip220/netif/slipif.c ****   priv = (struct slipif_priv *)netif->state;
 471              		.loc 1 127 83 discriminator 3 view .LVU145
 128:ThirdPackage/lwip220/netif/slipif.c **** 
 472              		.loc 1 128 3 discriminator 3 view .LVU146
 128:ThirdPackage/lwip220/netif/slipif.c **** 
 473              		.loc 1 128 8 is_stmt 0 discriminator 3 view .LVU147
 474 000e 266A     		ldr	r6, [r4, #32]
 475              	.LVL33:
 132:ThirdPackage/lwip220/netif/slipif.c **** 
 476              		.loc 1 132 3 is_stmt 1 discriminator 3 view .LVU148
 477 0010 3168     		ldr	r1, [r6]
 478 0012 C020     		movs	r0, #192
 479 0014 FFF7FEFF 		bl	sio_send
 480              	.LVL34:
 134:ThirdPackage/lwip220/netif/slipif.c ****     for (i = 0; i < q->len; i++) {
 481              		.loc 1 134 3 discriminator 3 view .LVU149
 134:ThirdPackage/lwip220/netif/slipif.c ****     for (i = 0; i < q->len; i++) {
 482              		.loc 1 134 3 is_stmt 0 discriminator 3 view .LVU150
 483 0018 35E0     		b	.L37
 484              	.LVL35:
 485              	.L47:
 123:ThirdPackage/lwip220/netif/slipif.c ****   LWIP_ASSERT("netif->state != NULL", (netif->state != NULL));
 486              		.loc 1 123 3 is_stmt 1 discriminator 1 view .LVU151
 123:ThirdPackage/lwip220/netif/slipif.c ****   LWIP_ASSERT("netif->state != NULL", (netif->state != NULL));
 487              		.loc 1 123 3 discriminator 1 view .LVU152
ARM GAS  C:\Users\86188\AppData\Local\Temp\ccBQr5KG.s 			page 17


 488 001a 1F4B     		ldr	r3, .L52
 489 001c 7B22     		movs	r2, #123
 490 001e 1F49     		ldr	r1, .L52+4
 491              	.LVL36:
 123:ThirdPackage/lwip220/netif/slipif.c ****   LWIP_ASSERT("netif->state != NULL", (netif->state != NULL));
 492              		.loc 1 123 3 is_stmt 0 discriminator 1 view .LVU153
 493 0020 1F48     		ldr	r0, .L52+8
 494              	.LVL37:
 123:ThirdPackage/lwip220/netif/slipif.c ****   LWIP_ASSERT("netif->state != NULL", (netif->state != NULL));
 495              		.loc 1 123 3 discriminator 1 view .LVU154
 496 0022 FFF7FEFF 		bl	printf
 497              	.LVL38:
 498 0026 EFE7     		b	.L34
 499              	.L48:
 124:ThirdPackage/lwip220/netif/slipif.c ****   LWIP_ASSERT("p != NULL", (p != NULL));
 500              		.loc 1 124 3 is_stmt 1 discriminator 1 view .LVU155
 124:ThirdPackage/lwip220/netif/slipif.c ****   LWIP_ASSERT("p != NULL", (p != NULL));
 501              		.loc 1 124 3 discriminator 1 view .LVU156
 502 0028 1B4B     		ldr	r3, .L52
 503 002a 7C22     		movs	r2, #124
 504 002c 1D49     		ldr	r1, .L52+12
 505 002e 1C48     		ldr	r0, .L52+8
 506 0030 FFF7FEFF 		bl	printf
 507              	.LVL39:
 508 0034 EAE7     		b	.L35
 509              	.L49:
 125:ThirdPackage/lwip220/netif/slipif.c **** 
 510              		.loc 1 125 3 discriminator 1 view .LVU157
 125:ThirdPackage/lwip220/netif/slipif.c **** 
 511              		.loc 1 125 3 discriminator 1 view .LVU158
 512 0036 184B     		ldr	r3, .L52
 513 0038 7D22     		movs	r2, #125
 514 003a 1B49     		ldr	r1, .L52+16
 515 003c 1848     		ldr	r0, .L52+8
 516 003e FFF7FEFF 		bl	printf
 517              	.LVL40:
 518 0042 E4E7     		b	.L36
 519              	.LVL41:
 520              	.L38:
 140:ThirdPackage/lwip220/netif/slipif.c ****           sio_send(SLIP_ESC_END, priv->sd);
 521              		.loc 1 140 11 view .LVU159
 522 0044 3168     		ldr	r1, [r6]
 523 0046 DB20     		movs	r0, #219
 524              	.LVL42:
 140:ThirdPackage/lwip220/netif/slipif.c ****           sio_send(SLIP_ESC_END, priv->sd);
 525              		.loc 1 140 11 is_stmt 0 view .LVU160
 526 0048 FFF7FEFF 		bl	sio_send
 527              	.LVL43:
 141:ThirdPackage/lwip220/netif/slipif.c ****           break;
 528              		.loc 1 141 11 is_stmt 1 view .LVU161
 529 004c 3168     		ldr	r1, [r6]
 530 004e DC20     		movs	r0, #220
 531 0050 FFF7FEFF 		bl	sio_send
 532              	.LVL44:
 142:ThirdPackage/lwip220/netif/slipif.c ****         case SLIP_ESC:
 533              		.loc 1 142 11 view .LVU162
 534              	.L41:
ARM GAS  C:\Users\86188\AppData\Local\Temp\ccBQr5KG.s 			page 18


 135:ThirdPackage/lwip220/netif/slipif.c ****       c = ((u8_t *)q->payload)[i];
 535              		.loc 1 135 29 discriminator 2 view .LVU163
 135:ThirdPackage/lwip220/netif/slipif.c ****       c = ((u8_t *)q->payload)[i];
 536              		.loc 1 135 30 is_stmt 0 discriminator 2 view .LVU164
 537 0054 0134     		adds	r4, r4, #1
 538              	.LVL45:
 135:ThirdPackage/lwip220/netif/slipif.c ****       c = ((u8_t *)q->payload)[i];
 539              		.loc 1 135 30 discriminator 2 view .LVU165
 540 0056 A4B2     		uxth	r4, r4
 541              	.LVL46:
 542              	.L43:
 135:ThirdPackage/lwip220/netif/slipif.c ****       c = ((u8_t *)q->payload)[i];
 543              		.loc 1 135 17 is_stmt 1 discriminator 1 view .LVU166
 135:ThirdPackage/lwip220/netif/slipif.c ****       c = ((u8_t *)q->payload)[i];
 544              		.loc 1 135 22 is_stmt 0 discriminator 1 view .LVU167
 545 0058 6B89     		ldrh	r3, [r5, #10]
 135:ThirdPackage/lwip220/netif/slipif.c ****       c = ((u8_t *)q->payload)[i];
 546              		.loc 1 135 5 discriminator 1 view .LVU168
 547 005a A342     		cmp	r3, r4
 548 005c 12D9     		bls	.L50
 136:ThirdPackage/lwip220/netif/slipif.c ****       switch (c) {
 549              		.loc 1 136 7 is_stmt 1 view .LVU169
 136:ThirdPackage/lwip220/netif/slipif.c ****       switch (c) {
 550              		.loc 1 136 21 is_stmt 0 view .LVU170
 551 005e 6B68     		ldr	r3, [r5, #4]
 136:ThirdPackage/lwip220/netif/slipif.c ****       switch (c) {
 552              		.loc 1 136 9 view .LVU171
 553 0060 185D     		ldrb	r0, [r3, r4]	@ zero_extendqisi2
 554              	.LVL47:
 137:ThirdPackage/lwip220/netif/slipif.c ****         case SLIP_END:
 555              		.loc 1 137 7 is_stmt 1 view .LVU172
 556 0062 C028     		cmp	r0, #192
 557 0064 EED0     		beq	.L38
 558 0066 DB28     		cmp	r0, #219
 559 0068 03D0     		beq	.L39
 150:ThirdPackage/lwip220/netif/slipif.c ****           break;
 560              		.loc 1 150 11 view .LVU173
 561 006a 3168     		ldr	r1, [r6]
 562 006c FFF7FEFF 		bl	sio_send
 563              	.LVL48:
 151:ThirdPackage/lwip220/netif/slipif.c ****       }
 564              		.loc 1 151 11 view .LVU174
 565 0070 F0E7     		b	.L41
 566              	.LVL49:
 567              	.L39:
 145:ThirdPackage/lwip220/netif/slipif.c ****           sio_send(SLIP_ESC_ESC, priv->sd);
 568              		.loc 1 145 11 view .LVU175
 569 0072 3168     		ldr	r1, [r6]
 570 0074 DB20     		movs	r0, #219
 571              	.LVL50:
 145:ThirdPackage/lwip220/netif/slipif.c ****           sio_send(SLIP_ESC_ESC, priv->sd);
 572              		.loc 1 145 11 is_stmt 0 view .LVU176
 573 0076 FFF7FEFF 		bl	sio_send
 574              	.LVL51:
 146:ThirdPackage/lwip220/netif/slipif.c ****           break;
 575              		.loc 1 146 11 is_stmt 1 view .LVU177
 576 007a 3168     		ldr	r1, [r6]
ARM GAS  C:\Users\86188\AppData\Local\Temp\ccBQr5KG.s 			page 19


 577 007c DD20     		movs	r0, #221
 578 007e FFF7FEFF 		bl	sio_send
 579              	.LVL52:
 147:ThirdPackage/lwip220/netif/slipif.c ****         default:
 580              		.loc 1 147 11 view .LVU178
 581 0082 E7E7     		b	.L41
 582              	.L50:
 134:ThirdPackage/lwip220/netif/slipif.c ****     for (i = 0; i < q->len; i++) {
 583              		.loc 1 134 26 discriminator 2 view .LVU179
 134:ThirdPackage/lwip220/netif/slipif.c ****     for (i = 0; i < q->len; i++) {
 584              		.loc 1 134 28 is_stmt 0 discriminator 2 view .LVU180
 585 0084 2D68     		ldr	r5, [r5]
 586              	.LVL53:
 587              	.L37:
 134:ThirdPackage/lwip220/netif/slipif.c ****     for (i = 0; i < q->len; i++) {
 588              		.loc 1 134 15 is_stmt 1 discriminator 1 view .LVU181
 134:ThirdPackage/lwip220/netif/slipif.c ****     for (i = 0; i < q->len; i++) {
 589              		.loc 1 134 3 is_stmt 0 discriminator 1 view .LVU182
 590 0086 0DB1     		cbz	r5, .L51
 135:ThirdPackage/lwip220/netif/slipif.c ****       c = ((u8_t *)q->payload)[i];
 591              		.loc 1 135 12 view .LVU183
 592 0088 0024     		movs	r4, #0
 593 008a E5E7     		b	.L43
 594              	.L51:
 156:ThirdPackage/lwip220/netif/slipif.c ****   return ERR_OK;
 595              		.loc 1 156 3 is_stmt 1 view .LVU184
 596 008c 3168     		ldr	r1, [r6]
 597 008e C020     		movs	r0, #192
 598 0090 FFF7FEFF 		bl	sio_send
 599              	.LVL54:
 157:ThirdPackage/lwip220/netif/slipif.c **** }
 600              		.loc 1 157 3 view .LVU185
 158:ThirdPackage/lwip220/netif/slipif.c **** 
 601              		.loc 1 158 1 is_stmt 0 view .LVU186
 602 0094 0020     		movs	r0, #0
 603 0096 70BD     		pop	{r4, r5, r6, pc}
 604              	.LVL55:
 605              	.L53:
 158:ThirdPackage/lwip220/netif/slipif.c **** 
 606              		.loc 1 158 1 view .LVU187
 607              		.align	2
 608              	.L52:
 609 0098 00000000 		.word	.LC0
 610 009c 24000000 		.word	.LC1
 611 00a0 34000000 		.word	.LC2
 612 00a4 5C000000 		.word	.LC3
 613 00a8 00000000 		.word	.LC4
 614              		.cfi_endproc
 615              	.LFE160:
 617              		.section	.text.slipif_output_v4,"ax",%progbits
 618              		.align	1
 619              		.syntax unified
 620              		.thumb
 621              		.thumb_func
 623              	slipif_output_v4:
 624              	.LVL56:
 625              	.LFB161:
ARM GAS  C:\Users\86188\AppData\Local\Temp\ccBQr5KG.s 			page 20


 173:ThirdPackage/lwip220/netif/slipif.c ****   LWIP_UNUSED_ARG(ipaddr);
 626              		.loc 1 173 1 is_stmt 1 view -0
 627              		.cfi_startproc
 628              		@ args = 0, pretend = 0, frame = 0
 629              		@ frame_needed = 0, uses_anonymous_args = 0
 173:ThirdPackage/lwip220/netif/slipif.c ****   LWIP_UNUSED_ARG(ipaddr);
 630              		.loc 1 173 1 is_stmt 0 view .LVU189
 631 0000 08B5     		push	{r3, lr}
 632              	.LCFI5:
 633              		.cfi_def_cfa_offset 8
 634              		.cfi_offset 3, -8
 635              		.cfi_offset 14, -4
 174:ThirdPackage/lwip220/netif/slipif.c ****   return slipif_output(netif, p);
 636              		.loc 1 174 3 is_stmt 1 view .LVU190
 175:ThirdPackage/lwip220/netif/slipif.c **** }
 637              		.loc 1 175 3 view .LVU191
 175:ThirdPackage/lwip220/netif/slipif.c **** }
 638              		.loc 1 175 10 is_stmt 0 view .LVU192
 639 0002 FFF7FEFF 		bl	slipif_output
 640              	.LVL57:
 176:ThirdPackage/lwip220/netif/slipif.c **** #endif /* LWIP_IPV4 */
 641              		.loc 1 176 1 view .LVU193
 642 0006 08BD     		pop	{r3, pc}
 643              		.cfi_endproc
 644              	.LFE161:
 646              		.section	.rodata.slipif_init.str1.4,"aMS",%progbits,1
 647              		.align	2
 648              	.LC5:
 649 0000 736C6970 		.ascii	"slipif needs an input callback\000"
 649      6966206E 
 649      65656473 
 649      20616E20 
 649      696E7075 
 650 001f 00       		.align	2
 651              	.LC6:
 652 0020 736C6970 		.ascii	"slipif_loop\000"
 652      69665F6C 
 652      6F6F7000 
 653              		.section	.text.slipif_init,"ax",%progbits
 654              		.align	1
 655              		.global	slipif_init
 656              		.syntax unified
 657              		.thumb
 658              		.thumb_func
 660              	slipif_init:
 661              	.LVL58:
 662              	.LFB165:
 339:ThirdPackage/lwip220/netif/slipif.c ****     }
 340:ThirdPackage/lwip220/netif/slipif.c ****   }
 341:ThirdPackage/lwip220/netif/slipif.c **** }
 342:ThirdPackage/lwip220/netif/slipif.c **** #endif /* SLIP_USE_RX_THREAD */
 343:ThirdPackage/lwip220/netif/slipif.c **** 
 344:ThirdPackage/lwip220/netif/slipif.c **** /**
 345:ThirdPackage/lwip220/netif/slipif.c ****  * @ingroup slipif
 346:ThirdPackage/lwip220/netif/slipif.c ****  * SLIP netif initialization
 347:ThirdPackage/lwip220/netif/slipif.c ****  *
 348:ThirdPackage/lwip220/netif/slipif.c ****  * Call the arch specific sio_open and remember
ARM GAS  C:\Users\86188\AppData\Local\Temp\ccBQr5KG.s 			page 21


 349:ThirdPackage/lwip220/netif/slipif.c ****  * the opened device in the state field of the netif.
 350:ThirdPackage/lwip220/netif/slipif.c ****  *
 351:ThirdPackage/lwip220/netif/slipif.c ****  * @param netif the lwip network interface structure for this slipif
 352:ThirdPackage/lwip220/netif/slipif.c ****  * @return ERR_OK if serial line could be opened,
 353:ThirdPackage/lwip220/netif/slipif.c ****  *         ERR_MEM if no memory could be allocated,
 354:ThirdPackage/lwip220/netif/slipif.c ****  *         ERR_IF is serial line couldn't be opened
 355:ThirdPackage/lwip220/netif/slipif.c ****  *
 356:ThirdPackage/lwip220/netif/slipif.c ****  * @note If netif->state is interpreted as an u8_t serial port number.
 357:ThirdPackage/lwip220/netif/slipif.c ****  *
 358:ThirdPackage/lwip220/netif/slipif.c ****  */
 359:ThirdPackage/lwip220/netif/slipif.c **** err_t
 360:ThirdPackage/lwip220/netif/slipif.c **** slipif_init(struct netif *netif)
 361:ThirdPackage/lwip220/netif/slipif.c **** {
 663              		.loc 1 361 1 is_stmt 1 view -0
 664              		.cfi_startproc
 665              		@ args = 0, pretend = 0, frame = 0
 666              		@ frame_needed = 0, uses_anonymous_args = 0
 667              		.loc 1 361 1 is_stmt 0 view .LVU195
 668 0000 70B5     		push	{r4, r5, r6, lr}
 669              	.LCFI6:
 670              		.cfi_def_cfa_offset 16
 671              		.cfi_offset 4, -16
 672              		.cfi_offset 5, -12
 673              		.cfi_offset 6, -8
 674              		.cfi_offset 14, -4
 675 0002 82B0     		sub	sp, sp, #8
 676              	.LCFI7:
 677              		.cfi_def_cfa_offset 24
 678 0004 0446     		mov	r4, r0
 362:ThirdPackage/lwip220/netif/slipif.c ****   struct slipif_priv *priv;
 679              		.loc 1 362 3 is_stmt 1 view .LVU196
 363:ThirdPackage/lwip220/netif/slipif.c ****   u8_t sio_num;
 680              		.loc 1 363 3 view .LVU197
 364:ThirdPackage/lwip220/netif/slipif.c **** 
 365:ThirdPackage/lwip220/netif/slipif.c ****   LWIP_ASSERT("slipif needs an input callback", netif->input != NULL);
 681              		.loc 1 365 3 view .LVU198
 682              		.loc 1 365 3 view .LVU199
 683 0006 0369     		ldr	r3, [r0, #16]
 684 0008 53B3     		cbz	r3, .L62
 685              	.LVL59:
 686              	.L57:
 687              		.loc 1 365 3 discriminator 3 view .LVU200
 688              		.loc 1 365 3 discriminator 3 view .LVU201
 366:ThirdPackage/lwip220/netif/slipif.c **** 
 367:ThirdPackage/lwip220/netif/slipif.c ****   /* netif->state contains serial port number */
 368:ThirdPackage/lwip220/netif/slipif.c ****   sio_num = LWIP_PTR_NUMERIC_CAST(u8_t, netif->state);
 689              		.loc 1 368 3 discriminator 3 view .LVU202
 690              		.loc 1 368 11 is_stmt 0 discriminator 3 view .LVU203
 691 000a 94F82050 		ldrb	r5, [r4, #32]	@ zero_extendqisi2
 692              	.LVL60:
 369:ThirdPackage/lwip220/netif/slipif.c **** 
 370:ThirdPackage/lwip220/netif/slipif.c ****   LWIP_DEBUGF(SLIP_DEBUG, ("slipif_init: netif->num=%"U16_F"\n", (u16_t)sio_num));
 693              		.loc 1 370 82 is_stmt 1 discriminator 3 view .LVU204
 371:ThirdPackage/lwip220/netif/slipif.c **** 
 372:ThirdPackage/lwip220/netif/slipif.c ****   /* Allocate private data */
 373:ThirdPackage/lwip220/netif/slipif.c ****   priv = (struct slipif_priv *)mem_malloc(sizeof(struct slipif_priv));
 694              		.loc 1 373 3 discriminator 3 view .LVU205
ARM GAS  C:\Users\86188\AppData\Local\Temp\ccBQr5KG.s 			page 22


 695              		.loc 1 373 32 is_stmt 0 discriminator 3 view .LVU206
 696 000e 1420     		movs	r0, #20
 697 0010 FFF7FEFF 		bl	mem_malloc
 698              	.LVL61:
 374:ThirdPackage/lwip220/netif/slipif.c ****   if (!priv) {
 699              		.loc 1 374 3 is_stmt 1 discriminator 3 view .LVU207
 700              		.loc 1 374 6 is_stmt 0 discriminator 3 view .LVU208
 701 0014 0646     		mov	r6, r0
 702 0016 0028     		cmp	r0, #0
 703 0018 30D0     		beq	.L60
 375:ThirdPackage/lwip220/netif/slipif.c ****     return ERR_MEM;
 376:ThirdPackage/lwip220/netif/slipif.c ****   }
 377:ThirdPackage/lwip220/netif/slipif.c **** 
 378:ThirdPackage/lwip220/netif/slipif.c ****   netif->name[0] = 's';
 704              		.loc 1 378 3 is_stmt 1 view .LVU209
 705              		.loc 1 378 18 is_stmt 0 view .LVU210
 706 001a 7323     		movs	r3, #115
 707 001c 84F82E30 		strb	r3, [r4, #46]
 379:ThirdPackage/lwip220/netif/slipif.c ****   netif->name[1] = 'l';
 708              		.loc 1 379 3 is_stmt 1 view .LVU211
 709              		.loc 1 379 18 is_stmt 0 view .LVU212
 710 0020 6C23     		movs	r3, #108
 711 0022 84F82F30 		strb	r3, [r4, #47]
 380:ThirdPackage/lwip220/netif/slipif.c **** #if LWIP_IPV4
 381:ThirdPackage/lwip220/netif/slipif.c ****   netif->output = slipif_output_v4;
 712              		.loc 1 381 3 is_stmt 1 view .LVU213
 713              		.loc 1 381 17 is_stmt 0 view .LVU214
 714 0026 174B     		ldr	r3, .L64
 715 0028 6361     		str	r3, [r4, #20]
 382:ThirdPackage/lwip220/netif/slipif.c **** #endif /* LWIP_IPV4 */
 383:ThirdPackage/lwip220/netif/slipif.c **** #if LWIP_IPV6
 384:ThirdPackage/lwip220/netif/slipif.c ****   netif->output_ip6 = slipif_output_v6;
 385:ThirdPackage/lwip220/netif/slipif.c **** #endif /* LWIP_IPV6 */
 386:ThirdPackage/lwip220/netif/slipif.c ****   netif->mtu = SLIP_MAX_SIZE;
 716              		.loc 1 386 3 is_stmt 1 view .LVU215
 717              		.loc 1 386 14 is_stmt 0 view .LVU216
 718 002a 40F2DC53 		movw	r3, #1500
 719 002e A384     		strh	r3, [r4, #36]	@ movhi
 387:ThirdPackage/lwip220/netif/slipif.c **** 
 388:ThirdPackage/lwip220/netif/slipif.c ****   /* Try to open the serial port. */
 389:ThirdPackage/lwip220/netif/slipif.c ****   priv->sd = sio_open(sio_num);
 720              		.loc 1 389 3 is_stmt 1 view .LVU217
 721              		.loc 1 389 14 is_stmt 0 view .LVU218
 722 0030 2846     		mov	r0, r5
 723              	.LVL62:
 724              		.loc 1 389 14 view .LVU219
 725 0032 FFF7FEFF 		bl	sio_open
 726              	.LVL63:
 727              		.loc 1 389 12 view .LVU220
 728 0036 3060     		str	r0, [r6]
 390:ThirdPackage/lwip220/netif/slipif.c ****   if (!priv->sd) {
 729              		.loc 1 390 3 is_stmt 1 view .LVU221
 730              		.loc 1 390 6 is_stmt 0 view .LVU222
 731 0038 D0B1     		cbz	r0, .L63
 391:ThirdPackage/lwip220/netif/slipif.c ****     /* Opening the serial port failed. */
 392:ThirdPackage/lwip220/netif/slipif.c ****     mem_free(priv);
 393:ThirdPackage/lwip220/netif/slipif.c ****     return ERR_IF;
ARM GAS  C:\Users\86188\AppData\Local\Temp\ccBQr5KG.s 			page 23


 394:ThirdPackage/lwip220/netif/slipif.c ****   }
 395:ThirdPackage/lwip220/netif/slipif.c **** 
 396:ThirdPackage/lwip220/netif/slipif.c ****   /* Initialize private data */
 397:ThirdPackage/lwip220/netif/slipif.c ****   priv->p = NULL;
 732              		.loc 1 397 3 is_stmt 1 view .LVU223
 733              		.loc 1 397 11 is_stmt 0 view .LVU224
 734 003a 0025     		movs	r5, #0
 735              	.LVL64:
 736              		.loc 1 397 11 view .LVU225
 737 003c 7560     		str	r5, [r6, #4]
 398:ThirdPackage/lwip220/netif/slipif.c ****   priv->q = NULL;
 738              		.loc 1 398 3 is_stmt 1 view .LVU226
 739              		.loc 1 398 11 is_stmt 0 view .LVU227
 740 003e B560     		str	r5, [r6, #8]
 399:ThirdPackage/lwip220/netif/slipif.c ****   priv->state = SLIP_RECV_NORMAL;
 741              		.loc 1 399 3 is_stmt 1 view .LVU228
 742              		.loc 1 399 15 is_stmt 0 view .LVU229
 743 0040 3573     		strb	r5, [r6, #12]
 400:ThirdPackage/lwip220/netif/slipif.c ****   priv->i = 0;
 744              		.loc 1 400 3 is_stmt 1 view .LVU230
 745              		.loc 1 400 11 is_stmt 0 view .LVU231
 746 0042 F581     		strh	r5, [r6, #14]	@ movhi
 401:ThirdPackage/lwip220/netif/slipif.c ****   priv->recved = 0;
 747              		.loc 1 401 3 is_stmt 1 view .LVU232
 748              		.loc 1 401 16 is_stmt 0 view .LVU233
 749 0044 3582     		strh	r5, [r6, #16]	@ movhi
 402:ThirdPackage/lwip220/netif/slipif.c **** #if SLIP_RX_FROM_ISR
 403:ThirdPackage/lwip220/netif/slipif.c ****   priv->rxpackets = NULL;
 404:ThirdPackage/lwip220/netif/slipif.c **** #endif
 405:ThirdPackage/lwip220/netif/slipif.c **** 
 406:ThirdPackage/lwip220/netif/slipif.c ****   netif->state = priv;
 750              		.loc 1 406 3 is_stmt 1 view .LVU234
 751              		.loc 1 406 16 is_stmt 0 view .LVU235
 752 0046 2662     		str	r6, [r4, #32]
 407:ThirdPackage/lwip220/netif/slipif.c **** 
 408:ThirdPackage/lwip220/netif/slipif.c ****   /* initialize the snmp variables and counters inside the struct netif */
 409:ThirdPackage/lwip220/netif/slipif.c ****   MIB2_INIT_NETIF(netif, snmp_ifType_slip, SLIP_SIO_SPEED(priv->sd));
 753              		.loc 1 409 69 is_stmt 1 view .LVU236
 410:ThirdPackage/lwip220/netif/slipif.c **** 
 411:ThirdPackage/lwip220/netif/slipif.c **** #if SLIP_USE_RX_THREAD
 412:ThirdPackage/lwip220/netif/slipif.c ****   /* Create a thread to poll the serial line. */
 413:ThirdPackage/lwip220/netif/slipif.c ****   sys_thread_new(SLIPIF_THREAD_NAME, slipif_loop_thread, netif,
 754              		.loc 1 413 3 view .LVU237
 755 0048 0323     		movs	r3, #3
 756 004a 0093     		str	r3, [sp]
 757 004c 4FF48063 		mov	r3, #1024
 758 0050 2246     		mov	r2, r4
 759 0052 0D49     		ldr	r1, .L64+4
 760 0054 0D48     		ldr	r0, .L64+8
 761 0056 FFF7FEFF 		bl	sys_thread_new
 762              	.LVL65:
 414:ThirdPackage/lwip220/netif/slipif.c ****                  SLIPIF_THREAD_STACKSIZE, SLIPIF_THREAD_PRIO);
 415:ThirdPackage/lwip220/netif/slipif.c **** #endif /* SLIP_USE_RX_THREAD */
 416:ThirdPackage/lwip220/netif/slipif.c ****   return ERR_OK;
 763              		.loc 1 416 3 view .LVU238
 764              		.loc 1 416 10 is_stmt 0 view .LVU239
 765 005a 2846     		mov	r0, r5
ARM GAS  C:\Users\86188\AppData\Local\Temp\ccBQr5KG.s 			page 24


 766              	.L58:
 417:ThirdPackage/lwip220/netif/slipif.c **** }
 767              		.loc 1 417 1 view .LVU240
 768 005c 02B0     		add	sp, sp, #8
 769              	.LCFI8:
 770              		.cfi_remember_state
 771              		.cfi_def_cfa_offset 16
 772              		@ sp needed
 773 005e 70BD     		pop	{r4, r5, r6, pc}
 774              	.LVL66:
 775              	.L62:
 776              	.LCFI9:
 777              		.cfi_restore_state
 365:ThirdPackage/lwip220/netif/slipif.c **** 
 778              		.loc 1 365 3 is_stmt 1 discriminator 1 view .LVU241
 365:ThirdPackage/lwip220/netif/slipif.c **** 
 779              		.loc 1 365 3 discriminator 1 view .LVU242
 780 0060 0B4B     		ldr	r3, .L64+12
 781 0062 40F26D12 		movw	r2, #365
 782 0066 0B49     		ldr	r1, .L64+16
 783 0068 0B48     		ldr	r0, .L64+20
 784              	.LVL67:
 365:ThirdPackage/lwip220/netif/slipif.c **** 
 785              		.loc 1 365 3 is_stmt 0 discriminator 1 view .LVU243
 786 006a FFF7FEFF 		bl	printf
 787              	.LVL68:
 788 006e CCE7     		b	.L57
 789              	.LVL69:
 790              	.L63:
 392:ThirdPackage/lwip220/netif/slipif.c ****     return ERR_IF;
 791              		.loc 1 392 5 is_stmt 1 view .LVU244
 792 0070 3046     		mov	r0, r6
 793 0072 FFF7FEFF 		bl	mem_free
 794              	.LVL70:
 393:ThirdPackage/lwip220/netif/slipif.c ****   }
 795              		.loc 1 393 5 view .LVU245
 393:ThirdPackage/lwip220/netif/slipif.c ****   }
 796              		.loc 1 393 12 is_stmt 0 view .LVU246
 797 0076 6FF00B00 		mvn	r0, #11
 798 007a EFE7     		b	.L58
 799              	.LVL71:
 800              	.L60:
 375:ThirdPackage/lwip220/netif/slipif.c ****   }
 801              		.loc 1 375 12 view .LVU247
 802 007c 4FF0FF30 		mov	r0, #-1
 803              	.LVL72:
 375:ThirdPackage/lwip220/netif/slipif.c ****   }
 804              		.loc 1 375 12 view .LVU248
 805 0080 ECE7     		b	.L58
 806              	.L65:
 807 0082 00BF     		.align	2
 808              	.L64:
 809 0084 00000000 		.word	slipif_output_v4
 810 0088 00000000 		.word	slipif_loop_thread
 811 008c 20000000 		.word	.LC6
 812 0090 00000000 		.word	.LC0
 813 0094 00000000 		.word	.LC5
ARM GAS  C:\Users\86188\AppData\Local\Temp\ccBQr5KG.s 			page 25


 814 0098 34000000 		.word	.LC2
 815              		.cfi_endproc
 816              	.LFE165:
 818              		.section	.text.slipif_poll,"ax",%progbits
 819              		.align	1
 820              		.global	slipif_poll
 821              		.syntax unified
 822              		.thumb
 823              		.thumb_func
 825              	slipif_poll:
 826              	.LVL73:
 827              	.LFB166:
 418:ThirdPackage/lwip220/netif/slipif.c **** 
 419:ThirdPackage/lwip220/netif/slipif.c **** /**
 420:ThirdPackage/lwip220/netif/slipif.c ****  * @ingroup slipif
 421:ThirdPackage/lwip220/netif/slipif.c ****  * Polls the serial device and feeds the IP layer with incoming packets.
 422:ThirdPackage/lwip220/netif/slipif.c ****  *
 423:ThirdPackage/lwip220/netif/slipif.c ****  * @param netif The lwip network interface structure for this slipif
 424:ThirdPackage/lwip220/netif/slipif.c ****  */
 425:ThirdPackage/lwip220/netif/slipif.c **** void
 426:ThirdPackage/lwip220/netif/slipif.c **** slipif_poll(struct netif *netif)
 427:ThirdPackage/lwip220/netif/slipif.c **** {
 828              		.loc 1 427 1 is_stmt 1 view -0
 829              		.cfi_startproc
 830              		@ args = 0, pretend = 0, frame = 8
 831              		@ frame_needed = 0, uses_anonymous_args = 0
 832              		.loc 1 427 1 is_stmt 0 view .LVU250
 833 0000 30B5     		push	{r4, r5, lr}
 834              	.LCFI10:
 835              		.cfi_def_cfa_offset 12
 836              		.cfi_offset 4, -12
 837              		.cfi_offset 5, -8
 838              		.cfi_offset 14, -4
 839 0002 83B0     		sub	sp, sp, #12
 840              	.LCFI11:
 841              		.cfi_def_cfa_offset 24
 428:ThirdPackage/lwip220/netif/slipif.c ****   u8_t c;
 842              		.loc 1 428 3 is_stmt 1 view .LVU251
 429:ThirdPackage/lwip220/netif/slipif.c ****   struct slipif_priv *priv;
 843              		.loc 1 429 3 view .LVU252
 430:ThirdPackage/lwip220/netif/slipif.c **** 
 431:ThirdPackage/lwip220/netif/slipif.c ****   LWIP_ASSERT("netif != NULL", (netif != NULL));
 844              		.loc 1 431 3 view .LVU253
 845              		.loc 1 431 3 view .LVU254
 846 0004 0446     		mov	r4, r0
 847 0006 18B1     		cbz	r0, .L72
 848              	.LVL74:
 849              	.L67:
 850              		.loc 1 431 3 discriminator 3 view .LVU255
 851              		.loc 1 431 3 discriminator 3 view .LVU256
 432:ThirdPackage/lwip220/netif/slipif.c ****   LWIP_ASSERT("netif->state != NULL", (netif->state != NULL));
 852              		.loc 1 432 3 discriminator 3 view .LVU257
 853              		.loc 1 432 3 discriminator 3 view .LVU258
 854 0008 236A     		ldr	r3, [r4, #32]
 855 000a 4BB1     		cbz	r3, .L73
 856              	.L68:
 857              		.loc 1 432 3 discriminator 3 view .LVU259
ARM GAS  C:\Users\86188\AppData\Local\Temp\ccBQr5KG.s 			page 26


 858              		.loc 1 432 3 discriminator 3 view .LVU260
 433:ThirdPackage/lwip220/netif/slipif.c **** 
 434:ThirdPackage/lwip220/netif/slipif.c ****   priv = (struct slipif_priv *)netif->state;
 859              		.loc 1 434 3 discriminator 3 view .LVU261
 860              		.loc 1 434 8 is_stmt 0 discriminator 3 view .LVU262
 861 000c 256A     		ldr	r5, [r4, #32]
 862              	.LVL75:
 435:ThirdPackage/lwip220/netif/slipif.c **** 
 436:ThirdPackage/lwip220/netif/slipif.c ****   while (sio_tryread(priv->sd, &c, 1) > 0) {
 863              		.loc 1 436 3 is_stmt 1 discriminator 3 view .LVU263
 864              		.loc 1 436 9 is_stmt 0 discriminator 3 view .LVU264
 865 000e 14E0     		b	.L69
 866              	.LVL76:
 867              	.L72:
 431:ThirdPackage/lwip220/netif/slipif.c ****   LWIP_ASSERT("netif->state != NULL", (netif->state != NULL));
 868              		.loc 1 431 3 is_stmt 1 discriminator 1 view .LVU265
 431:ThirdPackage/lwip220/netif/slipif.c ****   LWIP_ASSERT("netif->state != NULL", (netif->state != NULL));
 869              		.loc 1 431 3 discriminator 1 view .LVU266
 870 0010 0F4B     		ldr	r3, .L74
 871 0012 40F2AF12 		movw	r2, #431
 872 0016 0F49     		ldr	r1, .L74+4
 873 0018 0F48     		ldr	r0, .L74+8
 874              	.LVL77:
 431:ThirdPackage/lwip220/netif/slipif.c ****   LWIP_ASSERT("netif->state != NULL", (netif->state != NULL));
 875              		.loc 1 431 3 is_stmt 0 discriminator 1 view .LVU267
 876 001a FFF7FEFF 		bl	printf
 877              	.LVL78:
 878 001e F3E7     		b	.L67
 879              	.L73:
 432:ThirdPackage/lwip220/netif/slipif.c **** 
 880              		.loc 1 432 3 is_stmt 1 discriminator 1 view .LVU268
 432:ThirdPackage/lwip220/netif/slipif.c **** 
 881              		.loc 1 432 3 discriminator 1 view .LVU269
 882 0020 0B4B     		ldr	r3, .L74
 883 0022 4FF4D872 		mov	r2, #432
 884 0026 0D49     		ldr	r1, .L74+12
 885 0028 0B48     		ldr	r0, .L74+8
 886 002a FFF7FEFF 		bl	printf
 887              	.LVL79:
 888 002e EDE7     		b	.L68
 889              	.LVL80:
 890              	.L70:
 437:ThirdPackage/lwip220/netif/slipif.c ****     slipif_rxbyte_input(netif, c);
 891              		.loc 1 437 5 view .LVU270
 892 0030 9DF80710 		ldrb	r1, [sp, #7]	@ zero_extendqisi2
 893 0034 2046     		mov	r0, r4
 894 0036 FFF7FEFF 		bl	slipif_rxbyte_input
 895              	.LVL81:
 896              	.L69:
 436:ThirdPackage/lwip220/netif/slipif.c ****     slipif_rxbyte_input(netif, c);
 897              		.loc 1 436 9 view .LVU271
 436:ThirdPackage/lwip220/netif/slipif.c ****     slipif_rxbyte_input(netif, c);
 898              		.loc 1 436 10 is_stmt 0 view .LVU272
 899 003a 0122     		movs	r2, #1
 900 003c 0DF10701 		add	r1, sp, #7
 901 0040 2868     		ldr	r0, [r5]
 902 0042 FFF7FEFF 		bl	sio_tryread
ARM GAS  C:\Users\86188\AppData\Local\Temp\ccBQr5KG.s 			page 27


 903              	.LVL82:
 436:ThirdPackage/lwip220/netif/slipif.c ****     slipif_rxbyte_input(netif, c);
 904              		.loc 1 436 9 view .LVU273
 905 0046 0028     		cmp	r0, #0
 906 0048 F2D1     		bne	.L70
 438:ThirdPackage/lwip220/netif/slipif.c ****   }
 439:ThirdPackage/lwip220/netif/slipif.c **** }
 907              		.loc 1 439 1 view .LVU274
 908 004a 03B0     		add	sp, sp, #12
 909              	.LCFI12:
 910              		.cfi_def_cfa_offset 12
 911              		@ sp needed
 912 004c 30BD     		pop	{r4, r5, pc}
 913              	.LVL83:
 914              	.L75:
 915              		.loc 1 439 1 view .LVU275
 916 004e 00BF     		.align	2
 917              	.L74:
 918 0050 00000000 		.word	.LC0
 919 0054 24000000 		.word	.LC1
 920 0058 34000000 		.word	.LC2
 921 005c 5C000000 		.word	.LC3
 922              		.cfi_endproc
 923              	.LFE166:
 925              		.text
 926              	.Letext0:
 927              		.file 2 "k:\\program files (x86)\\gnu arm embedded toolchain\\10 2021.10\\arm-none-eabi\\include\\
 928              		.file 3 "k:\\program files (x86)\\gnu arm embedded toolchain\\10 2021.10\\arm-none-eabi\\include\\
 929              		.file 4 "k:\\program files (x86)\\gnu arm embedded toolchain\\10 2021.10\\lib\\gcc\\arm-none-eabi\
 930              		.file 5 "ThirdPackage/lwip220/include/lwip/arch.h"
 931              		.file 6 "ThirdPackage/lwip220/include/lwip/err.h"
 932              		.file 7 "ThirdPackage/lwip220/include/lwip/ip4_addr.h"
 933              		.file 8 "ThirdPackage/lwip220/include/lwip/ip_addr.h"
 934              		.file 9 "ThirdPackage/lwip220/include/lwip/pbuf.h"
 935              		.file 10 "ThirdPackage/lwip220/include/lwip/netif.h"
 936              		.file 11 "ThirdPackage/lwip220/include/lwip/sio.h"
 937              		.file 12 "k:\\program files (x86)\\gnu arm embedded toolchain\\10 2021.10\\arm-none-eabi\\include\
 938              		.file 13 "ThirdPackage/lwip220/include/lwip/mem.h"
 939              		.file 14 "ThirdPackage/lwip220/include/lwip/sys.h"
ARM GAS  C:\Users\86188\AppData\Local\Temp\ccBQr5KG.s 			page 28

