ARM GAS  C:\Users\86188\AppData\Local\Temp\cca48a4Y.s 			page 1


   1              		.cpu cortex-m4
   2              		.arch armv7e-m
   3              		.fpu fpv4-sp-d16
   4              		.eabi_attribute 27, 1
   5              		.eabi_attribute 28, 1
   6              		.eabi_attribute 20, 1
   7              		.eabi_attribute 21, 1
   8              		.eabi_attribute 23, 3
   9              		.eabi_attribute 24, 1
  10              		.eabi_attribute 25, 1
  11              		.eabi_attribute 26, 1
  12              		.eabi_attribute 30, 1
  13              		.eabi_attribute 34, 1
  14              		.eabi_attribute 18, 4
  15              		.file	"sockets.c"
  16              		.text
  17              	.Ltext0:
  18              		.cfi_sections	.debug_frame
  19              		.section	.text.tryget_socket_unconn_nouse,"ax",%progbits
  20              		.align	1
  21              		.syntax unified
  22              		.thumb
  23              		.thumb_func
  25              	tryget_socket_unconn_nouse:
  26              	.LVL0:
  27              	.LFB162:
  28              		.file 1 "ThirdPackage/lwip220/api/sockets.c"
   1:ThirdPackage/lwip220/api/sockets.c **** /**
   2:ThirdPackage/lwip220/api/sockets.c ****  * @file
   3:ThirdPackage/lwip220/api/sockets.c ****  * Sockets BSD-Like API module
   4:ThirdPackage/lwip220/api/sockets.c ****  */
   5:ThirdPackage/lwip220/api/sockets.c **** 
   6:ThirdPackage/lwip220/api/sockets.c **** /*
   7:ThirdPackage/lwip220/api/sockets.c ****  * Copyright (c) 2001-2004 Swedish Institute of Computer Science.
   8:ThirdPackage/lwip220/api/sockets.c ****  * All rights reserved.
   9:ThirdPackage/lwip220/api/sockets.c ****  *
  10:ThirdPackage/lwip220/api/sockets.c ****  * Redistribution and use in source and binary forms, with or without modification,
  11:ThirdPackage/lwip220/api/sockets.c ****  * are permitted provided that the following conditions are met:
  12:ThirdPackage/lwip220/api/sockets.c ****  *
  13:ThirdPackage/lwip220/api/sockets.c ****  * 1. Redistributions of source code must retain the above copyright notice,
  14:ThirdPackage/lwip220/api/sockets.c ****  *    this list of conditions and the following disclaimer.
  15:ThirdPackage/lwip220/api/sockets.c ****  * 2. Redistributions in binary form must reproduce the above copyright notice,
  16:ThirdPackage/lwip220/api/sockets.c ****  *    this list of conditions and the following disclaimer in the documentation
  17:ThirdPackage/lwip220/api/sockets.c ****  *    and/or other materials provided with the distribution.
  18:ThirdPackage/lwip220/api/sockets.c ****  * 3. The name of the author may not be used to endorse or promote products
  19:ThirdPackage/lwip220/api/sockets.c ****  *    derived from this software without specific prior written permission.
  20:ThirdPackage/lwip220/api/sockets.c ****  *
  21:ThirdPackage/lwip220/api/sockets.c ****  * THIS SOFTWARE IS PROVIDED BY THE AUTHOR ``AS IS'' AND ANY EXPRESS OR IMPLIED
  22:ThirdPackage/lwip220/api/sockets.c ****  * WARRANTIES, INCLUDING, BUT NOT LIMITED TO, THE IMPLIED WARRANTIES OF
  23:ThirdPackage/lwip220/api/sockets.c ****  * MERCHANTABILITY AND FITNESS FOR A PARTICULAR PURPOSE ARE DISCLAIMED. IN NO EVENT
  24:ThirdPackage/lwip220/api/sockets.c ****  * SHALL THE AUTHOR BE LIABLE FOR ANY DIRECT, INDIRECT, INCIDENTAL, SPECIAL,
  25:ThirdPackage/lwip220/api/sockets.c ****  * EXEMPLARY, OR CONSEQUENTIAL DAMAGES (INCLUDING, BUT NOT LIMITED TO, PROCUREMENT
  26:ThirdPackage/lwip220/api/sockets.c ****  * OF SUBSTITUTE GOODS OR SERVICES; LOSS OF USE, DATA, OR PROFITS; OR BUSINESS
  27:ThirdPackage/lwip220/api/sockets.c ****  * INTERRUPTION) HOWEVER CAUSED AND ON ANY THEORY OF LIABILITY, WHETHER IN
  28:ThirdPackage/lwip220/api/sockets.c ****  * CONTRACT, STRICT LIABILITY, OR TORT (INCLUDING NEGLIGENCE OR OTHERWISE) ARISING
  29:ThirdPackage/lwip220/api/sockets.c ****  * IN ANY WAY OUT OF THE USE OF THIS SOFTWARE, EVEN IF ADVISED OF THE POSSIBILITY
  30:ThirdPackage/lwip220/api/sockets.c ****  * OF SUCH DAMAGE.
ARM GAS  C:\Users\86188\AppData\Local\Temp\cca48a4Y.s 			page 2


  31:ThirdPackage/lwip220/api/sockets.c ****  *
  32:ThirdPackage/lwip220/api/sockets.c ****  * This file is part of the lwIP TCP/IP stack.
  33:ThirdPackage/lwip220/api/sockets.c ****  *
  34:ThirdPackage/lwip220/api/sockets.c ****  * Author: Adam Dunkels <adam@sics.se>
  35:ThirdPackage/lwip220/api/sockets.c ****  *
  36:ThirdPackage/lwip220/api/sockets.c ****  * Improved by Marc Boucher <marc@mbsi.ca> and David Haas <dhaas@alum.rpi.edu>
  37:ThirdPackage/lwip220/api/sockets.c ****  *
  38:ThirdPackage/lwip220/api/sockets.c ****  */
  39:ThirdPackage/lwip220/api/sockets.c **** 
  40:ThirdPackage/lwip220/api/sockets.c **** #include "lwip/opt.h"
  41:ThirdPackage/lwip220/api/sockets.c **** 
  42:ThirdPackage/lwip220/api/sockets.c **** #if LWIP_SOCKET /* don't build if not configured for use in lwipopts.h */
  43:ThirdPackage/lwip220/api/sockets.c **** 
  44:ThirdPackage/lwip220/api/sockets.c **** #include "lwip/sockets.h"
  45:ThirdPackage/lwip220/api/sockets.c **** #include "lwip/priv/sockets_priv.h"
  46:ThirdPackage/lwip220/api/sockets.c **** #include "lwip/api.h"
  47:ThirdPackage/lwip220/api/sockets.c **** #include "lwip/igmp.h"
  48:ThirdPackage/lwip220/api/sockets.c **** #include "lwip/inet.h"
  49:ThirdPackage/lwip220/api/sockets.c **** #include "lwip/tcp.h"
  50:ThirdPackage/lwip220/api/sockets.c **** #include "lwip/raw.h"
  51:ThirdPackage/lwip220/api/sockets.c **** #include "lwip/udp.h"
  52:ThirdPackage/lwip220/api/sockets.c **** #include "lwip/memp.h"
  53:ThirdPackage/lwip220/api/sockets.c **** #include "lwip/pbuf.h"
  54:ThirdPackage/lwip220/api/sockets.c **** #include "lwip/netif.h"
  55:ThirdPackage/lwip220/api/sockets.c **** #include "lwip/priv/tcpip_priv.h"
  56:ThirdPackage/lwip220/api/sockets.c **** #include "lwip/mld6.h"
  57:ThirdPackage/lwip220/api/sockets.c **** #if LWIP_CHECKSUM_ON_COPY
  58:ThirdPackage/lwip220/api/sockets.c **** #include "lwip/inet_chksum.h"
  59:ThirdPackage/lwip220/api/sockets.c **** #endif
  60:ThirdPackage/lwip220/api/sockets.c **** 
  61:ThirdPackage/lwip220/api/sockets.c **** #if LWIP_COMPAT_SOCKETS == 2 && LWIP_POSIX_SOCKETS_IO_NAMES
  62:ThirdPackage/lwip220/api/sockets.c **** #include <stdarg.h>
  63:ThirdPackage/lwip220/api/sockets.c **** #endif
  64:ThirdPackage/lwip220/api/sockets.c **** 
  65:ThirdPackage/lwip220/api/sockets.c **** #include <string.h>
  66:ThirdPackage/lwip220/api/sockets.c **** 
  67:ThirdPackage/lwip220/api/sockets.c **** #ifdef LWIP_HOOK_FILENAME
  68:ThirdPackage/lwip220/api/sockets.c **** #include LWIP_HOOK_FILENAME
  69:ThirdPackage/lwip220/api/sockets.c **** #endif
  70:ThirdPackage/lwip220/api/sockets.c **** 
  71:ThirdPackage/lwip220/api/sockets.c **** /* If the netconn API is not required publicly, then we include the necessary
  72:ThirdPackage/lwip220/api/sockets.c ****    files here to get the implementation */
  73:ThirdPackage/lwip220/api/sockets.c **** #if !LWIP_NETCONN
  74:ThirdPackage/lwip220/api/sockets.c **** #undef LWIP_NETCONN
  75:ThirdPackage/lwip220/api/sockets.c **** #define LWIP_NETCONN 1
  76:ThirdPackage/lwip220/api/sockets.c **** #include "api_msg.c"
  77:ThirdPackage/lwip220/api/sockets.c **** #include "api_lib.c"
  78:ThirdPackage/lwip220/api/sockets.c **** #include "netbuf.c"
  79:ThirdPackage/lwip220/api/sockets.c **** #undef LWIP_NETCONN
  80:ThirdPackage/lwip220/api/sockets.c **** #define LWIP_NETCONN 0
  81:ThirdPackage/lwip220/api/sockets.c **** #endif
  82:ThirdPackage/lwip220/api/sockets.c **** 
  83:ThirdPackage/lwip220/api/sockets.c **** #define API_SELECT_CB_VAR_REF(name)               API_VAR_REF(name)
  84:ThirdPackage/lwip220/api/sockets.c **** #define API_SELECT_CB_VAR_DECLARE(name)           API_VAR_DECLARE(struct lwip_select_cb, name)
  85:ThirdPackage/lwip220/api/sockets.c **** #define API_SELECT_CB_VAR_ALLOC(name, retblock)   API_VAR_ALLOC_EXT(struct lwip_select_cb, MEMP_SEL
  86:ThirdPackage/lwip220/api/sockets.c **** #define API_SELECT_CB_VAR_FREE(name)              API_VAR_FREE(MEMP_SELECT_CB, name)
  87:ThirdPackage/lwip220/api/sockets.c **** 
ARM GAS  C:\Users\86188\AppData\Local\Temp\cca48a4Y.s 			page 3


  88:ThirdPackage/lwip220/api/sockets.c **** #ifndef LWIP_SOCKET_HAVE_SA_LEN
  89:ThirdPackage/lwip220/api/sockets.c **** #define LWIP_SOCKET_HAVE_SA_LEN 0
  90:ThirdPackage/lwip220/api/sockets.c **** #endif /* LWIP_SOCKET_HAVE_SA_LEN */
  91:ThirdPackage/lwip220/api/sockets.c **** 
  92:ThirdPackage/lwip220/api/sockets.c **** /* Address length safe read and write */
  93:ThirdPackage/lwip220/api/sockets.c **** #if LWIP_SOCKET_HAVE_SA_LEN
  94:ThirdPackage/lwip220/api/sockets.c **** 
  95:ThirdPackage/lwip220/api/sockets.c **** #if LWIP_IPV4
  96:ThirdPackage/lwip220/api/sockets.c **** #define IP4ADDR_SOCKADDR_SET_LEN(sin) \
  97:ThirdPackage/lwip220/api/sockets.c ****       (sin)->sin_len = sizeof(struct sockaddr_in)
  98:ThirdPackage/lwip220/api/sockets.c **** #endif /* LWIP_IPV4 */
  99:ThirdPackage/lwip220/api/sockets.c **** 
 100:ThirdPackage/lwip220/api/sockets.c **** #if LWIP_IPV6
 101:ThirdPackage/lwip220/api/sockets.c **** #define IP6ADDR_SOCKADDR_SET_LEN(sin6) \
 102:ThirdPackage/lwip220/api/sockets.c ****       (sin6)->sin6_len = sizeof(struct sockaddr_in6)
 103:ThirdPackage/lwip220/api/sockets.c **** #endif /* LWIP_IPV6 */
 104:ThirdPackage/lwip220/api/sockets.c **** 
 105:ThirdPackage/lwip220/api/sockets.c **** #define IPADDR_SOCKADDR_GET_LEN(addr) \
 106:ThirdPackage/lwip220/api/sockets.c ****       (addr)->sa.sa_len
 107:ThirdPackage/lwip220/api/sockets.c **** 
 108:ThirdPackage/lwip220/api/sockets.c **** #else
 109:ThirdPackage/lwip220/api/sockets.c **** 
 110:ThirdPackage/lwip220/api/sockets.c **** #if LWIP_IPV4
 111:ThirdPackage/lwip220/api/sockets.c **** #define IP4ADDR_SOCKADDR_SET_LEN(addr)
 112:ThirdPackage/lwip220/api/sockets.c **** #endif /* LWIP_IPV4 */
 113:ThirdPackage/lwip220/api/sockets.c **** 
 114:ThirdPackage/lwip220/api/sockets.c **** #if LWIP_IPV6
 115:ThirdPackage/lwip220/api/sockets.c **** #define IP6ADDR_SOCKADDR_SET_LEN(addr)
 116:ThirdPackage/lwip220/api/sockets.c **** #endif /* LWIP_IPV6 */
 117:ThirdPackage/lwip220/api/sockets.c **** 
 118:ThirdPackage/lwip220/api/sockets.c **** #if LWIP_IPV4 && LWIP_IPV6
 119:ThirdPackage/lwip220/api/sockets.c **** #define IPADDR_SOCKADDR_GET_LEN(addr) \
 120:ThirdPackage/lwip220/api/sockets.c ****       ((addr)->sa.sa_family == AF_INET ? sizeof(struct sockaddr_in) \
 121:ThirdPackage/lwip220/api/sockets.c ****         : ((addr)->sa.sa_family == AF_INET6 ? sizeof(struct sockaddr_in6) : 0))
 122:ThirdPackage/lwip220/api/sockets.c **** #elif LWIP_IPV4
 123:ThirdPackage/lwip220/api/sockets.c **** #define IPADDR_SOCKADDR_GET_LEN(addr) sizeof(struct sockaddr_in)
 124:ThirdPackage/lwip220/api/sockets.c **** #elif LWIP_IPV6
 125:ThirdPackage/lwip220/api/sockets.c **** #define IPADDR_SOCKADDR_GET_LEN(addr) sizeof(struct sockaddr_in6)
 126:ThirdPackage/lwip220/api/sockets.c **** #else
 127:ThirdPackage/lwip220/api/sockets.c **** #define IPADDR_SOCKADDR_GET_LEN(addr) sizeof(struct sockaddr)
 128:ThirdPackage/lwip220/api/sockets.c **** #endif /* LWIP_IPV4 && LWIP_IPV6 */
 129:ThirdPackage/lwip220/api/sockets.c **** 
 130:ThirdPackage/lwip220/api/sockets.c **** #endif /* LWIP_SOCKET_HAVE_SA_LEN */
 131:ThirdPackage/lwip220/api/sockets.c **** 
 132:ThirdPackage/lwip220/api/sockets.c **** #if LWIP_IPV4
 133:ThirdPackage/lwip220/api/sockets.c **** #define IP4ADDR_PORT_TO_SOCKADDR(sin, ipaddr, port) do { \
 134:ThirdPackage/lwip220/api/sockets.c ****       IP4ADDR_SOCKADDR_SET_LEN(sin); \
 135:ThirdPackage/lwip220/api/sockets.c ****       (sin)->sin_family = AF_INET; \
 136:ThirdPackage/lwip220/api/sockets.c ****       (sin)->sin_port = lwip_htons((port)); \
 137:ThirdPackage/lwip220/api/sockets.c ****       inet_addr_from_ip4addr(&(sin)->sin_addr, ipaddr); \
 138:ThirdPackage/lwip220/api/sockets.c ****       memset((sin)->sin_zero, 0, SIN_ZERO_LEN); }while(0)
 139:ThirdPackage/lwip220/api/sockets.c **** #define SOCKADDR4_TO_IP4ADDR_PORT(sin, ipaddr, port) do { \
 140:ThirdPackage/lwip220/api/sockets.c ****     inet_addr_to_ip4addr(ip_2_ip4(ipaddr), &((sin)->sin_addr)); \
 141:ThirdPackage/lwip220/api/sockets.c ****     (port) = lwip_ntohs((sin)->sin_port); }while(0)
 142:ThirdPackage/lwip220/api/sockets.c **** #endif /* LWIP_IPV4 */
 143:ThirdPackage/lwip220/api/sockets.c **** 
 144:ThirdPackage/lwip220/api/sockets.c **** #if LWIP_IPV6
ARM GAS  C:\Users\86188\AppData\Local\Temp\cca48a4Y.s 			page 4


 145:ThirdPackage/lwip220/api/sockets.c **** #define IP6ADDR_PORT_TO_SOCKADDR(sin6, ipaddr, port) do { \
 146:ThirdPackage/lwip220/api/sockets.c ****       IP6ADDR_SOCKADDR_SET_LEN(sin6); \
 147:ThirdPackage/lwip220/api/sockets.c ****       (sin6)->sin6_family = AF_INET6; \
 148:ThirdPackage/lwip220/api/sockets.c ****       (sin6)->sin6_port = lwip_htons((port)); \
 149:ThirdPackage/lwip220/api/sockets.c ****       (sin6)->sin6_flowinfo = 0; \
 150:ThirdPackage/lwip220/api/sockets.c ****       inet6_addr_from_ip6addr(&(sin6)->sin6_addr, ipaddr); \
 151:ThirdPackage/lwip220/api/sockets.c ****       (sin6)->sin6_scope_id = ip6_addr_zone(ipaddr); }while(0)
 152:ThirdPackage/lwip220/api/sockets.c **** #define SOCKADDR6_TO_IP6ADDR_PORT(sin6, ipaddr, port) do { \
 153:ThirdPackage/lwip220/api/sockets.c ****     inet6_addr_to_ip6addr(ip_2_ip6(ipaddr), &((sin6)->sin6_addr)); \
 154:ThirdPackage/lwip220/api/sockets.c ****     if (ip6_addr_has_scope(ip_2_ip6(ipaddr), IP6_UNKNOWN)) { \
 155:ThirdPackage/lwip220/api/sockets.c ****       ip6_addr_set_zone(ip_2_ip6(ipaddr), (u8_t)((sin6)->sin6_scope_id)); \
 156:ThirdPackage/lwip220/api/sockets.c ****     } \
 157:ThirdPackage/lwip220/api/sockets.c ****     (port) = lwip_ntohs((sin6)->sin6_port); }while(0)
 158:ThirdPackage/lwip220/api/sockets.c **** #endif /* LWIP_IPV6 */
 159:ThirdPackage/lwip220/api/sockets.c **** 
 160:ThirdPackage/lwip220/api/sockets.c **** #if LWIP_IPV4 && LWIP_IPV6
 161:ThirdPackage/lwip220/api/sockets.c **** static void sockaddr_to_ipaddr_port(const struct sockaddr *sockaddr, ip_addr_t *ipaddr, u16_t *port
 162:ThirdPackage/lwip220/api/sockets.c **** 
 163:ThirdPackage/lwip220/api/sockets.c **** #define IS_SOCK_ADDR_LEN_VALID(namelen)  (((namelen) == sizeof(struct sockaddr_in)) || \
 164:ThirdPackage/lwip220/api/sockets.c ****                                          ((namelen) == sizeof(struct sockaddr_in6)))
 165:ThirdPackage/lwip220/api/sockets.c **** #define IS_SOCK_ADDR_TYPE_VALID(name)    (((name)->sa_family == AF_INET) || \
 166:ThirdPackage/lwip220/api/sockets.c ****                                          ((name)->sa_family == AF_INET6))
 167:ThirdPackage/lwip220/api/sockets.c **** #define SOCK_ADDR_TYPE_MATCH(name, sock) \
 168:ThirdPackage/lwip220/api/sockets.c ****        ((((name)->sa_family == AF_INET) && !(NETCONNTYPE_ISIPV6((sock)->conn->type))) || \
 169:ThirdPackage/lwip220/api/sockets.c ****        (((name)->sa_family == AF_INET6) && (NETCONNTYPE_ISIPV6((sock)->conn->type))))
 170:ThirdPackage/lwip220/api/sockets.c **** #define IPADDR_PORT_TO_SOCKADDR(sockaddr, ipaddr, port) do { \
 171:ThirdPackage/lwip220/api/sockets.c ****     if (IP_IS_ANY_TYPE_VAL(*ipaddr) || IP_IS_V6_VAL(*ipaddr)) { \
 172:ThirdPackage/lwip220/api/sockets.c ****       IP6ADDR_PORT_TO_SOCKADDR((struct sockaddr_in6*)(void*)(sockaddr), ip_2_ip6(ipaddr), port); \
 173:ThirdPackage/lwip220/api/sockets.c ****     } else { \
 174:ThirdPackage/lwip220/api/sockets.c ****       IP4ADDR_PORT_TO_SOCKADDR((struct sockaddr_in*)(void*)(sockaddr), ip_2_ip4(ipaddr), port); \
 175:ThirdPackage/lwip220/api/sockets.c ****     } } while(0)
 176:ThirdPackage/lwip220/api/sockets.c **** #define SOCKADDR_TO_IPADDR_PORT(sockaddr, ipaddr, port) sockaddr_to_ipaddr_port(sockaddr, ipaddr, &
 177:ThirdPackage/lwip220/api/sockets.c **** #define DOMAIN_TO_NETCONN_TYPE(domain, type) (((domain) == AF_INET) ? \
 178:ThirdPackage/lwip220/api/sockets.c ****   (type) : (enum netconn_type)((type) | NETCONN_TYPE_IPV6))
 179:ThirdPackage/lwip220/api/sockets.c **** #elif LWIP_IPV6 /* LWIP_IPV4 && LWIP_IPV6 */
 180:ThirdPackage/lwip220/api/sockets.c **** #define IS_SOCK_ADDR_LEN_VALID(namelen)  ((namelen) == sizeof(struct sockaddr_in6))
 181:ThirdPackage/lwip220/api/sockets.c **** #define IS_SOCK_ADDR_TYPE_VALID(name)    ((name)->sa_family == AF_INET6)
 182:ThirdPackage/lwip220/api/sockets.c **** #define SOCK_ADDR_TYPE_MATCH(name, sock) 1
 183:ThirdPackage/lwip220/api/sockets.c **** #define IPADDR_PORT_TO_SOCKADDR(sockaddr, ipaddr, port) \
 184:ThirdPackage/lwip220/api/sockets.c ****         IP6ADDR_PORT_TO_SOCKADDR((struct sockaddr_in6*)(void*)(sockaddr), ip_2_ip6(ipaddr), port)
 185:ThirdPackage/lwip220/api/sockets.c **** #define SOCKADDR_TO_IPADDR_PORT(sockaddr, ipaddr, port) \
 186:ThirdPackage/lwip220/api/sockets.c ****         SOCKADDR6_TO_IP6ADDR_PORT((const struct sockaddr_in6*)(const void*)(sockaddr), ipaddr, port
 187:ThirdPackage/lwip220/api/sockets.c **** #define DOMAIN_TO_NETCONN_TYPE(domain, netconn_type) (netconn_type)
 188:ThirdPackage/lwip220/api/sockets.c **** #else /*-> LWIP_IPV4: LWIP_IPV4 && LWIP_IPV6 */
 189:ThirdPackage/lwip220/api/sockets.c **** #define IS_SOCK_ADDR_LEN_VALID(namelen)  ((namelen) == sizeof(struct sockaddr_in))
 190:ThirdPackage/lwip220/api/sockets.c **** #define IS_SOCK_ADDR_TYPE_VALID(name)    ((name)->sa_family == AF_INET)
 191:ThirdPackage/lwip220/api/sockets.c **** #define SOCK_ADDR_TYPE_MATCH(name, sock) 1
 192:ThirdPackage/lwip220/api/sockets.c **** #define IPADDR_PORT_TO_SOCKADDR(sockaddr, ipaddr, port) \
 193:ThirdPackage/lwip220/api/sockets.c ****         IP4ADDR_PORT_TO_SOCKADDR((struct sockaddr_in*)(void*)(sockaddr), ip_2_ip4(ipaddr), port)
 194:ThirdPackage/lwip220/api/sockets.c **** #define SOCKADDR_TO_IPADDR_PORT(sockaddr, ipaddr, port) \
 195:ThirdPackage/lwip220/api/sockets.c ****         SOCKADDR4_TO_IP4ADDR_PORT((const struct sockaddr_in*)(const void*)(sockaddr), ipaddr, port)
 196:ThirdPackage/lwip220/api/sockets.c **** #define DOMAIN_TO_NETCONN_TYPE(domain, netconn_type) (netconn_type)
 197:ThirdPackage/lwip220/api/sockets.c **** #endif /* LWIP_IPV6 */
 198:ThirdPackage/lwip220/api/sockets.c **** 
 199:ThirdPackage/lwip220/api/sockets.c **** #define IS_SOCK_ADDR_TYPE_VALID_OR_UNSPEC(name)    (((name)->sa_family == AF_UNSPEC) || \
 200:ThirdPackage/lwip220/api/sockets.c ****                                                     IS_SOCK_ADDR_TYPE_VALID(name))
 201:ThirdPackage/lwip220/api/sockets.c **** #define SOCK_ADDR_TYPE_MATCH_OR_UNSPEC(name, sock) (((name)->sa_family == AF_UNSPEC) || \
ARM GAS  C:\Users\86188\AppData\Local\Temp\cca48a4Y.s 			page 5


 202:ThirdPackage/lwip220/api/sockets.c ****                                                     SOCK_ADDR_TYPE_MATCH(name, sock))
 203:ThirdPackage/lwip220/api/sockets.c **** #define IS_SOCK_ADDR_ALIGNED(name)      ((((mem_ptr_t)(name)) % LWIP_MIN(4, MEM_ALIGNMENT)) == 0)
 204:ThirdPackage/lwip220/api/sockets.c **** 
 205:ThirdPackage/lwip220/api/sockets.c **** 
 206:ThirdPackage/lwip220/api/sockets.c **** #define LWIP_SOCKOPT_CHECK_OPTLEN(sock, optlen, opttype) do { if ((optlen) < sizeof(opttype)) { don
 207:ThirdPackage/lwip220/api/sockets.c **** #define LWIP_SOCKOPT_CHECK_OPTLEN_CONN(sock, optlen, opttype) do { \
 208:ThirdPackage/lwip220/api/sockets.c ****   LWIP_SOCKOPT_CHECK_OPTLEN(sock, optlen, opttype); \
 209:ThirdPackage/lwip220/api/sockets.c ****   if ((sock)->conn == NULL) { done_socket(sock); return EINVAL; } }while(0)
 210:ThirdPackage/lwip220/api/sockets.c **** #define LWIP_SOCKOPT_CHECK_OPTLEN_CONN_PCB(sock, optlen, opttype) do { \
 211:ThirdPackage/lwip220/api/sockets.c ****   LWIP_SOCKOPT_CHECK_OPTLEN(sock, optlen, opttype); \
 212:ThirdPackage/lwip220/api/sockets.c ****   if (((sock)->conn == NULL) || ((sock)->conn->pcb.tcp == NULL)) { done_socket(sock); return EINVAL
 213:ThirdPackage/lwip220/api/sockets.c **** #define LWIP_SOCKOPT_CHECK_OPTLEN_CONN_PCB_TYPE(sock, optlen, opttype, netconntype) do { \
 214:ThirdPackage/lwip220/api/sockets.c ****   LWIP_SOCKOPT_CHECK_OPTLEN_CONN_PCB(sock, optlen, opttype); \
 215:ThirdPackage/lwip220/api/sockets.c ****   if (NETCONNTYPE_GROUP(netconn_type((sock)->conn)) != netconntype) { done_socket(sock); return ENO
 216:ThirdPackage/lwip220/api/sockets.c **** 
 217:ThirdPackage/lwip220/api/sockets.c **** 
 218:ThirdPackage/lwip220/api/sockets.c **** #define LWIP_SETGETSOCKOPT_DATA_VAR_REF(name)     API_VAR_REF(name)
 219:ThirdPackage/lwip220/api/sockets.c **** #define LWIP_SETGETSOCKOPT_DATA_VAR_DECLARE(name) API_VAR_DECLARE(struct lwip_setgetsockopt_data, n
 220:ThirdPackage/lwip220/api/sockets.c **** #define LWIP_SETGETSOCKOPT_DATA_VAR_FREE(name)    API_VAR_FREE(MEMP_SOCKET_SETGETSOCKOPT_DATA, name
 221:ThirdPackage/lwip220/api/sockets.c **** #if LWIP_MPU_COMPATIBLE
 222:ThirdPackage/lwip220/api/sockets.c **** #define LWIP_SETGETSOCKOPT_DATA_VAR_ALLOC(name, sock) do { \
 223:ThirdPackage/lwip220/api/sockets.c ****   name = (struct lwip_setgetsockopt_data *)memp_malloc(MEMP_SOCKET_SETGETSOCKOPT_DATA); \
 224:ThirdPackage/lwip220/api/sockets.c ****   if (name == NULL) { \
 225:ThirdPackage/lwip220/api/sockets.c ****     set_errno(ENOMEM); \
 226:ThirdPackage/lwip220/api/sockets.c ****     done_socket(sock); \
 227:ThirdPackage/lwip220/api/sockets.c ****     return -1; \
 228:ThirdPackage/lwip220/api/sockets.c ****   } }while(0)
 229:ThirdPackage/lwip220/api/sockets.c **** #else /* LWIP_MPU_COMPATIBLE */
 230:ThirdPackage/lwip220/api/sockets.c **** #define LWIP_SETGETSOCKOPT_DATA_VAR_ALLOC(name, sock)
 231:ThirdPackage/lwip220/api/sockets.c **** #endif /* LWIP_MPU_COMPATIBLE */
 232:ThirdPackage/lwip220/api/sockets.c **** 
 233:ThirdPackage/lwip220/api/sockets.c **** #if LWIP_SO_SNDRCVTIMEO_NONSTANDARD
 234:ThirdPackage/lwip220/api/sockets.c **** #define LWIP_SO_SNDRCVTIMEO_OPTTYPE int
 235:ThirdPackage/lwip220/api/sockets.c **** #define LWIP_SO_SNDRCVTIMEO_SET(optval, val) (*(int *)(optval) = (val))
 236:ThirdPackage/lwip220/api/sockets.c **** #define LWIP_SO_SNDRCVTIMEO_GET_MS(optval)   ((long)*(const int*)(optval))
 237:ThirdPackage/lwip220/api/sockets.c **** #else
 238:ThirdPackage/lwip220/api/sockets.c **** #define LWIP_SO_SNDRCVTIMEO_OPTTYPE struct timeval
 239:ThirdPackage/lwip220/api/sockets.c **** #define LWIP_SO_SNDRCVTIMEO_SET(optval, val)  do { \
 240:ThirdPackage/lwip220/api/sockets.c ****   u32_t loc = (val); \
 241:ThirdPackage/lwip220/api/sockets.c ****   ((struct timeval *)(optval))->tv_sec = (long)((loc) / 1000U); \
 242:ThirdPackage/lwip220/api/sockets.c ****   ((struct timeval *)(optval))->tv_usec = (long)(((loc) % 1000U) * 1000U); }while(0)
 243:ThirdPackage/lwip220/api/sockets.c **** #define LWIP_SO_SNDRCVTIMEO_GET_MS(optval) ((((const struct timeval *)(optval))->tv_sec * 1000) + (
 244:ThirdPackage/lwip220/api/sockets.c **** #endif
 245:ThirdPackage/lwip220/api/sockets.c **** 
 246:ThirdPackage/lwip220/api/sockets.c **** 
 247:ThirdPackage/lwip220/api/sockets.c **** /** A struct sockaddr replacement that has the same alignment as sockaddr_in/
 248:ThirdPackage/lwip220/api/sockets.c ****  *  sockaddr_in6 if instantiated.
 249:ThirdPackage/lwip220/api/sockets.c ****  */
 250:ThirdPackage/lwip220/api/sockets.c **** union sockaddr_aligned {
 251:ThirdPackage/lwip220/api/sockets.c ****   struct sockaddr sa;
 252:ThirdPackage/lwip220/api/sockets.c **** #if LWIP_IPV6
 253:ThirdPackage/lwip220/api/sockets.c ****   struct sockaddr_in6 sin6;
 254:ThirdPackage/lwip220/api/sockets.c **** #endif /* LWIP_IPV6 */
 255:ThirdPackage/lwip220/api/sockets.c **** #if LWIP_IPV4
 256:ThirdPackage/lwip220/api/sockets.c ****   struct sockaddr_in sin;
 257:ThirdPackage/lwip220/api/sockets.c **** #endif /* LWIP_IPV4 */
 258:ThirdPackage/lwip220/api/sockets.c **** };
ARM GAS  C:\Users\86188\AppData\Local\Temp\cca48a4Y.s 			page 6


 259:ThirdPackage/lwip220/api/sockets.c **** 
 260:ThirdPackage/lwip220/api/sockets.c **** /* Define the number of IPv4 multicast memberships, default is one per socket */
 261:ThirdPackage/lwip220/api/sockets.c **** #ifndef LWIP_SOCKET_MAX_MEMBERSHIPS
 262:ThirdPackage/lwip220/api/sockets.c **** #define LWIP_SOCKET_MAX_MEMBERSHIPS NUM_SOCKETS
 263:ThirdPackage/lwip220/api/sockets.c **** #endif
 264:ThirdPackage/lwip220/api/sockets.c **** 
 265:ThirdPackage/lwip220/api/sockets.c **** #if LWIP_IGMP
 266:ThirdPackage/lwip220/api/sockets.c **** /* This is to keep track of IP_ADD_MEMBERSHIP calls to drop the membership when
 267:ThirdPackage/lwip220/api/sockets.c ****    a socket is closed */
 268:ThirdPackage/lwip220/api/sockets.c **** struct lwip_socket_multicast_pair {
 269:ThirdPackage/lwip220/api/sockets.c ****   /** the socket */
 270:ThirdPackage/lwip220/api/sockets.c ****   struct lwip_sock *sock;
 271:ThirdPackage/lwip220/api/sockets.c ****   /** the interface address */
 272:ThirdPackage/lwip220/api/sockets.c ****   ip4_addr_t if_addr;
 273:ThirdPackage/lwip220/api/sockets.c ****   /** the group address */
 274:ThirdPackage/lwip220/api/sockets.c ****   ip4_addr_t multi_addr;
 275:ThirdPackage/lwip220/api/sockets.c **** };
 276:ThirdPackage/lwip220/api/sockets.c **** 
 277:ThirdPackage/lwip220/api/sockets.c **** static struct lwip_socket_multicast_pair socket_ipv4_multicast_memberships[LWIP_SOCKET_MAX_MEMBERSH
 278:ThirdPackage/lwip220/api/sockets.c **** 
 279:ThirdPackage/lwip220/api/sockets.c **** static int  lwip_socket_register_membership(int s, const ip4_addr_t *if_addr, const ip4_addr_t *mul
 280:ThirdPackage/lwip220/api/sockets.c **** static void lwip_socket_unregister_membership(int s, const ip4_addr_t *if_addr, const ip4_addr_t *m
 281:ThirdPackage/lwip220/api/sockets.c **** static void lwip_socket_drop_registered_memberships(int s);
 282:ThirdPackage/lwip220/api/sockets.c **** #endif /* LWIP_IGMP */
 283:ThirdPackage/lwip220/api/sockets.c **** 
 284:ThirdPackage/lwip220/api/sockets.c **** #if LWIP_IPV6_MLD
 285:ThirdPackage/lwip220/api/sockets.c **** /* This is to keep track of IP_JOIN_GROUP calls to drop the membership when
 286:ThirdPackage/lwip220/api/sockets.c ****    a socket is closed */
 287:ThirdPackage/lwip220/api/sockets.c **** struct lwip_socket_multicast_mld6_pair {
 288:ThirdPackage/lwip220/api/sockets.c ****   /** the socket */
 289:ThirdPackage/lwip220/api/sockets.c ****   struct lwip_sock *sock;
 290:ThirdPackage/lwip220/api/sockets.c ****   /** the interface index */
 291:ThirdPackage/lwip220/api/sockets.c ****   u8_t if_idx;
 292:ThirdPackage/lwip220/api/sockets.c ****   /** the group address */
 293:ThirdPackage/lwip220/api/sockets.c ****   ip6_addr_t multi_addr;
 294:ThirdPackage/lwip220/api/sockets.c **** };
 295:ThirdPackage/lwip220/api/sockets.c **** 
 296:ThirdPackage/lwip220/api/sockets.c **** static struct lwip_socket_multicast_mld6_pair socket_ipv6_multicast_memberships[LWIP_SOCKET_MAX_MEM
 297:ThirdPackage/lwip220/api/sockets.c **** 
 298:ThirdPackage/lwip220/api/sockets.c **** static int  lwip_socket_register_mld6_membership(int s, unsigned int if_idx, const ip6_addr_t *mult
 299:ThirdPackage/lwip220/api/sockets.c **** static void lwip_socket_unregister_mld6_membership(int s, unsigned int if_idx, const ip6_addr_t *mu
 300:ThirdPackage/lwip220/api/sockets.c **** static void lwip_socket_drop_registered_mld6_memberships(int s);
 301:ThirdPackage/lwip220/api/sockets.c **** #endif /* LWIP_IPV6_MLD */
 302:ThirdPackage/lwip220/api/sockets.c **** 
 303:ThirdPackage/lwip220/api/sockets.c **** /** The global array of available sockets */
 304:ThirdPackage/lwip220/api/sockets.c **** static struct lwip_sock sockets[NUM_SOCKETS];
 305:ThirdPackage/lwip220/api/sockets.c **** 
 306:ThirdPackage/lwip220/api/sockets.c **** #if LWIP_SOCKET_SELECT || LWIP_SOCKET_POLL
 307:ThirdPackage/lwip220/api/sockets.c **** #if LWIP_TCPIP_CORE_LOCKING
 308:ThirdPackage/lwip220/api/sockets.c **** /* protect the select_cb_list using core lock */
 309:ThirdPackage/lwip220/api/sockets.c **** #define LWIP_SOCKET_SELECT_DECL_PROTECT(lev)
 310:ThirdPackage/lwip220/api/sockets.c **** #define LWIP_SOCKET_SELECT_PROTECT(lev)   LOCK_TCPIP_CORE()
 311:ThirdPackage/lwip220/api/sockets.c **** #define LWIP_SOCKET_SELECT_UNPROTECT(lev) UNLOCK_TCPIP_CORE()
 312:ThirdPackage/lwip220/api/sockets.c **** #else /* LWIP_TCPIP_CORE_LOCKING */
 313:ThirdPackage/lwip220/api/sockets.c **** /* protect the select_cb_list using SYS_LIGHTWEIGHT_PROT */
 314:ThirdPackage/lwip220/api/sockets.c **** #define LWIP_SOCKET_SELECT_DECL_PROTECT(lev)  SYS_ARCH_DECL_PROTECT(lev)
 315:ThirdPackage/lwip220/api/sockets.c **** #define LWIP_SOCKET_SELECT_PROTECT(lev)       SYS_ARCH_PROTECT(lev)
ARM GAS  C:\Users\86188\AppData\Local\Temp\cca48a4Y.s 			page 7


 316:ThirdPackage/lwip220/api/sockets.c **** #define LWIP_SOCKET_SELECT_UNPROTECT(lev)     SYS_ARCH_UNPROTECT(lev)
 317:ThirdPackage/lwip220/api/sockets.c **** /** This counter is increased from lwip_select when the list is changed
 318:ThirdPackage/lwip220/api/sockets.c ****     and checked in select_check_waiters to see if it has changed. */
 319:ThirdPackage/lwip220/api/sockets.c **** static volatile int select_cb_ctr;
 320:ThirdPackage/lwip220/api/sockets.c **** #endif /* LWIP_TCPIP_CORE_LOCKING */
 321:ThirdPackage/lwip220/api/sockets.c **** /** The global list of tasks waiting for select */
 322:ThirdPackage/lwip220/api/sockets.c **** static struct lwip_select_cb *select_cb_list;
 323:ThirdPackage/lwip220/api/sockets.c **** #endif /* LWIP_SOCKET_SELECT || LWIP_SOCKET_POLL */
 324:ThirdPackage/lwip220/api/sockets.c **** 
 325:ThirdPackage/lwip220/api/sockets.c **** /* Forward declaration of some functions */
 326:ThirdPackage/lwip220/api/sockets.c **** #if LWIP_SOCKET_SELECT || LWIP_SOCKET_POLL
 327:ThirdPackage/lwip220/api/sockets.c **** static void event_callback(struct netconn *conn, enum netconn_evt evt, u16_t len);
 328:ThirdPackage/lwip220/api/sockets.c **** #define DEFAULT_SOCKET_EVENTCB event_callback
 329:ThirdPackage/lwip220/api/sockets.c **** static void select_check_waiters(int s, int has_recvevent, int has_sendevent, int has_errevent);
 330:ThirdPackage/lwip220/api/sockets.c **** #else
 331:ThirdPackage/lwip220/api/sockets.c **** #define DEFAULT_SOCKET_EVENTCB NULL
 332:ThirdPackage/lwip220/api/sockets.c **** #endif
 333:ThirdPackage/lwip220/api/sockets.c **** #if !LWIP_TCPIP_CORE_LOCKING
 334:ThirdPackage/lwip220/api/sockets.c **** static void lwip_getsockopt_callback(void *arg);
 335:ThirdPackage/lwip220/api/sockets.c **** static void lwip_setsockopt_callback(void *arg);
 336:ThirdPackage/lwip220/api/sockets.c **** #endif
 337:ThirdPackage/lwip220/api/sockets.c **** static int lwip_getsockopt_impl(int s, int level, int optname, void *optval, socklen_t *optlen);
 338:ThirdPackage/lwip220/api/sockets.c **** static int lwip_setsockopt_impl(int s, int level, int optname, const void *optval, socklen_t optlen
 339:ThirdPackage/lwip220/api/sockets.c **** static int free_socket_locked(struct lwip_sock *sock, int is_tcp, struct netconn **conn,
 340:ThirdPackage/lwip220/api/sockets.c ****                               union lwip_sock_lastdata *lastdata);
 341:ThirdPackage/lwip220/api/sockets.c **** static void free_socket_free_elements(int is_tcp, struct netconn *conn, union lwip_sock_lastdata *l
 342:ThirdPackage/lwip220/api/sockets.c **** 
 343:ThirdPackage/lwip220/api/sockets.c **** #if LWIP_IPV4 && LWIP_IPV6
 344:ThirdPackage/lwip220/api/sockets.c **** static void
 345:ThirdPackage/lwip220/api/sockets.c **** sockaddr_to_ipaddr_port(const struct sockaddr *sockaddr, ip_addr_t *ipaddr, u16_t *port)
 346:ThirdPackage/lwip220/api/sockets.c **** {
 347:ThirdPackage/lwip220/api/sockets.c ****   if ((sockaddr->sa_family) == AF_INET6) {
 348:ThirdPackage/lwip220/api/sockets.c ****     SOCKADDR6_TO_IP6ADDR_PORT((const struct sockaddr_in6 *)(const void *)(sockaddr), ipaddr, *port)
 349:ThirdPackage/lwip220/api/sockets.c ****     ipaddr->type = IPADDR_TYPE_V6;
 350:ThirdPackage/lwip220/api/sockets.c ****   } else {
 351:ThirdPackage/lwip220/api/sockets.c ****     SOCKADDR4_TO_IP4ADDR_PORT((const struct sockaddr_in *)(const void *)(sockaddr), ipaddr, *port);
 352:ThirdPackage/lwip220/api/sockets.c ****     ipaddr->type = IPADDR_TYPE_V4;
 353:ThirdPackage/lwip220/api/sockets.c ****   }
 354:ThirdPackage/lwip220/api/sockets.c **** }
 355:ThirdPackage/lwip220/api/sockets.c **** #endif /* LWIP_IPV4 && LWIP_IPV6 */
 356:ThirdPackage/lwip220/api/sockets.c **** 
 357:ThirdPackage/lwip220/api/sockets.c **** /** LWIP_NETCONN_SEM_PER_THREAD==1: initialize thread-local semaphore */
 358:ThirdPackage/lwip220/api/sockets.c **** void
 359:ThirdPackage/lwip220/api/sockets.c **** lwip_socket_thread_init(void)
 360:ThirdPackage/lwip220/api/sockets.c **** {
 361:ThirdPackage/lwip220/api/sockets.c ****   netconn_thread_init();
 362:ThirdPackage/lwip220/api/sockets.c **** }
 363:ThirdPackage/lwip220/api/sockets.c **** 
 364:ThirdPackage/lwip220/api/sockets.c **** /** LWIP_NETCONN_SEM_PER_THREAD==1: destroy thread-local semaphore */
 365:ThirdPackage/lwip220/api/sockets.c **** void
 366:ThirdPackage/lwip220/api/sockets.c **** lwip_socket_thread_cleanup(void)
 367:ThirdPackage/lwip220/api/sockets.c **** {
 368:ThirdPackage/lwip220/api/sockets.c ****   netconn_thread_cleanup();
 369:ThirdPackage/lwip220/api/sockets.c **** }
 370:ThirdPackage/lwip220/api/sockets.c **** 
 371:ThirdPackage/lwip220/api/sockets.c **** #if LWIP_NETCONN_FULLDUPLEX
 372:ThirdPackage/lwip220/api/sockets.c **** /* Thread-safe increment of sock->fd_used, with overflow check */
ARM GAS  C:\Users\86188\AppData\Local\Temp\cca48a4Y.s 			page 8


 373:ThirdPackage/lwip220/api/sockets.c **** static int
 374:ThirdPackage/lwip220/api/sockets.c **** sock_inc_used(struct lwip_sock *sock)
 375:ThirdPackage/lwip220/api/sockets.c **** {
 376:ThirdPackage/lwip220/api/sockets.c ****   int ret;
 377:ThirdPackage/lwip220/api/sockets.c ****   SYS_ARCH_DECL_PROTECT(lev);
 378:ThirdPackage/lwip220/api/sockets.c **** 
 379:ThirdPackage/lwip220/api/sockets.c ****   LWIP_ASSERT("sock != NULL", sock != NULL);
 380:ThirdPackage/lwip220/api/sockets.c **** 
 381:ThirdPackage/lwip220/api/sockets.c ****   SYS_ARCH_PROTECT(lev);
 382:ThirdPackage/lwip220/api/sockets.c ****   if (sock->fd_free_pending) {
 383:ThirdPackage/lwip220/api/sockets.c ****     /* prevent new usage of this socket if free is pending */
 384:ThirdPackage/lwip220/api/sockets.c ****     ret = 0;
 385:ThirdPackage/lwip220/api/sockets.c ****   } else {
 386:ThirdPackage/lwip220/api/sockets.c ****     ++sock->fd_used;
 387:ThirdPackage/lwip220/api/sockets.c ****     ret = 1;
 388:ThirdPackage/lwip220/api/sockets.c ****     LWIP_ASSERT("sock->fd_used != 0", sock->fd_used != 0);
 389:ThirdPackage/lwip220/api/sockets.c ****   }
 390:ThirdPackage/lwip220/api/sockets.c ****   SYS_ARCH_UNPROTECT(lev);
 391:ThirdPackage/lwip220/api/sockets.c ****   return ret;
 392:ThirdPackage/lwip220/api/sockets.c **** }
 393:ThirdPackage/lwip220/api/sockets.c **** 
 394:ThirdPackage/lwip220/api/sockets.c **** /* Like sock_inc_used(), but called under SYS_ARCH_PROTECT lock. */
 395:ThirdPackage/lwip220/api/sockets.c **** static int
 396:ThirdPackage/lwip220/api/sockets.c **** sock_inc_used_locked(struct lwip_sock *sock)
 397:ThirdPackage/lwip220/api/sockets.c **** {
 398:ThirdPackage/lwip220/api/sockets.c ****   LWIP_ASSERT("sock != NULL", sock != NULL);
 399:ThirdPackage/lwip220/api/sockets.c **** 
 400:ThirdPackage/lwip220/api/sockets.c ****   if (sock->fd_free_pending) {
 401:ThirdPackage/lwip220/api/sockets.c ****     LWIP_ASSERT("sock->fd_used != 0", sock->fd_used != 0);
 402:ThirdPackage/lwip220/api/sockets.c ****     return 0;
 403:ThirdPackage/lwip220/api/sockets.c ****   }
 404:ThirdPackage/lwip220/api/sockets.c **** 
 405:ThirdPackage/lwip220/api/sockets.c ****   ++sock->fd_used;
 406:ThirdPackage/lwip220/api/sockets.c ****   LWIP_ASSERT("sock->fd_used != 0", sock->fd_used != 0);
 407:ThirdPackage/lwip220/api/sockets.c ****   return 1;
 408:ThirdPackage/lwip220/api/sockets.c **** }
 409:ThirdPackage/lwip220/api/sockets.c **** 
 410:ThirdPackage/lwip220/api/sockets.c **** /* In full-duplex mode,sock->fd_used != 0 prevents a socket descriptor from being
 411:ThirdPackage/lwip220/api/sockets.c ****  * released (and possibly reused) when used from more than one thread
 412:ThirdPackage/lwip220/api/sockets.c ****  * (e.g. read-while-write or close-while-write, etc)
 413:ThirdPackage/lwip220/api/sockets.c ****  * This function is called at the end of functions using (try)get_socket*().
 414:ThirdPackage/lwip220/api/sockets.c ****  */
 415:ThirdPackage/lwip220/api/sockets.c **** static void
 416:ThirdPackage/lwip220/api/sockets.c **** done_socket(struct lwip_sock *sock)
 417:ThirdPackage/lwip220/api/sockets.c **** {
 418:ThirdPackage/lwip220/api/sockets.c ****   int freed = 0;
 419:ThirdPackage/lwip220/api/sockets.c ****   int is_tcp = 0;
 420:ThirdPackage/lwip220/api/sockets.c ****   struct netconn *conn = NULL;
 421:ThirdPackage/lwip220/api/sockets.c ****   union lwip_sock_lastdata lastdata;
 422:ThirdPackage/lwip220/api/sockets.c ****   SYS_ARCH_DECL_PROTECT(lev);
 423:ThirdPackage/lwip220/api/sockets.c ****   LWIP_ASSERT("sock != NULL", sock != NULL);
 424:ThirdPackage/lwip220/api/sockets.c **** 
 425:ThirdPackage/lwip220/api/sockets.c ****   SYS_ARCH_PROTECT(lev);
 426:ThirdPackage/lwip220/api/sockets.c ****   LWIP_ASSERT("sock->fd_used > 0", sock->fd_used > 0);
 427:ThirdPackage/lwip220/api/sockets.c ****   if (--sock->fd_used == 0) {
 428:ThirdPackage/lwip220/api/sockets.c ****     if (sock->fd_free_pending) {
 429:ThirdPackage/lwip220/api/sockets.c ****       /* free the socket */
ARM GAS  C:\Users\86188\AppData\Local\Temp\cca48a4Y.s 			page 9


 430:ThirdPackage/lwip220/api/sockets.c ****       sock->fd_used = 1;
 431:ThirdPackage/lwip220/api/sockets.c ****       is_tcp = sock->fd_free_pending & LWIP_SOCK_FD_FREE_TCP;
 432:ThirdPackage/lwip220/api/sockets.c ****       freed = free_socket_locked(sock, is_tcp, &conn, &lastdata);
 433:ThirdPackage/lwip220/api/sockets.c ****     }
 434:ThirdPackage/lwip220/api/sockets.c ****   }
 435:ThirdPackage/lwip220/api/sockets.c ****   SYS_ARCH_UNPROTECT(lev);
 436:ThirdPackage/lwip220/api/sockets.c **** 
 437:ThirdPackage/lwip220/api/sockets.c ****   if (freed) {
 438:ThirdPackage/lwip220/api/sockets.c ****     free_socket_free_elements(is_tcp, conn, &lastdata);
 439:ThirdPackage/lwip220/api/sockets.c ****   }
 440:ThirdPackage/lwip220/api/sockets.c **** }
 441:ThirdPackage/lwip220/api/sockets.c **** 
 442:ThirdPackage/lwip220/api/sockets.c **** #else /* LWIP_NETCONN_FULLDUPLEX */
 443:ThirdPackage/lwip220/api/sockets.c **** #define sock_inc_used(sock)         1
 444:ThirdPackage/lwip220/api/sockets.c **** #define sock_inc_used_locked(sock)  1
 445:ThirdPackage/lwip220/api/sockets.c **** #define done_socket(sock)
 446:ThirdPackage/lwip220/api/sockets.c **** #endif /* LWIP_NETCONN_FULLDUPLEX */
 447:ThirdPackage/lwip220/api/sockets.c **** 
 448:ThirdPackage/lwip220/api/sockets.c **** /* Translate a socket 'int' into a pointer (only fails if the index is invalid) */
 449:ThirdPackage/lwip220/api/sockets.c **** static struct lwip_sock *
 450:ThirdPackage/lwip220/api/sockets.c **** tryget_socket_unconn_nouse(int fd)
 451:ThirdPackage/lwip220/api/sockets.c **** {
  29              		.loc 1 451 1 view -0
  30              		.cfi_startproc
  31              		@ args = 0, pretend = 0, frame = 0
  32              		@ frame_needed = 0, uses_anonymous_args = 0
  33              		@ link register save eliminated.
 452:ThirdPackage/lwip220/api/sockets.c ****   int s = fd - LWIP_SOCKET_OFFSET;
  34              		.loc 1 452 3 view .LVU1
 453:ThirdPackage/lwip220/api/sockets.c ****   if ((s < 0) || (s >= NUM_SOCKETS)) {
  35              		.loc 1 453 3 view .LVU2
  36              		.loc 1 453 6 is_stmt 0 view .LVU3
  37 0000 0328     		cmp	r0, #3
  38 0002 03D8     		bhi	.L3
 454:ThirdPackage/lwip220/api/sockets.c ****     LWIP_DEBUGF(SOCKETS_DEBUG, ("tryget_socket_unconn(%d): invalid\n", fd));
 455:ThirdPackage/lwip220/api/sockets.c ****     return NULL;
 456:ThirdPackage/lwip220/api/sockets.c ****   }
 457:ThirdPackage/lwip220/api/sockets.c ****   return &sockets[s];
  39              		.loc 1 457 3 is_stmt 1 view .LVU4
  40              		.loc 1 457 10 is_stmt 0 view .LVU5
  41 0004 024B     		ldr	r3, .L4
  42 0006 03EB0010 		add	r0, r3, r0, lsl #4
  43              	.LVL1:
  44              		.loc 1 457 10 view .LVU6
  45 000a 7047     		bx	lr
  46              	.LVL2:
  47              	.L3:
 455:ThirdPackage/lwip220/api/sockets.c ****   }
  48              		.loc 1 455 12 view .LVU7
  49 000c 0020     		movs	r0, #0
  50              	.LVL3:
 458:ThirdPackage/lwip220/api/sockets.c **** }
  51              		.loc 1 458 1 view .LVU8
  52 000e 7047     		bx	lr
  53              	.L5:
  54              		.align	2
  55              	.L4:
ARM GAS  C:\Users\86188\AppData\Local\Temp\cca48a4Y.s 			page 10


  56 0010 00000000 		.word	.LANCHOR0
  57              		.cfi_endproc
  58              	.LFE162:
  60              		.section	.text.tryget_socket_unconn,"ax",%progbits
  61              		.align	1
  62              		.syntax unified
  63              		.thumb
  64              		.thumb_func
  66              	tryget_socket_unconn:
  67              	.LVL4:
  68              	.LFB164:
 459:ThirdPackage/lwip220/api/sockets.c **** 
 460:ThirdPackage/lwip220/api/sockets.c **** struct lwip_sock *
 461:ThirdPackage/lwip220/api/sockets.c **** lwip_socket_dbg_get_socket(int fd)
 462:ThirdPackage/lwip220/api/sockets.c **** {
 463:ThirdPackage/lwip220/api/sockets.c ****   return tryget_socket_unconn_nouse(fd);
 464:ThirdPackage/lwip220/api/sockets.c **** }
 465:ThirdPackage/lwip220/api/sockets.c **** 
 466:ThirdPackage/lwip220/api/sockets.c **** /* Translate a socket 'int' into a pointer (only fails if the index is invalid) */
 467:ThirdPackage/lwip220/api/sockets.c **** static struct lwip_sock *
 468:ThirdPackage/lwip220/api/sockets.c **** tryget_socket_unconn(int fd)
 469:ThirdPackage/lwip220/api/sockets.c **** {
  69              		.loc 1 469 1 is_stmt 1 view -0
  70              		.cfi_startproc
  71              		@ args = 0, pretend = 0, frame = 0
  72              		@ frame_needed = 0, uses_anonymous_args = 0
  73              		.loc 1 469 1 is_stmt 0 view .LVU10
  74 0000 08B5     		push	{r3, lr}
  75              	.LCFI0:
  76              		.cfi_def_cfa_offset 8
  77              		.cfi_offset 3, -8
  78              		.cfi_offset 14, -4
 470:ThirdPackage/lwip220/api/sockets.c ****   struct lwip_sock *ret = tryget_socket_unconn_nouse(fd);
  79              		.loc 1 470 3 is_stmt 1 view .LVU11
  80              		.loc 1 470 27 is_stmt 0 view .LVU12
  81 0002 FFF7FEFF 		bl	tryget_socket_unconn_nouse
  82              	.LVL5:
 471:ThirdPackage/lwip220/api/sockets.c ****   if (ret != NULL) {
  83              		.loc 1 471 3 is_stmt 1 view .LVU13
 472:ThirdPackage/lwip220/api/sockets.c ****     if (!sock_inc_used(ret)) {
 473:ThirdPackage/lwip220/api/sockets.c ****       return NULL;
 474:ThirdPackage/lwip220/api/sockets.c ****     }
 475:ThirdPackage/lwip220/api/sockets.c ****   }
 476:ThirdPackage/lwip220/api/sockets.c ****   return ret;
  84              		.loc 1 476 3 view .LVU14
 477:ThirdPackage/lwip220/api/sockets.c **** }
  85              		.loc 1 477 1 is_stmt 0 view .LVU15
  86 0006 08BD     		pop	{r3, pc}
  87              		.cfi_endproc
  88              	.LFE164:
  90              		.section	.text.tryget_socket_unconn_locked,"ax",%progbits
  91              		.align	1
  92              		.syntax unified
  93              		.thumb
  94              		.thumb_func
  96              	tryget_socket_unconn_locked:
  97              	.LVL6:
ARM GAS  C:\Users\86188\AppData\Local\Temp\cca48a4Y.s 			page 11


  98              	.LFB165:
 478:ThirdPackage/lwip220/api/sockets.c **** 
 479:ThirdPackage/lwip220/api/sockets.c **** /* Like tryget_socket_unconn(), but called under SYS_ARCH_PROTECT lock. */
 480:ThirdPackage/lwip220/api/sockets.c **** static struct lwip_sock *
 481:ThirdPackage/lwip220/api/sockets.c **** tryget_socket_unconn_locked(int fd)
 482:ThirdPackage/lwip220/api/sockets.c **** {
  99              		.loc 1 482 1 is_stmt 1 view -0
 100              		.cfi_startproc
 101              		@ args = 0, pretend = 0, frame = 0
 102              		@ frame_needed = 0, uses_anonymous_args = 0
 103              		.loc 1 482 1 is_stmt 0 view .LVU17
 104 0000 08B5     		push	{r3, lr}
 105              	.LCFI1:
 106              		.cfi_def_cfa_offset 8
 107              		.cfi_offset 3, -8
 108              		.cfi_offset 14, -4
 483:ThirdPackage/lwip220/api/sockets.c ****   struct lwip_sock *ret = tryget_socket_unconn_nouse(fd);
 109              		.loc 1 483 3 is_stmt 1 view .LVU18
 110              		.loc 1 483 27 is_stmt 0 view .LVU19
 111 0002 FFF7FEFF 		bl	tryget_socket_unconn_nouse
 112              	.LVL7:
 484:ThirdPackage/lwip220/api/sockets.c ****   if (ret != NULL) {
 113              		.loc 1 484 3 is_stmt 1 view .LVU20
 485:ThirdPackage/lwip220/api/sockets.c ****     if (!sock_inc_used_locked(ret)) {
 486:ThirdPackage/lwip220/api/sockets.c ****       return NULL;
 487:ThirdPackage/lwip220/api/sockets.c ****     }
 488:ThirdPackage/lwip220/api/sockets.c ****   }
 489:ThirdPackage/lwip220/api/sockets.c ****   return ret;
 114              		.loc 1 489 3 view .LVU21
 490:ThirdPackage/lwip220/api/sockets.c **** }
 115              		.loc 1 490 1 is_stmt 0 view .LVU22
 116 0006 08BD     		pop	{r3, pc}
 117              		.cfi_endproc
 118              	.LFE165:
 120              		.section	.text.tryget_socket,"ax",%progbits
 121              		.align	1
 122              		.syntax unified
 123              		.thumb
 124              		.thumb_func
 126              	tryget_socket:
 127              	.LVL8:
 128              	.LFB166:
 491:ThirdPackage/lwip220/api/sockets.c **** 
 492:ThirdPackage/lwip220/api/sockets.c **** /**
 493:ThirdPackage/lwip220/api/sockets.c ****  * Same as get_socket but doesn't set errno
 494:ThirdPackage/lwip220/api/sockets.c ****  *
 495:ThirdPackage/lwip220/api/sockets.c ****  * @param fd externally used socket index
 496:ThirdPackage/lwip220/api/sockets.c ****  * @return struct lwip_sock for the socket or NULL if not found
 497:ThirdPackage/lwip220/api/sockets.c ****  */
 498:ThirdPackage/lwip220/api/sockets.c **** static struct lwip_sock *
 499:ThirdPackage/lwip220/api/sockets.c **** tryget_socket(int fd)
 500:ThirdPackage/lwip220/api/sockets.c **** {
 129              		.loc 1 500 1 is_stmt 1 view -0
 130              		.cfi_startproc
 131              		@ args = 0, pretend = 0, frame = 0
 132              		@ frame_needed = 0, uses_anonymous_args = 0
 133              		.loc 1 500 1 is_stmt 0 view .LVU24
ARM GAS  C:\Users\86188\AppData\Local\Temp\cca48a4Y.s 			page 12


 134 0000 08B5     		push	{r3, lr}
 135              	.LCFI2:
 136              		.cfi_def_cfa_offset 8
 137              		.cfi_offset 3, -8
 138              		.cfi_offset 14, -4
 501:ThirdPackage/lwip220/api/sockets.c ****   struct lwip_sock *sock = tryget_socket_unconn(fd);
 139              		.loc 1 501 3 is_stmt 1 view .LVU25
 140              		.loc 1 501 28 is_stmt 0 view .LVU26
 141 0002 FFF7FEFF 		bl	tryget_socket_unconn
 142              	.LVL9:
 502:ThirdPackage/lwip220/api/sockets.c ****   if (sock != NULL) {
 143              		.loc 1 502 3 is_stmt 1 view .LVU27
 144              		.loc 1 502 6 is_stmt 0 view .LVU28
 145 0006 0346     		mov	r3, r0
 146 0008 08B1     		cbz	r0, .L10
 503:ThirdPackage/lwip220/api/sockets.c ****     if (sock->conn) {
 147              		.loc 1 503 5 is_stmt 1 view .LVU29
 148              		.loc 1 503 13 is_stmt 0 view .LVU30
 149 000a 0268     		ldr	r2, [r0]
 150              		.loc 1 503 8 view .LVU31
 151 000c 0AB1     		cbz	r2, .L13
 152              	.L10:
 504:ThirdPackage/lwip220/api/sockets.c ****       return sock;
 505:ThirdPackage/lwip220/api/sockets.c ****     }
 506:ThirdPackage/lwip220/api/sockets.c ****     done_socket(sock);
 507:ThirdPackage/lwip220/api/sockets.c ****   }
 508:ThirdPackage/lwip220/api/sockets.c ****   return NULL;
 509:ThirdPackage/lwip220/api/sockets.c **** }
 153              		.loc 1 509 1 view .LVU32
 154 000e 1846     		mov	r0, r3
 155              	.LVL10:
 156              		.loc 1 509 1 view .LVU33
 157 0010 08BD     		pop	{r3, pc}
 158              	.LVL11:
 159              	.L13:
 508:ThirdPackage/lwip220/api/sockets.c **** }
 160              		.loc 1 508 10 view .LVU34
 161 0012 1346     		mov	r3, r2
 162 0014 FBE7     		b	.L10
 163              		.cfi_endproc
 164              	.LFE166:
 166              		.section	.text.get_socket,"ax",%progbits
 167              		.align	1
 168              		.syntax unified
 169              		.thumb
 170              		.thumb_func
 172              	get_socket:
 173              	.LVL12:
 174              	.LFB167:
 510:ThirdPackage/lwip220/api/sockets.c **** 
 511:ThirdPackage/lwip220/api/sockets.c **** /**
 512:ThirdPackage/lwip220/api/sockets.c ****  * Map a externally used socket index to the internal socket representation.
 513:ThirdPackage/lwip220/api/sockets.c ****  *
 514:ThirdPackage/lwip220/api/sockets.c ****  * @param fd externally used socket index
 515:ThirdPackage/lwip220/api/sockets.c ****  * @return struct lwip_sock for the socket or NULL if not found
 516:ThirdPackage/lwip220/api/sockets.c ****  */
 517:ThirdPackage/lwip220/api/sockets.c **** static struct lwip_sock *
ARM GAS  C:\Users\86188\AppData\Local\Temp\cca48a4Y.s 			page 13


 518:ThirdPackage/lwip220/api/sockets.c **** get_socket(int fd)
 519:ThirdPackage/lwip220/api/sockets.c **** {
 175              		.loc 1 519 1 is_stmt 1 view -0
 176              		.cfi_startproc
 177              		@ args = 0, pretend = 0, frame = 0
 178              		@ frame_needed = 0, uses_anonymous_args = 0
 179              		.loc 1 519 1 is_stmt 0 view .LVU36
 180 0000 08B5     		push	{r3, lr}
 181              	.LCFI3:
 182              		.cfi_def_cfa_offset 8
 183              		.cfi_offset 3, -8
 184              		.cfi_offset 14, -4
 520:ThirdPackage/lwip220/api/sockets.c ****   struct lwip_sock *sock = tryget_socket(fd);
 185              		.loc 1 520 3 is_stmt 1 view .LVU37
 186              		.loc 1 520 28 is_stmt 0 view .LVU38
 187 0002 FFF7FEFF 		bl	tryget_socket
 188              	.LVL13:
 521:ThirdPackage/lwip220/api/sockets.c ****   if (!sock) {
 189              		.loc 1 521 3 is_stmt 1 view .LVU39
 190              		.loc 1 521 6 is_stmt 0 view .LVU40
 191 0006 00B1     		cbz	r0, .L17
 192              	.L14:
 522:ThirdPackage/lwip220/api/sockets.c ****     if ((fd < LWIP_SOCKET_OFFSET) || (fd >= (LWIP_SOCKET_OFFSET + NUM_SOCKETS))) {
 523:ThirdPackage/lwip220/api/sockets.c ****       LWIP_DEBUGF(SOCKETS_DEBUG, ("get_socket(%d): invalid\n", fd));
 524:ThirdPackage/lwip220/api/sockets.c ****     }
 525:ThirdPackage/lwip220/api/sockets.c ****     set_errno(EBADF);
 526:ThirdPackage/lwip220/api/sockets.c ****     return NULL;
 527:ThirdPackage/lwip220/api/sockets.c ****   }
 528:ThirdPackage/lwip220/api/sockets.c ****   return sock;
 529:ThirdPackage/lwip220/api/sockets.c **** }
 193              		.loc 1 529 1 view .LVU41
 194 0008 08BD     		pop	{r3, pc}
 195              	.L17:
 522:ThirdPackage/lwip220/api/sockets.c ****     if ((fd < LWIP_SOCKET_OFFSET) || (fd >= (LWIP_SOCKET_OFFSET + NUM_SOCKETS))) {
 196              		.loc 1 522 5 is_stmt 1 view .LVU42
 523:ThirdPackage/lwip220/api/sockets.c ****     }
 197              		.loc 1 523 68 view .LVU43
 525:ThirdPackage/lwip220/api/sockets.c ****     return NULL;
 198              		.loc 1 525 5 view .LVU44
 525:ThirdPackage/lwip220/api/sockets.c ****     return NULL;
 199              		.loc 1 525 5 view .LVU45
 525:ThirdPackage/lwip220/api/sockets.c ****     return NULL;
 200              		.loc 1 525 5 view .LVU46
 201 000a 024B     		ldr	r3, .L18
 202 000c 0922     		movs	r2, #9
 203 000e 1A60     		str	r2, [r3]
 525:ThirdPackage/lwip220/api/sockets.c ****     return NULL;
 204              		.loc 1 525 5 view .LVU47
 526:ThirdPackage/lwip220/api/sockets.c ****   }
 205              		.loc 1 526 5 view .LVU48
 526:ThirdPackage/lwip220/api/sockets.c ****   }
 206              		.loc 1 526 12 is_stmt 0 view .LVU49
 207 0010 FAE7     		b	.L14
 208              	.L19:
 209 0012 00BF     		.align	2
 210              	.L18:
 211 0014 00000000 		.word	errno
ARM GAS  C:\Users\86188\AppData\Local\Temp\cca48a4Y.s 			page 14


 212              		.cfi_endproc
 213              	.LFE167:
 215              		.section	.text.free_socket_locked,"ax",%progbits
 216              		.align	1
 217              		.syntax unified
 218              		.thumb
 219              		.thumb_func
 221              	free_socket_locked:
 222              	.LVL14:
 223              	.LFB169:
 530:ThirdPackage/lwip220/api/sockets.c **** 
 531:ThirdPackage/lwip220/api/sockets.c **** /**
 532:ThirdPackage/lwip220/api/sockets.c ****  * Allocate a new socket for a given netconn.
 533:ThirdPackage/lwip220/api/sockets.c ****  *
 534:ThirdPackage/lwip220/api/sockets.c ****  * @param newconn the netconn for which to allocate a socket
 535:ThirdPackage/lwip220/api/sockets.c ****  * @param accepted 1 if socket has been created by accept(),
 536:ThirdPackage/lwip220/api/sockets.c ****  *                 0 if socket has been created by socket()
 537:ThirdPackage/lwip220/api/sockets.c ****  * @return the index of the new socket; -1 on error
 538:ThirdPackage/lwip220/api/sockets.c ****  */
 539:ThirdPackage/lwip220/api/sockets.c **** static int
 540:ThirdPackage/lwip220/api/sockets.c **** alloc_socket(struct netconn *newconn, int accepted)
 541:ThirdPackage/lwip220/api/sockets.c **** {
 542:ThirdPackage/lwip220/api/sockets.c ****   int i;
 543:ThirdPackage/lwip220/api/sockets.c ****   SYS_ARCH_DECL_PROTECT(lev);
 544:ThirdPackage/lwip220/api/sockets.c ****   LWIP_UNUSED_ARG(accepted);
 545:ThirdPackage/lwip220/api/sockets.c **** 
 546:ThirdPackage/lwip220/api/sockets.c ****   /* allocate a new socket identifier */
 547:ThirdPackage/lwip220/api/sockets.c ****   for (i = 0; i < NUM_SOCKETS; ++i) {
 548:ThirdPackage/lwip220/api/sockets.c ****     /* Protect socket array */
 549:ThirdPackage/lwip220/api/sockets.c ****     SYS_ARCH_PROTECT(lev);
 550:ThirdPackage/lwip220/api/sockets.c ****     if (!sockets[i].conn) {
 551:ThirdPackage/lwip220/api/sockets.c **** #if LWIP_NETCONN_FULLDUPLEX
 552:ThirdPackage/lwip220/api/sockets.c ****       if (sockets[i].fd_used) {
 553:ThirdPackage/lwip220/api/sockets.c ****         SYS_ARCH_UNPROTECT(lev);
 554:ThirdPackage/lwip220/api/sockets.c ****         continue;
 555:ThirdPackage/lwip220/api/sockets.c ****       }
 556:ThirdPackage/lwip220/api/sockets.c ****       sockets[i].fd_used    = 1;
 557:ThirdPackage/lwip220/api/sockets.c ****       sockets[i].fd_free_pending = 0;
 558:ThirdPackage/lwip220/api/sockets.c **** #endif
 559:ThirdPackage/lwip220/api/sockets.c ****       sockets[i].conn       = newconn;
 560:ThirdPackage/lwip220/api/sockets.c ****       /* The socket is not yet known to anyone, so no need to protect
 561:ThirdPackage/lwip220/api/sockets.c ****          after having marked it as used. */
 562:ThirdPackage/lwip220/api/sockets.c ****       SYS_ARCH_UNPROTECT(lev);
 563:ThirdPackage/lwip220/api/sockets.c ****       sockets[i].lastdata.pbuf = NULL;
 564:ThirdPackage/lwip220/api/sockets.c **** #if LWIP_SOCKET_SELECT || LWIP_SOCKET_POLL
 565:ThirdPackage/lwip220/api/sockets.c ****       LWIP_ASSERT("sockets[i].select_waiting == 0", sockets[i].select_waiting == 0);
 566:ThirdPackage/lwip220/api/sockets.c ****       sockets[i].rcvevent   = 0;
 567:ThirdPackage/lwip220/api/sockets.c ****       /* TCP sendbuf is empty, but the socket is not yet writable until connected
 568:ThirdPackage/lwip220/api/sockets.c ****        * (unless it has been created by accept()). */
 569:ThirdPackage/lwip220/api/sockets.c ****       sockets[i].sendevent  = (NETCONNTYPE_GROUP(newconn->type) == NETCONN_TCP ? (accepted != 0) : 
 570:ThirdPackage/lwip220/api/sockets.c ****       sockets[i].errevent   = 0;
 571:ThirdPackage/lwip220/api/sockets.c **** #endif /* LWIP_SOCKET_SELECT || LWIP_SOCKET_POLL */
 572:ThirdPackage/lwip220/api/sockets.c ****       return i + LWIP_SOCKET_OFFSET;
 573:ThirdPackage/lwip220/api/sockets.c ****     }
 574:ThirdPackage/lwip220/api/sockets.c ****     SYS_ARCH_UNPROTECT(lev);
 575:ThirdPackage/lwip220/api/sockets.c ****   }
 576:ThirdPackage/lwip220/api/sockets.c ****   return -1;
ARM GAS  C:\Users\86188\AppData\Local\Temp\cca48a4Y.s 			page 15


 577:ThirdPackage/lwip220/api/sockets.c **** }
 578:ThirdPackage/lwip220/api/sockets.c **** 
 579:ThirdPackage/lwip220/api/sockets.c **** /** Free a socket (under lock)
 580:ThirdPackage/lwip220/api/sockets.c ****  *
 581:ThirdPackage/lwip220/api/sockets.c ****  * @param sock the socket to free
 582:ThirdPackage/lwip220/api/sockets.c ****  * @param is_tcp != 0 for TCP sockets, used to free lastdata
 583:ThirdPackage/lwip220/api/sockets.c ****  * @param conn the socekt's netconn is stored here, must be freed externally
 584:ThirdPackage/lwip220/api/sockets.c ****  * @param lastdata lastdata is stored here, must be freed externally
 585:ThirdPackage/lwip220/api/sockets.c ****  */
 586:ThirdPackage/lwip220/api/sockets.c **** static int
 587:ThirdPackage/lwip220/api/sockets.c **** free_socket_locked(struct lwip_sock *sock, int is_tcp, struct netconn **conn,
 588:ThirdPackage/lwip220/api/sockets.c ****                    union lwip_sock_lastdata *lastdata)
 589:ThirdPackage/lwip220/api/sockets.c **** {
 224              		.loc 1 589 1 is_stmt 1 view -0
 225              		.cfi_startproc
 226              		@ args = 0, pretend = 0, frame = 0
 227              		@ frame_needed = 0, uses_anonymous_args = 0
 228              		@ link register save eliminated.
 590:ThirdPackage/lwip220/api/sockets.c **** #if LWIP_NETCONN_FULLDUPLEX
 591:ThirdPackage/lwip220/api/sockets.c ****   LWIP_ASSERT("sock->fd_used > 0", sock->fd_used > 0);
 592:ThirdPackage/lwip220/api/sockets.c ****   sock->fd_used--;
 593:ThirdPackage/lwip220/api/sockets.c ****   if (sock->fd_used > 0) {
 594:ThirdPackage/lwip220/api/sockets.c ****     sock->fd_free_pending = LWIP_SOCK_FD_FREE_FREE | (is_tcp ? LWIP_SOCK_FD_FREE_TCP : 0);
 595:ThirdPackage/lwip220/api/sockets.c ****     return 0;
 596:ThirdPackage/lwip220/api/sockets.c ****   }
 597:ThirdPackage/lwip220/api/sockets.c **** #else /* LWIP_NETCONN_FULLDUPLEX */
 598:ThirdPackage/lwip220/api/sockets.c ****   LWIP_UNUSED_ARG(is_tcp);
 229              		.loc 1 598 3 view .LVU51
 599:ThirdPackage/lwip220/api/sockets.c **** #endif /* LWIP_NETCONN_FULLDUPLEX */
 600:ThirdPackage/lwip220/api/sockets.c **** 
 601:ThirdPackage/lwip220/api/sockets.c ****   *lastdata = sock->lastdata;
 230              		.loc 1 601 3 view .LVU52
 231              		.loc 1 601 13 is_stmt 0 view .LVU53
 232 0000 4168     		ldr	r1, [r0, #4]
 233              	.LVL15:
 234              		.loc 1 601 13 view .LVU54
 235 0002 1960     		str	r1, [r3]
 602:ThirdPackage/lwip220/api/sockets.c ****   sock->lastdata.pbuf = NULL;
 236              		.loc 1 602 3 is_stmt 1 view .LVU55
 237              		.loc 1 602 23 is_stmt 0 view .LVU56
 238 0004 0023     		movs	r3, #0
 239              	.LVL16:
 240              		.loc 1 602 23 view .LVU57
 241 0006 4360     		str	r3, [r0, #4]
 603:ThirdPackage/lwip220/api/sockets.c ****   *conn = sock->conn;
 242              		.loc 1 603 3 is_stmt 1 view .LVU58
 243              		.loc 1 603 15 is_stmt 0 view .LVU59
 244 0008 0168     		ldr	r1, [r0]
 245              		.loc 1 603 9 view .LVU60
 246 000a 1160     		str	r1, [r2]
 604:ThirdPackage/lwip220/api/sockets.c ****   sock->conn = NULL;
 247              		.loc 1 604 3 is_stmt 1 view .LVU61
 248              		.loc 1 604 14 is_stmt 0 view .LVU62
 249 000c 0360     		str	r3, [r0]
 605:ThirdPackage/lwip220/api/sockets.c ****   return 1;
 250              		.loc 1 605 3 is_stmt 1 view .LVU63
 606:ThirdPackage/lwip220/api/sockets.c **** }
ARM GAS  C:\Users\86188\AppData\Local\Temp\cca48a4Y.s 			page 16


 251              		.loc 1 606 1 is_stmt 0 view .LVU64
 252 000e 0120     		movs	r0, #1
 253              	.LVL17:
 254              		.loc 1 606 1 view .LVU65
 255 0010 7047     		bx	lr
 256              		.cfi_endproc
 257              	.LFE169:
 259              		.section	.text.lwip_poll_should_wake,"ax",%progbits
 260              		.align	1
 261              		.syntax unified
 262              		.thumb
 263              		.thumb_func
 265              	lwip_poll_should_wake:
 266              	.LVL18:
 267              	.LFB198:
 607:ThirdPackage/lwip220/api/sockets.c **** 
 608:ThirdPackage/lwip220/api/sockets.c **** /** Free a socket's leftover members.
 609:ThirdPackage/lwip220/api/sockets.c ****  */
 610:ThirdPackage/lwip220/api/sockets.c **** static void
 611:ThirdPackage/lwip220/api/sockets.c **** free_socket_free_elements(int is_tcp, struct netconn *conn, union lwip_sock_lastdata *lastdata)
 612:ThirdPackage/lwip220/api/sockets.c **** {
 613:ThirdPackage/lwip220/api/sockets.c ****   if (lastdata->pbuf != NULL) {
 614:ThirdPackage/lwip220/api/sockets.c ****     if (is_tcp) {
 615:ThirdPackage/lwip220/api/sockets.c ****       pbuf_free(lastdata->pbuf);
 616:ThirdPackage/lwip220/api/sockets.c ****     } else {
 617:ThirdPackage/lwip220/api/sockets.c ****       netbuf_delete(lastdata->netbuf);
 618:ThirdPackage/lwip220/api/sockets.c ****     }
 619:ThirdPackage/lwip220/api/sockets.c ****   }
 620:ThirdPackage/lwip220/api/sockets.c ****   if (conn != NULL) {
 621:ThirdPackage/lwip220/api/sockets.c ****     /* netconn_prepare_delete() has already been called, here we only free the conn */
 622:ThirdPackage/lwip220/api/sockets.c ****     netconn_delete(conn);
 623:ThirdPackage/lwip220/api/sockets.c ****   }
 624:ThirdPackage/lwip220/api/sockets.c **** }
 625:ThirdPackage/lwip220/api/sockets.c **** 
 626:ThirdPackage/lwip220/api/sockets.c **** /** Free a socket. The socket's netconn must have been
 627:ThirdPackage/lwip220/api/sockets.c ****  * delete before!
 628:ThirdPackage/lwip220/api/sockets.c ****  *
 629:ThirdPackage/lwip220/api/sockets.c ****  * @param sock the socket to free
 630:ThirdPackage/lwip220/api/sockets.c ****  * @param is_tcp != 0 for TCP sockets, used to free lastdata
 631:ThirdPackage/lwip220/api/sockets.c ****  */
 632:ThirdPackage/lwip220/api/sockets.c **** static void
 633:ThirdPackage/lwip220/api/sockets.c **** free_socket(struct lwip_sock *sock, int is_tcp)
 634:ThirdPackage/lwip220/api/sockets.c **** {
 635:ThirdPackage/lwip220/api/sockets.c ****   int freed;
 636:ThirdPackage/lwip220/api/sockets.c ****   struct netconn *conn;
 637:ThirdPackage/lwip220/api/sockets.c ****   union lwip_sock_lastdata lastdata;
 638:ThirdPackage/lwip220/api/sockets.c ****   SYS_ARCH_DECL_PROTECT(lev);
 639:ThirdPackage/lwip220/api/sockets.c **** 
 640:ThirdPackage/lwip220/api/sockets.c ****   /* Protect socket array */
 641:ThirdPackage/lwip220/api/sockets.c ****   SYS_ARCH_PROTECT(lev);
 642:ThirdPackage/lwip220/api/sockets.c **** 
 643:ThirdPackage/lwip220/api/sockets.c ****   freed = free_socket_locked(sock, is_tcp, &conn, &lastdata);
 644:ThirdPackage/lwip220/api/sockets.c ****   SYS_ARCH_UNPROTECT(lev);
 645:ThirdPackage/lwip220/api/sockets.c ****   /* don't use 'sock' after this line, as another task might have allocated it */
 646:ThirdPackage/lwip220/api/sockets.c **** 
 647:ThirdPackage/lwip220/api/sockets.c ****   if (freed) {
 648:ThirdPackage/lwip220/api/sockets.c ****     free_socket_free_elements(is_tcp, conn, &lastdata);
ARM GAS  C:\Users\86188\AppData\Local\Temp\cca48a4Y.s 			page 17


 649:ThirdPackage/lwip220/api/sockets.c ****   }
 650:ThirdPackage/lwip220/api/sockets.c **** }
 651:ThirdPackage/lwip220/api/sockets.c **** 
 652:ThirdPackage/lwip220/api/sockets.c **** /* Below this, the well-known socket functions are implemented.
 653:ThirdPackage/lwip220/api/sockets.c ****  * Use google.com or opengroup.org to get a good description :-)
 654:ThirdPackage/lwip220/api/sockets.c ****  *
 655:ThirdPackage/lwip220/api/sockets.c ****  * Exceptions are documented!
 656:ThirdPackage/lwip220/api/sockets.c ****  */
 657:ThirdPackage/lwip220/api/sockets.c **** 
 658:ThirdPackage/lwip220/api/sockets.c **** int
 659:ThirdPackage/lwip220/api/sockets.c **** lwip_accept(int s, struct sockaddr *addr, socklen_t *addrlen)
 660:ThirdPackage/lwip220/api/sockets.c **** {
 661:ThirdPackage/lwip220/api/sockets.c ****   struct lwip_sock *sock, *nsock;
 662:ThirdPackage/lwip220/api/sockets.c ****   struct netconn *newconn;
 663:ThirdPackage/lwip220/api/sockets.c ****   ip_addr_t naddr;
 664:ThirdPackage/lwip220/api/sockets.c ****   u16_t port = 0;
 665:ThirdPackage/lwip220/api/sockets.c ****   int newsock;
 666:ThirdPackage/lwip220/api/sockets.c ****   err_t err;
 667:ThirdPackage/lwip220/api/sockets.c ****   int recvevent;
 668:ThirdPackage/lwip220/api/sockets.c ****   SYS_ARCH_DECL_PROTECT(lev);
 669:ThirdPackage/lwip220/api/sockets.c **** 
 670:ThirdPackage/lwip220/api/sockets.c ****   LWIP_DEBUGF(SOCKETS_DEBUG, ("lwip_accept(%d)...\n", s));
 671:ThirdPackage/lwip220/api/sockets.c ****   sock = get_socket(s);
 672:ThirdPackage/lwip220/api/sockets.c ****   if (!sock) {
 673:ThirdPackage/lwip220/api/sockets.c ****     return -1;
 674:ThirdPackage/lwip220/api/sockets.c ****   }
 675:ThirdPackage/lwip220/api/sockets.c **** 
 676:ThirdPackage/lwip220/api/sockets.c ****   /* wait for a new connection */
 677:ThirdPackage/lwip220/api/sockets.c ****   err = netconn_accept(sock->conn, &newconn);
 678:ThirdPackage/lwip220/api/sockets.c ****   if (err != ERR_OK) {
 679:ThirdPackage/lwip220/api/sockets.c ****     LWIP_DEBUGF(SOCKETS_DEBUG, ("lwip_accept(%d): netconn_acept failed, err=%d\n", s, err));
 680:ThirdPackage/lwip220/api/sockets.c ****     if (NETCONNTYPE_GROUP(netconn_type(sock->conn)) != NETCONN_TCP) {
 681:ThirdPackage/lwip220/api/sockets.c ****       set_errno(EOPNOTSUPP);
 682:ThirdPackage/lwip220/api/sockets.c ****     } else if (err == ERR_CLSD) {
 683:ThirdPackage/lwip220/api/sockets.c ****       set_errno(EINVAL);
 684:ThirdPackage/lwip220/api/sockets.c ****     } else {
 685:ThirdPackage/lwip220/api/sockets.c ****       set_errno(err_to_errno(err));
 686:ThirdPackage/lwip220/api/sockets.c ****     }
 687:ThirdPackage/lwip220/api/sockets.c ****     done_socket(sock);
 688:ThirdPackage/lwip220/api/sockets.c ****     return -1;
 689:ThirdPackage/lwip220/api/sockets.c ****   }
 690:ThirdPackage/lwip220/api/sockets.c ****   LWIP_ASSERT("newconn != NULL", newconn != NULL);
 691:ThirdPackage/lwip220/api/sockets.c **** 
 692:ThirdPackage/lwip220/api/sockets.c ****   newsock = alloc_socket(newconn, 1);
 693:ThirdPackage/lwip220/api/sockets.c ****   if (newsock == -1) {
 694:ThirdPackage/lwip220/api/sockets.c ****     netconn_delete(newconn);
 695:ThirdPackage/lwip220/api/sockets.c ****     set_errno(ENFILE);
 696:ThirdPackage/lwip220/api/sockets.c ****     done_socket(sock);
 697:ThirdPackage/lwip220/api/sockets.c ****     return -1;
 698:ThirdPackage/lwip220/api/sockets.c ****   }
 699:ThirdPackage/lwip220/api/sockets.c ****   LWIP_ASSERT("invalid socket index", (newsock >= LWIP_SOCKET_OFFSET) && (newsock < NUM_SOCKETS + L
 700:ThirdPackage/lwip220/api/sockets.c ****   nsock = &sockets[newsock - LWIP_SOCKET_OFFSET];
 701:ThirdPackage/lwip220/api/sockets.c **** 
 702:ThirdPackage/lwip220/api/sockets.c ****   /* See event_callback: If data comes in right away after an accept, even
 703:ThirdPackage/lwip220/api/sockets.c ****    * though the server task might not have created a new socket yet.
 704:ThirdPackage/lwip220/api/sockets.c ****    * In that case, newconn->socket is counted down (newconn->socket--),
 705:ThirdPackage/lwip220/api/sockets.c ****    * so nsock->rcvevent is >= 1 here!
ARM GAS  C:\Users\86188\AppData\Local\Temp\cca48a4Y.s 			page 18


 706:ThirdPackage/lwip220/api/sockets.c ****    */
 707:ThirdPackage/lwip220/api/sockets.c ****   SYS_ARCH_PROTECT(lev);
 708:ThirdPackage/lwip220/api/sockets.c ****   recvevent = (s16_t)(-1 - newconn->callback_arg.socket);
 709:ThirdPackage/lwip220/api/sockets.c ****   newconn->callback_arg.socket = newsock;
 710:ThirdPackage/lwip220/api/sockets.c ****   SYS_ARCH_UNPROTECT(lev);
 711:ThirdPackage/lwip220/api/sockets.c **** 
 712:ThirdPackage/lwip220/api/sockets.c ****   if (newconn->callback) {
 713:ThirdPackage/lwip220/api/sockets.c ****     LOCK_TCPIP_CORE();
 714:ThirdPackage/lwip220/api/sockets.c ****     while (recvevent > 0) {
 715:ThirdPackage/lwip220/api/sockets.c ****       recvevent--;
 716:ThirdPackage/lwip220/api/sockets.c ****       newconn->callback(newconn, NETCONN_EVT_RCVPLUS, 0);
 717:ThirdPackage/lwip220/api/sockets.c ****     }
 718:ThirdPackage/lwip220/api/sockets.c ****     UNLOCK_TCPIP_CORE();
 719:ThirdPackage/lwip220/api/sockets.c ****   }
 720:ThirdPackage/lwip220/api/sockets.c **** 
 721:ThirdPackage/lwip220/api/sockets.c ****   /* Note that POSIX only requires us to check addr is non-NULL. addrlen must
 722:ThirdPackage/lwip220/api/sockets.c ****    * not be NULL if addr is valid.
 723:ThirdPackage/lwip220/api/sockets.c ****    */
 724:ThirdPackage/lwip220/api/sockets.c ****   if ((addr != NULL) && (addrlen != NULL)) {
 725:ThirdPackage/lwip220/api/sockets.c ****     union sockaddr_aligned tempaddr;
 726:ThirdPackage/lwip220/api/sockets.c ****     /* get the IP address and port of the remote host */
 727:ThirdPackage/lwip220/api/sockets.c ****     err = netconn_peer(newconn, &naddr, &port);
 728:ThirdPackage/lwip220/api/sockets.c ****     if (err != ERR_OK) {
 729:ThirdPackage/lwip220/api/sockets.c ****       LWIP_DEBUGF(SOCKETS_DEBUG, ("lwip_accept(%d): netconn_peer failed, err=%d\n", s, err));
 730:ThirdPackage/lwip220/api/sockets.c ****       free_socket(nsock, 1);
 731:ThirdPackage/lwip220/api/sockets.c ****       set_errno(err_to_errno(err));
 732:ThirdPackage/lwip220/api/sockets.c ****       done_socket(sock);
 733:ThirdPackage/lwip220/api/sockets.c ****       return -1;
 734:ThirdPackage/lwip220/api/sockets.c ****     }
 735:ThirdPackage/lwip220/api/sockets.c **** 
 736:ThirdPackage/lwip220/api/sockets.c ****     IPADDR_PORT_TO_SOCKADDR(&tempaddr, &naddr, port);
 737:ThirdPackage/lwip220/api/sockets.c ****     if (*addrlen > IPADDR_SOCKADDR_GET_LEN(&tempaddr)) {
 738:ThirdPackage/lwip220/api/sockets.c ****       *addrlen = IPADDR_SOCKADDR_GET_LEN(&tempaddr);
 739:ThirdPackage/lwip220/api/sockets.c ****     }
 740:ThirdPackage/lwip220/api/sockets.c ****     MEMCPY(addr, &tempaddr, *addrlen);
 741:ThirdPackage/lwip220/api/sockets.c **** 
 742:ThirdPackage/lwip220/api/sockets.c ****     LWIP_DEBUGF(SOCKETS_DEBUG, ("lwip_accept(%d) returning new sock=%d addr=", s, newsock));
 743:ThirdPackage/lwip220/api/sockets.c ****     ip_addr_debug_print_val(SOCKETS_DEBUG, naddr);
 744:ThirdPackage/lwip220/api/sockets.c ****     LWIP_DEBUGF(SOCKETS_DEBUG, (" port=%"U16_F"\n", port));
 745:ThirdPackage/lwip220/api/sockets.c ****   } else {
 746:ThirdPackage/lwip220/api/sockets.c ****     LWIP_DEBUGF(SOCKETS_DEBUG, ("lwip_accept(%d) returning new sock=%d\n", s, newsock));
 747:ThirdPackage/lwip220/api/sockets.c ****   }
 748:ThirdPackage/lwip220/api/sockets.c **** 
 749:ThirdPackage/lwip220/api/sockets.c ****   set_errno(0);
 750:ThirdPackage/lwip220/api/sockets.c ****   done_socket(sock);
 751:ThirdPackage/lwip220/api/sockets.c ****   done_socket(nsock);
 752:ThirdPackage/lwip220/api/sockets.c ****   return newsock;
 753:ThirdPackage/lwip220/api/sockets.c **** }
 754:ThirdPackage/lwip220/api/sockets.c **** 
 755:ThirdPackage/lwip220/api/sockets.c **** int
 756:ThirdPackage/lwip220/api/sockets.c **** lwip_bind(int s, const struct sockaddr *name, socklen_t namelen)
 757:ThirdPackage/lwip220/api/sockets.c **** {
 758:ThirdPackage/lwip220/api/sockets.c ****   struct lwip_sock *sock;
 759:ThirdPackage/lwip220/api/sockets.c ****   ip_addr_t local_addr;
 760:ThirdPackage/lwip220/api/sockets.c ****   u16_t local_port;
 761:ThirdPackage/lwip220/api/sockets.c ****   err_t err;
 762:ThirdPackage/lwip220/api/sockets.c **** 
ARM GAS  C:\Users\86188\AppData\Local\Temp\cca48a4Y.s 			page 19


 763:ThirdPackage/lwip220/api/sockets.c ****   sock = get_socket(s);
 764:ThirdPackage/lwip220/api/sockets.c ****   if (!sock) {
 765:ThirdPackage/lwip220/api/sockets.c ****     return -1;
 766:ThirdPackage/lwip220/api/sockets.c ****   }
 767:ThirdPackage/lwip220/api/sockets.c **** 
 768:ThirdPackage/lwip220/api/sockets.c ****   if (!SOCK_ADDR_TYPE_MATCH(name, sock)) {
 769:ThirdPackage/lwip220/api/sockets.c ****     /* sockaddr does not match socket type (IPv4/IPv6) */
 770:ThirdPackage/lwip220/api/sockets.c ****     set_errno(err_to_errno(ERR_VAL));
 771:ThirdPackage/lwip220/api/sockets.c ****     done_socket(sock);
 772:ThirdPackage/lwip220/api/sockets.c ****     return -1;
 773:ThirdPackage/lwip220/api/sockets.c ****   }
 774:ThirdPackage/lwip220/api/sockets.c **** 
 775:ThirdPackage/lwip220/api/sockets.c ****   /* check size, family and alignment of 'name' */
 776:ThirdPackage/lwip220/api/sockets.c ****   LWIP_ERROR("lwip_bind: invalid address", (IS_SOCK_ADDR_LEN_VALID(namelen) &&
 777:ThirdPackage/lwip220/api/sockets.c ****              IS_SOCK_ADDR_TYPE_VALID(name) && IS_SOCK_ADDR_ALIGNED(name)),
 778:ThirdPackage/lwip220/api/sockets.c ****              set_errno(err_to_errno(ERR_ARG)); done_socket(sock); return -1;);
 779:ThirdPackage/lwip220/api/sockets.c ****   LWIP_UNUSED_ARG(namelen);
 780:ThirdPackage/lwip220/api/sockets.c **** 
 781:ThirdPackage/lwip220/api/sockets.c ****   SOCKADDR_TO_IPADDR_PORT(name, &local_addr, local_port);
 782:ThirdPackage/lwip220/api/sockets.c ****   LWIP_DEBUGF(SOCKETS_DEBUG, ("lwip_bind(%d, addr=", s));
 783:ThirdPackage/lwip220/api/sockets.c ****   ip_addr_debug_print_val(SOCKETS_DEBUG, local_addr);
 784:ThirdPackage/lwip220/api/sockets.c ****   LWIP_DEBUGF(SOCKETS_DEBUG, (" port=%"U16_F")\n", local_port));
 785:ThirdPackage/lwip220/api/sockets.c **** 
 786:ThirdPackage/lwip220/api/sockets.c **** #if LWIP_IPV4 && LWIP_IPV6
 787:ThirdPackage/lwip220/api/sockets.c ****   /* Dual-stack: Unmap IPv4 mapped IPv6 addresses */
 788:ThirdPackage/lwip220/api/sockets.c ****   if (IP_IS_V6_VAL(local_addr) && ip6_addr_isipv4mappedipv6(ip_2_ip6(&local_addr))) {
 789:ThirdPackage/lwip220/api/sockets.c ****     unmap_ipv4_mapped_ipv6(ip_2_ip4(&local_addr), ip_2_ip6(&local_addr));
 790:ThirdPackage/lwip220/api/sockets.c ****     IP_SET_TYPE_VAL(local_addr, IPADDR_TYPE_V4);
 791:ThirdPackage/lwip220/api/sockets.c ****   }
 792:ThirdPackage/lwip220/api/sockets.c **** #endif /* LWIP_IPV4 && LWIP_IPV6 */
 793:ThirdPackage/lwip220/api/sockets.c **** 
 794:ThirdPackage/lwip220/api/sockets.c ****   err = netconn_bind(sock->conn, &local_addr, local_port);
 795:ThirdPackage/lwip220/api/sockets.c **** 
 796:ThirdPackage/lwip220/api/sockets.c ****   if (err != ERR_OK) {
 797:ThirdPackage/lwip220/api/sockets.c ****     LWIP_DEBUGF(SOCKETS_DEBUG, ("lwip_bind(%d) failed, err=%d\n", s, err));
 798:ThirdPackage/lwip220/api/sockets.c ****     set_errno(err_to_errno(err));
 799:ThirdPackage/lwip220/api/sockets.c ****     done_socket(sock);
 800:ThirdPackage/lwip220/api/sockets.c ****     return -1;
 801:ThirdPackage/lwip220/api/sockets.c ****   }
 802:ThirdPackage/lwip220/api/sockets.c **** 
 803:ThirdPackage/lwip220/api/sockets.c ****   LWIP_DEBUGF(SOCKETS_DEBUG, ("lwip_bind(%d) succeeded\n", s));
 804:ThirdPackage/lwip220/api/sockets.c ****   set_errno(0);
 805:ThirdPackage/lwip220/api/sockets.c ****   done_socket(sock);
 806:ThirdPackage/lwip220/api/sockets.c ****   return 0;
 807:ThirdPackage/lwip220/api/sockets.c **** }
 808:ThirdPackage/lwip220/api/sockets.c **** 
 809:ThirdPackage/lwip220/api/sockets.c **** int
 810:ThirdPackage/lwip220/api/sockets.c **** lwip_close(int s)
 811:ThirdPackage/lwip220/api/sockets.c **** {
 812:ThirdPackage/lwip220/api/sockets.c ****   struct lwip_sock *sock;
 813:ThirdPackage/lwip220/api/sockets.c ****   int is_tcp = 0;
 814:ThirdPackage/lwip220/api/sockets.c ****   err_t err;
 815:ThirdPackage/lwip220/api/sockets.c **** 
 816:ThirdPackage/lwip220/api/sockets.c ****   LWIP_DEBUGF(SOCKETS_DEBUG, ("lwip_close(%d)\n", s));
 817:ThirdPackage/lwip220/api/sockets.c **** 
 818:ThirdPackage/lwip220/api/sockets.c ****   sock = get_socket(s);
 819:ThirdPackage/lwip220/api/sockets.c ****   if (!sock) {
ARM GAS  C:\Users\86188\AppData\Local\Temp\cca48a4Y.s 			page 20


 820:ThirdPackage/lwip220/api/sockets.c ****     return -1;
 821:ThirdPackage/lwip220/api/sockets.c ****   }
 822:ThirdPackage/lwip220/api/sockets.c **** 
 823:ThirdPackage/lwip220/api/sockets.c ****   if (sock->conn != NULL) {
 824:ThirdPackage/lwip220/api/sockets.c ****     is_tcp = NETCONNTYPE_GROUP(netconn_type(sock->conn)) == NETCONN_TCP;
 825:ThirdPackage/lwip220/api/sockets.c ****   } else {
 826:ThirdPackage/lwip220/api/sockets.c ****     LWIP_ASSERT("sock->lastdata == NULL", sock->lastdata.pbuf == NULL);
 827:ThirdPackage/lwip220/api/sockets.c ****   }
 828:ThirdPackage/lwip220/api/sockets.c **** 
 829:ThirdPackage/lwip220/api/sockets.c **** #if LWIP_IGMP
 830:ThirdPackage/lwip220/api/sockets.c ****   /* drop all possibly joined IGMP memberships */
 831:ThirdPackage/lwip220/api/sockets.c ****   lwip_socket_drop_registered_memberships(s);
 832:ThirdPackage/lwip220/api/sockets.c **** #endif /* LWIP_IGMP */
 833:ThirdPackage/lwip220/api/sockets.c **** #if LWIP_IPV6_MLD
 834:ThirdPackage/lwip220/api/sockets.c ****   /* drop all possibly joined MLD6 memberships */
 835:ThirdPackage/lwip220/api/sockets.c ****   lwip_socket_drop_registered_mld6_memberships(s);
 836:ThirdPackage/lwip220/api/sockets.c **** #endif /* LWIP_IPV6_MLD */
 837:ThirdPackage/lwip220/api/sockets.c **** 
 838:ThirdPackage/lwip220/api/sockets.c ****   err = netconn_prepare_delete(sock->conn);
 839:ThirdPackage/lwip220/api/sockets.c ****   if (err != ERR_OK) {
 840:ThirdPackage/lwip220/api/sockets.c ****     set_errno(err_to_errno(err));
 841:ThirdPackage/lwip220/api/sockets.c ****     done_socket(sock);
 842:ThirdPackage/lwip220/api/sockets.c ****     return -1;
 843:ThirdPackage/lwip220/api/sockets.c ****   }
 844:ThirdPackage/lwip220/api/sockets.c **** 
 845:ThirdPackage/lwip220/api/sockets.c ****   free_socket(sock, is_tcp);
 846:ThirdPackage/lwip220/api/sockets.c ****   set_errno(0);
 847:ThirdPackage/lwip220/api/sockets.c ****   return 0;
 848:ThirdPackage/lwip220/api/sockets.c **** }
 849:ThirdPackage/lwip220/api/sockets.c **** 
 850:ThirdPackage/lwip220/api/sockets.c **** int
 851:ThirdPackage/lwip220/api/sockets.c **** lwip_connect(int s, const struct sockaddr *name, socklen_t namelen)
 852:ThirdPackage/lwip220/api/sockets.c **** {
 853:ThirdPackage/lwip220/api/sockets.c ****   struct lwip_sock *sock;
 854:ThirdPackage/lwip220/api/sockets.c ****   err_t err;
 855:ThirdPackage/lwip220/api/sockets.c **** 
 856:ThirdPackage/lwip220/api/sockets.c ****   sock = get_socket(s);
 857:ThirdPackage/lwip220/api/sockets.c ****   if (!sock) {
 858:ThirdPackage/lwip220/api/sockets.c ****     return -1;
 859:ThirdPackage/lwip220/api/sockets.c ****   }
 860:ThirdPackage/lwip220/api/sockets.c **** 
 861:ThirdPackage/lwip220/api/sockets.c ****   if (!SOCK_ADDR_TYPE_MATCH_OR_UNSPEC(name, sock)) {
 862:ThirdPackage/lwip220/api/sockets.c ****     /* sockaddr does not match socket type (IPv4/IPv6) */
 863:ThirdPackage/lwip220/api/sockets.c ****     set_errno(err_to_errno(ERR_VAL));
 864:ThirdPackage/lwip220/api/sockets.c ****     done_socket(sock);
 865:ThirdPackage/lwip220/api/sockets.c ****     return -1;
 866:ThirdPackage/lwip220/api/sockets.c ****   }
 867:ThirdPackage/lwip220/api/sockets.c **** 
 868:ThirdPackage/lwip220/api/sockets.c ****   LWIP_UNUSED_ARG(namelen);
 869:ThirdPackage/lwip220/api/sockets.c ****   if (name->sa_family == AF_UNSPEC) {
 870:ThirdPackage/lwip220/api/sockets.c ****     LWIP_DEBUGF(SOCKETS_DEBUG, ("lwip_connect(%d, AF_UNSPEC)\n", s));
 871:ThirdPackage/lwip220/api/sockets.c ****     err = netconn_disconnect(sock->conn);
 872:ThirdPackage/lwip220/api/sockets.c ****   } else {
 873:ThirdPackage/lwip220/api/sockets.c ****     ip_addr_t remote_addr;
 874:ThirdPackage/lwip220/api/sockets.c ****     u16_t remote_port;
 875:ThirdPackage/lwip220/api/sockets.c **** 
 876:ThirdPackage/lwip220/api/sockets.c ****     /* check size, family and alignment of 'name' */
ARM GAS  C:\Users\86188\AppData\Local\Temp\cca48a4Y.s 			page 21


 877:ThirdPackage/lwip220/api/sockets.c ****     LWIP_ERROR("lwip_connect: invalid address", IS_SOCK_ADDR_LEN_VALID(namelen) &&
 878:ThirdPackage/lwip220/api/sockets.c ****                IS_SOCK_ADDR_TYPE_VALID_OR_UNSPEC(name) && IS_SOCK_ADDR_ALIGNED(name),
 879:ThirdPackage/lwip220/api/sockets.c ****                set_errno(err_to_errno(ERR_ARG)); done_socket(sock); return -1;);
 880:ThirdPackage/lwip220/api/sockets.c **** 
 881:ThirdPackage/lwip220/api/sockets.c ****     SOCKADDR_TO_IPADDR_PORT(name, &remote_addr, remote_port);
 882:ThirdPackage/lwip220/api/sockets.c ****     LWIP_DEBUGF(SOCKETS_DEBUG, ("lwip_connect(%d, addr=", s));
 883:ThirdPackage/lwip220/api/sockets.c ****     ip_addr_debug_print_val(SOCKETS_DEBUG, remote_addr);
 884:ThirdPackage/lwip220/api/sockets.c ****     LWIP_DEBUGF(SOCKETS_DEBUG, (" port=%"U16_F")\n", remote_port));
 885:ThirdPackage/lwip220/api/sockets.c **** 
 886:ThirdPackage/lwip220/api/sockets.c **** #if LWIP_IPV4 && LWIP_IPV6
 887:ThirdPackage/lwip220/api/sockets.c ****     /* Dual-stack: Unmap IPv4 mapped IPv6 addresses */
 888:ThirdPackage/lwip220/api/sockets.c ****     if (IP_IS_V6_VAL(remote_addr) && ip6_addr_isipv4mappedipv6(ip_2_ip6(&remote_addr))) {
 889:ThirdPackage/lwip220/api/sockets.c ****       unmap_ipv4_mapped_ipv6(ip_2_ip4(&remote_addr), ip_2_ip6(&remote_addr));
 890:ThirdPackage/lwip220/api/sockets.c ****       IP_SET_TYPE_VAL(remote_addr, IPADDR_TYPE_V4);
 891:ThirdPackage/lwip220/api/sockets.c ****     }
 892:ThirdPackage/lwip220/api/sockets.c **** #endif /* LWIP_IPV4 && LWIP_IPV6 */
 893:ThirdPackage/lwip220/api/sockets.c **** 
 894:ThirdPackage/lwip220/api/sockets.c ****     err = netconn_connect(sock->conn, &remote_addr, remote_port);
 895:ThirdPackage/lwip220/api/sockets.c ****   }
 896:ThirdPackage/lwip220/api/sockets.c **** 
 897:ThirdPackage/lwip220/api/sockets.c ****   if (err != ERR_OK) {
 898:ThirdPackage/lwip220/api/sockets.c ****     LWIP_DEBUGF(SOCKETS_DEBUG, ("lwip_connect(%d) failed, err=%d\n", s, err));
 899:ThirdPackage/lwip220/api/sockets.c ****     set_errno(err_to_errno(err));
 900:ThirdPackage/lwip220/api/sockets.c ****     done_socket(sock);
 901:ThirdPackage/lwip220/api/sockets.c ****     return -1;
 902:ThirdPackage/lwip220/api/sockets.c ****   }
 903:ThirdPackage/lwip220/api/sockets.c **** 
 904:ThirdPackage/lwip220/api/sockets.c ****   LWIP_DEBUGF(SOCKETS_DEBUG, ("lwip_connect(%d) succeeded\n", s));
 905:ThirdPackage/lwip220/api/sockets.c ****   set_errno(0);
 906:ThirdPackage/lwip220/api/sockets.c ****   done_socket(sock);
 907:ThirdPackage/lwip220/api/sockets.c ****   return 0;
 908:ThirdPackage/lwip220/api/sockets.c **** }
 909:ThirdPackage/lwip220/api/sockets.c **** 
 910:ThirdPackage/lwip220/api/sockets.c **** /**
 911:ThirdPackage/lwip220/api/sockets.c ****  * Set a socket into listen mode.
 912:ThirdPackage/lwip220/api/sockets.c ****  * The socket may not have been used for another connection previously.
 913:ThirdPackage/lwip220/api/sockets.c ****  *
 914:ThirdPackage/lwip220/api/sockets.c ****  * @param s the socket to set to listening mode
 915:ThirdPackage/lwip220/api/sockets.c ****  * @param backlog (ATTENTION: needs TCP_LISTEN_BACKLOG=1)
 916:ThirdPackage/lwip220/api/sockets.c ****  * @return 0 on success, non-zero on failure
 917:ThirdPackage/lwip220/api/sockets.c ****  */
 918:ThirdPackage/lwip220/api/sockets.c **** int
 919:ThirdPackage/lwip220/api/sockets.c **** lwip_listen(int s, int backlog)
 920:ThirdPackage/lwip220/api/sockets.c **** {
 921:ThirdPackage/lwip220/api/sockets.c ****   struct lwip_sock *sock;
 922:ThirdPackage/lwip220/api/sockets.c ****   err_t err;
 923:ThirdPackage/lwip220/api/sockets.c **** 
 924:ThirdPackage/lwip220/api/sockets.c ****   LWIP_DEBUGF(SOCKETS_DEBUG, ("lwip_listen(%d, backlog=%d)\n", s, backlog));
 925:ThirdPackage/lwip220/api/sockets.c **** 
 926:ThirdPackage/lwip220/api/sockets.c ****   sock = get_socket(s);
 927:ThirdPackage/lwip220/api/sockets.c ****   if (!sock) {
 928:ThirdPackage/lwip220/api/sockets.c ****     return -1;
 929:ThirdPackage/lwip220/api/sockets.c ****   }
 930:ThirdPackage/lwip220/api/sockets.c **** 
 931:ThirdPackage/lwip220/api/sockets.c ****   /* limit the "backlog" parameter to fit in an u8_t */
 932:ThirdPackage/lwip220/api/sockets.c ****   backlog = LWIP_MIN(LWIP_MAX(backlog, 0), 0xff);
 933:ThirdPackage/lwip220/api/sockets.c **** 
ARM GAS  C:\Users\86188\AppData\Local\Temp\cca48a4Y.s 			page 22


 934:ThirdPackage/lwip220/api/sockets.c ****   err = netconn_listen_with_backlog(sock->conn, (u8_t)backlog);
 935:ThirdPackage/lwip220/api/sockets.c **** 
 936:ThirdPackage/lwip220/api/sockets.c ****   if (err != ERR_OK) {
 937:ThirdPackage/lwip220/api/sockets.c ****     LWIP_DEBUGF(SOCKETS_DEBUG, ("lwip_listen(%d) failed, err=%d\n", s, err));
 938:ThirdPackage/lwip220/api/sockets.c ****     if (NETCONNTYPE_GROUP(netconn_type(sock->conn)) != NETCONN_TCP) {
 939:ThirdPackage/lwip220/api/sockets.c ****       set_errno(EOPNOTSUPP);
 940:ThirdPackage/lwip220/api/sockets.c ****     } else {
 941:ThirdPackage/lwip220/api/sockets.c ****       set_errno(err_to_errno(err));
 942:ThirdPackage/lwip220/api/sockets.c ****     }
 943:ThirdPackage/lwip220/api/sockets.c ****     done_socket(sock);
 944:ThirdPackage/lwip220/api/sockets.c ****     return -1;
 945:ThirdPackage/lwip220/api/sockets.c ****   }
 946:ThirdPackage/lwip220/api/sockets.c **** 
 947:ThirdPackage/lwip220/api/sockets.c ****   set_errno(0);
 948:ThirdPackage/lwip220/api/sockets.c ****   done_socket(sock);
 949:ThirdPackage/lwip220/api/sockets.c ****   return 0;
 950:ThirdPackage/lwip220/api/sockets.c **** }
 951:ThirdPackage/lwip220/api/sockets.c **** 
 952:ThirdPackage/lwip220/api/sockets.c **** #if LWIP_TCP
 953:ThirdPackage/lwip220/api/sockets.c **** /* Helper function to loop over receiving pbufs from netconn
 954:ThirdPackage/lwip220/api/sockets.c ****  * until "len" bytes are received or we're otherwise done.
 955:ThirdPackage/lwip220/api/sockets.c ****  * Keeps sock->lastdata for peeking or partly copying.
 956:ThirdPackage/lwip220/api/sockets.c ****  */
 957:ThirdPackage/lwip220/api/sockets.c **** static ssize_t
 958:ThirdPackage/lwip220/api/sockets.c **** lwip_recv_tcp(struct lwip_sock *sock, void *mem, size_t len, int flags)
 959:ThirdPackage/lwip220/api/sockets.c **** {
 960:ThirdPackage/lwip220/api/sockets.c ****   u8_t apiflags = NETCONN_NOAUTORCVD;
 961:ThirdPackage/lwip220/api/sockets.c ****   ssize_t recvd = 0;
 962:ThirdPackage/lwip220/api/sockets.c ****   ssize_t recv_left = (len <= SSIZE_MAX) ? (ssize_t)len : SSIZE_MAX;
 963:ThirdPackage/lwip220/api/sockets.c **** 
 964:ThirdPackage/lwip220/api/sockets.c ****   LWIP_ASSERT("no socket given", sock != NULL);
 965:ThirdPackage/lwip220/api/sockets.c ****   LWIP_ASSERT("this should be checked internally", NETCONNTYPE_GROUP(netconn_type(sock->conn)) == N
 966:ThirdPackage/lwip220/api/sockets.c **** 
 967:ThirdPackage/lwip220/api/sockets.c ****   if (flags & MSG_DONTWAIT) {
 968:ThirdPackage/lwip220/api/sockets.c ****     apiflags |= NETCONN_DONTBLOCK;
 969:ThirdPackage/lwip220/api/sockets.c ****   }
 970:ThirdPackage/lwip220/api/sockets.c **** 
 971:ThirdPackage/lwip220/api/sockets.c ****   do {
 972:ThirdPackage/lwip220/api/sockets.c ****     struct pbuf *p;
 973:ThirdPackage/lwip220/api/sockets.c ****     err_t err;
 974:ThirdPackage/lwip220/api/sockets.c ****     u16_t copylen;
 975:ThirdPackage/lwip220/api/sockets.c **** 
 976:ThirdPackage/lwip220/api/sockets.c ****     LWIP_DEBUGF(SOCKETS_DEBUG, ("lwip_recv_tcp: top while sock->lastdata=%p\n", (void *)sock->lastd
 977:ThirdPackage/lwip220/api/sockets.c ****     /* Check if there is data left from the last recv operation. */
 978:ThirdPackage/lwip220/api/sockets.c ****     if (sock->lastdata.pbuf) {
 979:ThirdPackage/lwip220/api/sockets.c ****       p = sock->lastdata.pbuf;
 980:ThirdPackage/lwip220/api/sockets.c ****     } else {
 981:ThirdPackage/lwip220/api/sockets.c ****       /* No data was left from the previous operation, so we try to get
 982:ThirdPackage/lwip220/api/sockets.c ****          some from the network. */
 983:ThirdPackage/lwip220/api/sockets.c ****       err = netconn_recv_tcp_pbuf_flags(sock->conn, &p, apiflags);
 984:ThirdPackage/lwip220/api/sockets.c ****       LWIP_DEBUGF(SOCKETS_DEBUG, ("lwip_recv_tcp: netconn_recv err=%d, pbuf=%p\n",
 985:ThirdPackage/lwip220/api/sockets.c ****                                   err, (void *)p));
 986:ThirdPackage/lwip220/api/sockets.c **** 
 987:ThirdPackage/lwip220/api/sockets.c ****       if (err != ERR_OK) {
 988:ThirdPackage/lwip220/api/sockets.c ****         if (recvd > 0) {
 989:ThirdPackage/lwip220/api/sockets.c ****           /* already received data, return that (this trusts in getting the same error from
 990:ThirdPackage/lwip220/api/sockets.c ****              netconn layer again next time netconn_recv is called) */
ARM GAS  C:\Users\86188\AppData\Local\Temp\cca48a4Y.s 			page 23


 991:ThirdPackage/lwip220/api/sockets.c ****           goto lwip_recv_tcp_done;
 992:ThirdPackage/lwip220/api/sockets.c ****         }
 993:ThirdPackage/lwip220/api/sockets.c ****         /* We should really do some error checking here. */
 994:ThirdPackage/lwip220/api/sockets.c ****         LWIP_DEBUGF(SOCKETS_DEBUG, ("lwip_recv_tcp: p == NULL, error is \"%s\"!\n",
 995:ThirdPackage/lwip220/api/sockets.c ****                                     lwip_strerr(err)));
 996:ThirdPackage/lwip220/api/sockets.c ****         set_errno(err_to_errno(err));
 997:ThirdPackage/lwip220/api/sockets.c ****         if (err == ERR_CLSD) {
 998:ThirdPackage/lwip220/api/sockets.c ****           return 0;
 999:ThirdPackage/lwip220/api/sockets.c ****         } else {
1000:ThirdPackage/lwip220/api/sockets.c ****           return -1;
1001:ThirdPackage/lwip220/api/sockets.c ****         }
1002:ThirdPackage/lwip220/api/sockets.c ****       }
1003:ThirdPackage/lwip220/api/sockets.c ****       LWIP_ASSERT("p != NULL", p != NULL);
1004:ThirdPackage/lwip220/api/sockets.c ****       sock->lastdata.pbuf = p;
1005:ThirdPackage/lwip220/api/sockets.c ****     }
1006:ThirdPackage/lwip220/api/sockets.c **** 
1007:ThirdPackage/lwip220/api/sockets.c ****     LWIP_DEBUGF(SOCKETS_DEBUG, ("lwip_recv_tcp: buflen=%"U16_F" recv_left=%d off=%d\n",
1008:ThirdPackage/lwip220/api/sockets.c ****                                 p->tot_len, (int)recv_left, (int)recvd));
1009:ThirdPackage/lwip220/api/sockets.c **** 
1010:ThirdPackage/lwip220/api/sockets.c ****     if (recv_left > p->tot_len) {
1011:ThirdPackage/lwip220/api/sockets.c ****       copylen = p->tot_len;
1012:ThirdPackage/lwip220/api/sockets.c ****     } else {
1013:ThirdPackage/lwip220/api/sockets.c ****       copylen = (u16_t)recv_left;
1014:ThirdPackage/lwip220/api/sockets.c ****     }
1015:ThirdPackage/lwip220/api/sockets.c ****     if (recvd > SSIZE_MAX - copylen) {
1016:ThirdPackage/lwip220/api/sockets.c ****       /* overflow */
1017:ThirdPackage/lwip220/api/sockets.c ****       copylen = (u16_t)(SSIZE_MAX - recvd);
1018:ThirdPackage/lwip220/api/sockets.c ****     }
1019:ThirdPackage/lwip220/api/sockets.c **** 
1020:ThirdPackage/lwip220/api/sockets.c ****     /* copy the contents of the received buffer into
1021:ThirdPackage/lwip220/api/sockets.c ****     the supplied memory pointer mem */
1022:ThirdPackage/lwip220/api/sockets.c ****     pbuf_copy_partial(p, (u8_t *)mem + recvd, copylen, 0);
1023:ThirdPackage/lwip220/api/sockets.c **** 
1024:ThirdPackage/lwip220/api/sockets.c ****     recvd += copylen;
1025:ThirdPackage/lwip220/api/sockets.c **** 
1026:ThirdPackage/lwip220/api/sockets.c ****     /* TCP combines multiple pbufs for one recv */
1027:ThirdPackage/lwip220/api/sockets.c ****     LWIP_ASSERT("invalid copylen, len would underflow", recv_left >= copylen);
1028:ThirdPackage/lwip220/api/sockets.c ****     recv_left -= copylen;
1029:ThirdPackage/lwip220/api/sockets.c **** 
1030:ThirdPackage/lwip220/api/sockets.c ****     /* Unless we peek the incoming message... */
1031:ThirdPackage/lwip220/api/sockets.c ****     if ((flags & MSG_PEEK) == 0) {
1032:ThirdPackage/lwip220/api/sockets.c ****       /* ... check if there is data left in the pbuf */
1033:ThirdPackage/lwip220/api/sockets.c ****       LWIP_ASSERT("invalid copylen", p->tot_len >= copylen);
1034:ThirdPackage/lwip220/api/sockets.c ****       if (p->tot_len - copylen > 0) {
1035:ThirdPackage/lwip220/api/sockets.c ****         /* If so, it should be saved in the sock structure for the next recv call.
1036:ThirdPackage/lwip220/api/sockets.c ****            We store the pbuf but hide/free the consumed data: */
1037:ThirdPackage/lwip220/api/sockets.c ****         sock->lastdata.pbuf = pbuf_free_header(p, copylen);
1038:ThirdPackage/lwip220/api/sockets.c ****         LWIP_DEBUGF(SOCKETS_DEBUG, ("lwip_recv_tcp: lastdata now pbuf=%p\n", (void *)sock->lastdata
1039:ThirdPackage/lwip220/api/sockets.c ****       } else {
1040:ThirdPackage/lwip220/api/sockets.c ****         sock->lastdata.pbuf = NULL;
1041:ThirdPackage/lwip220/api/sockets.c ****         LWIP_DEBUGF(SOCKETS_DEBUG, ("lwip_recv_tcp: deleting pbuf=%p\n", (void *)p));
1042:ThirdPackage/lwip220/api/sockets.c ****         pbuf_free(p);
1043:ThirdPackage/lwip220/api/sockets.c ****       }
1044:ThirdPackage/lwip220/api/sockets.c ****     }
1045:ThirdPackage/lwip220/api/sockets.c ****     /* once we have some data to return, only add more if we don't need to wait */
1046:ThirdPackage/lwip220/api/sockets.c ****     apiflags |= NETCONN_DONTBLOCK | NETCONN_NOFIN;
1047:ThirdPackage/lwip220/api/sockets.c ****     /* @todo: do we need to support peeking more than one pbuf? */
ARM GAS  C:\Users\86188\AppData\Local\Temp\cca48a4Y.s 			page 24


1048:ThirdPackage/lwip220/api/sockets.c ****   } while ((recv_left > 0) && !(flags & MSG_PEEK));
1049:ThirdPackage/lwip220/api/sockets.c **** lwip_recv_tcp_done:
1050:ThirdPackage/lwip220/api/sockets.c ****   if ((recvd > 0) && !(flags & MSG_PEEK)) {
1051:ThirdPackage/lwip220/api/sockets.c ****     /* ensure window update after copying all data */
1052:ThirdPackage/lwip220/api/sockets.c ****     netconn_tcp_recvd(sock->conn, (size_t)recvd);
1053:ThirdPackage/lwip220/api/sockets.c ****   }
1054:ThirdPackage/lwip220/api/sockets.c ****   set_errno(0);
1055:ThirdPackage/lwip220/api/sockets.c ****   return recvd;
1056:ThirdPackage/lwip220/api/sockets.c **** }
1057:ThirdPackage/lwip220/api/sockets.c **** #endif
1058:ThirdPackage/lwip220/api/sockets.c **** 
1059:ThirdPackage/lwip220/api/sockets.c **** /* Convert a netbuf's address data to struct sockaddr */
1060:ThirdPackage/lwip220/api/sockets.c **** static int
1061:ThirdPackage/lwip220/api/sockets.c **** lwip_sock_make_addr(struct netconn *conn, ip_addr_t *fromaddr, u16_t port,
1062:ThirdPackage/lwip220/api/sockets.c ****                     struct sockaddr *from, socklen_t *fromlen)
1063:ThirdPackage/lwip220/api/sockets.c **** {
1064:ThirdPackage/lwip220/api/sockets.c ****   int truncated = 0;
1065:ThirdPackage/lwip220/api/sockets.c ****   union sockaddr_aligned saddr;
1066:ThirdPackage/lwip220/api/sockets.c **** 
1067:ThirdPackage/lwip220/api/sockets.c ****   LWIP_UNUSED_ARG(conn);
1068:ThirdPackage/lwip220/api/sockets.c **** 
1069:ThirdPackage/lwip220/api/sockets.c ****   LWIP_ASSERT("fromaddr != NULL", fromaddr != NULL);
1070:ThirdPackage/lwip220/api/sockets.c ****   LWIP_ASSERT("from != NULL", from != NULL);
1071:ThirdPackage/lwip220/api/sockets.c ****   LWIP_ASSERT("fromlen != NULL", fromlen != NULL);
1072:ThirdPackage/lwip220/api/sockets.c **** 
1073:ThirdPackage/lwip220/api/sockets.c **** #if LWIP_IPV4 && LWIP_IPV6
1074:ThirdPackage/lwip220/api/sockets.c ****   /* Dual-stack: Map IPv4 addresses to IPv4 mapped IPv6 */
1075:ThirdPackage/lwip220/api/sockets.c ****   if (NETCONNTYPE_ISIPV6(netconn_type(conn)) && IP_IS_V4(fromaddr)) {
1076:ThirdPackage/lwip220/api/sockets.c ****     ip4_2_ipv4_mapped_ipv6(ip_2_ip6(fromaddr), ip_2_ip4(fromaddr));
1077:ThirdPackage/lwip220/api/sockets.c ****     IP_SET_TYPE(fromaddr, IPADDR_TYPE_V6);
1078:ThirdPackage/lwip220/api/sockets.c ****   }
1079:ThirdPackage/lwip220/api/sockets.c **** #endif /* LWIP_IPV4 && LWIP_IPV6 */
1080:ThirdPackage/lwip220/api/sockets.c **** 
1081:ThirdPackage/lwip220/api/sockets.c ****   IPADDR_PORT_TO_SOCKADDR(&saddr, fromaddr, port);
1082:ThirdPackage/lwip220/api/sockets.c ****   if (*fromlen < IPADDR_SOCKADDR_GET_LEN(&saddr)) {
1083:ThirdPackage/lwip220/api/sockets.c ****     truncated = 1;
1084:ThirdPackage/lwip220/api/sockets.c ****   } else if (*fromlen > IPADDR_SOCKADDR_GET_LEN(&saddr)) {
1085:ThirdPackage/lwip220/api/sockets.c ****     *fromlen = IPADDR_SOCKADDR_GET_LEN(&saddr);
1086:ThirdPackage/lwip220/api/sockets.c ****   }
1087:ThirdPackage/lwip220/api/sockets.c ****   MEMCPY(from, &saddr, *fromlen);
1088:ThirdPackage/lwip220/api/sockets.c ****   return truncated;
1089:ThirdPackage/lwip220/api/sockets.c **** }
1090:ThirdPackage/lwip220/api/sockets.c **** 
1091:ThirdPackage/lwip220/api/sockets.c **** #if LWIP_TCP
1092:ThirdPackage/lwip220/api/sockets.c **** /* Helper function to get a tcp socket's remote address info */
1093:ThirdPackage/lwip220/api/sockets.c **** static int
1094:ThirdPackage/lwip220/api/sockets.c **** lwip_recv_tcp_from(struct lwip_sock *sock, struct sockaddr *from, socklen_t *fromlen, const char *d
1095:ThirdPackage/lwip220/api/sockets.c **** {
1096:ThirdPackage/lwip220/api/sockets.c ****   if (sock == NULL) {
1097:ThirdPackage/lwip220/api/sockets.c ****     return 0;
1098:ThirdPackage/lwip220/api/sockets.c ****   }
1099:ThirdPackage/lwip220/api/sockets.c ****   LWIP_UNUSED_ARG(dbg_fn);
1100:ThirdPackage/lwip220/api/sockets.c ****   LWIP_UNUSED_ARG(dbg_s);
1101:ThirdPackage/lwip220/api/sockets.c ****   LWIP_UNUSED_ARG(dbg_ret);
1102:ThirdPackage/lwip220/api/sockets.c **** 
1103:ThirdPackage/lwip220/api/sockets.c **** #if !SOCKETS_DEBUG
1104:ThirdPackage/lwip220/api/sockets.c ****   if (from && fromlen)
ARM GAS  C:\Users\86188\AppData\Local\Temp\cca48a4Y.s 			page 25


1105:ThirdPackage/lwip220/api/sockets.c **** #endif /* !SOCKETS_DEBUG */
1106:ThirdPackage/lwip220/api/sockets.c ****   {
1107:ThirdPackage/lwip220/api/sockets.c ****     /* get remote addr/port from tcp_pcb */
1108:ThirdPackage/lwip220/api/sockets.c ****     u16_t port;
1109:ThirdPackage/lwip220/api/sockets.c ****     ip_addr_t tmpaddr;
1110:ThirdPackage/lwip220/api/sockets.c ****     netconn_getaddr(sock->conn, &tmpaddr, &port, 0);
1111:ThirdPackage/lwip220/api/sockets.c ****     LWIP_DEBUGF(SOCKETS_DEBUG, ("%s(%d):  addr=", dbg_fn, dbg_s));
1112:ThirdPackage/lwip220/api/sockets.c ****     ip_addr_debug_print_val(SOCKETS_DEBUG, tmpaddr);
1113:ThirdPackage/lwip220/api/sockets.c ****     LWIP_DEBUGF(SOCKETS_DEBUG, (" port=%"U16_F" len=%d\n", port, (int)dbg_ret));
1114:ThirdPackage/lwip220/api/sockets.c ****     if (from && fromlen) {
1115:ThirdPackage/lwip220/api/sockets.c ****       return lwip_sock_make_addr(sock->conn, &tmpaddr, port, from, fromlen);
1116:ThirdPackage/lwip220/api/sockets.c ****     }
1117:ThirdPackage/lwip220/api/sockets.c ****   }
1118:ThirdPackage/lwip220/api/sockets.c ****   return 0;
1119:ThirdPackage/lwip220/api/sockets.c **** }
1120:ThirdPackage/lwip220/api/sockets.c **** #endif
1121:ThirdPackage/lwip220/api/sockets.c **** 
1122:ThirdPackage/lwip220/api/sockets.c **** /* Helper function to receive a netbuf from a udp or raw netconn.
1123:ThirdPackage/lwip220/api/sockets.c ****  * Keeps sock->lastdata for peeking.
1124:ThirdPackage/lwip220/api/sockets.c ****  */
1125:ThirdPackage/lwip220/api/sockets.c **** static err_t
1126:ThirdPackage/lwip220/api/sockets.c **** lwip_recvfrom_udp_raw(struct lwip_sock *sock, int flags, struct msghdr *msg, u16_t *datagram_len, i
1127:ThirdPackage/lwip220/api/sockets.c **** {
1128:ThirdPackage/lwip220/api/sockets.c ****   struct netbuf *buf;
1129:ThirdPackage/lwip220/api/sockets.c ****   u8_t apiflags;
1130:ThirdPackage/lwip220/api/sockets.c ****   err_t err;
1131:ThirdPackage/lwip220/api/sockets.c ****   u16_t buflen, copylen, copied;
1132:ThirdPackage/lwip220/api/sockets.c ****   msg_iovlen_t i;
1133:ThirdPackage/lwip220/api/sockets.c **** 
1134:ThirdPackage/lwip220/api/sockets.c ****   LWIP_UNUSED_ARG(dbg_s);
1135:ThirdPackage/lwip220/api/sockets.c ****   LWIP_ERROR("lwip_recvfrom_udp_raw: invalid arguments", (msg->msg_iov != NULL) || (msg->msg_iovlen
1136:ThirdPackage/lwip220/api/sockets.c **** 
1137:ThirdPackage/lwip220/api/sockets.c ****   if (flags & MSG_DONTWAIT) {
1138:ThirdPackage/lwip220/api/sockets.c ****     apiflags = NETCONN_DONTBLOCK;
1139:ThirdPackage/lwip220/api/sockets.c ****   } else {
1140:ThirdPackage/lwip220/api/sockets.c ****     apiflags = 0;
1141:ThirdPackage/lwip220/api/sockets.c ****   }
1142:ThirdPackage/lwip220/api/sockets.c **** 
1143:ThirdPackage/lwip220/api/sockets.c ****   LWIP_DEBUGF(SOCKETS_DEBUG, ("lwip_recvfrom_udp_raw[UDP/RAW]: top sock->lastdata=%p\n", (void *)so
1144:ThirdPackage/lwip220/api/sockets.c ****   /* Check if there is data left from the last recv operation. */
1145:ThirdPackage/lwip220/api/sockets.c ****   buf = sock->lastdata.netbuf;
1146:ThirdPackage/lwip220/api/sockets.c ****   if (buf == NULL) {
1147:ThirdPackage/lwip220/api/sockets.c ****     /* No data was left from the previous operation, so we try to get
1148:ThirdPackage/lwip220/api/sockets.c ****         some from the network. */
1149:ThirdPackage/lwip220/api/sockets.c ****     err = netconn_recv_udp_raw_netbuf_flags(sock->conn, &buf, apiflags);
1150:ThirdPackage/lwip220/api/sockets.c ****     LWIP_DEBUGF(SOCKETS_DEBUG, ("lwip_recvfrom_udp_raw[UDP/RAW]: netconn_recv err=%d, netbuf=%p\n",
1151:ThirdPackage/lwip220/api/sockets.c ****                                 err, (void *)buf));
1152:ThirdPackage/lwip220/api/sockets.c **** 
1153:ThirdPackage/lwip220/api/sockets.c ****     if (err != ERR_OK) {
1154:ThirdPackage/lwip220/api/sockets.c ****       return err;
1155:ThirdPackage/lwip220/api/sockets.c ****     }
1156:ThirdPackage/lwip220/api/sockets.c ****     LWIP_ASSERT("buf != NULL", buf != NULL);
1157:ThirdPackage/lwip220/api/sockets.c ****     sock->lastdata.netbuf = buf;
1158:ThirdPackage/lwip220/api/sockets.c ****   }
1159:ThirdPackage/lwip220/api/sockets.c ****   buflen = buf->p->tot_len;
1160:ThirdPackage/lwip220/api/sockets.c ****   LWIP_DEBUGF(SOCKETS_DEBUG, ("lwip_recvfrom_udp_raw: buflen=%"U16_F"\n", buflen));
1161:ThirdPackage/lwip220/api/sockets.c **** 
ARM GAS  C:\Users\86188\AppData\Local\Temp\cca48a4Y.s 			page 26


1162:ThirdPackage/lwip220/api/sockets.c ****   copied = 0;
1163:ThirdPackage/lwip220/api/sockets.c ****   /* copy the pbuf payload into the iovs */
1164:ThirdPackage/lwip220/api/sockets.c ****   for (i = 0; (i < msg->msg_iovlen) && (copied < buflen); i++) {
1165:ThirdPackage/lwip220/api/sockets.c ****     u16_t len_left = (u16_t)(buflen - copied);
1166:ThirdPackage/lwip220/api/sockets.c ****     if (msg->msg_iov[i].iov_len > len_left) {
1167:ThirdPackage/lwip220/api/sockets.c ****       copylen = len_left;
1168:ThirdPackage/lwip220/api/sockets.c ****     } else {
1169:ThirdPackage/lwip220/api/sockets.c ****       copylen = (u16_t)msg->msg_iov[i].iov_len;
1170:ThirdPackage/lwip220/api/sockets.c ****     }
1171:ThirdPackage/lwip220/api/sockets.c **** 
1172:ThirdPackage/lwip220/api/sockets.c ****     /* copy the contents of the received buffer into
1173:ThirdPackage/lwip220/api/sockets.c ****         the supplied memory buffer */
1174:ThirdPackage/lwip220/api/sockets.c ****     pbuf_copy_partial(buf->p, (u8_t *)msg->msg_iov[i].iov_base, copylen, copied);
1175:ThirdPackage/lwip220/api/sockets.c ****     copied = (u16_t)(copied + copylen);
1176:ThirdPackage/lwip220/api/sockets.c ****   }
1177:ThirdPackage/lwip220/api/sockets.c **** 
1178:ThirdPackage/lwip220/api/sockets.c ****   /* Check to see from where the data was.*/
1179:ThirdPackage/lwip220/api/sockets.c **** #if !SOCKETS_DEBUG
1180:ThirdPackage/lwip220/api/sockets.c ****   if (msg->msg_name && msg->msg_namelen)
1181:ThirdPackage/lwip220/api/sockets.c **** #endif /* !SOCKETS_DEBUG */
1182:ThirdPackage/lwip220/api/sockets.c ****   {
1183:ThirdPackage/lwip220/api/sockets.c ****     LWIP_DEBUGF(SOCKETS_DEBUG, ("lwip_recvfrom_udp_raw(%d):  addr=", dbg_s));
1184:ThirdPackage/lwip220/api/sockets.c ****     ip_addr_debug_print_val(SOCKETS_DEBUG, *netbuf_fromaddr(buf));
1185:ThirdPackage/lwip220/api/sockets.c ****     LWIP_DEBUGF(SOCKETS_DEBUG, (" port=%"U16_F" len=%d\n", netbuf_fromport(buf), copied));
1186:ThirdPackage/lwip220/api/sockets.c ****     if (msg->msg_name && msg->msg_namelen) {
1187:ThirdPackage/lwip220/api/sockets.c ****       lwip_sock_make_addr(sock->conn, netbuf_fromaddr(buf), netbuf_fromport(buf),
1188:ThirdPackage/lwip220/api/sockets.c ****                           (struct sockaddr *)msg->msg_name, &msg->msg_namelen);
1189:ThirdPackage/lwip220/api/sockets.c ****     }
1190:ThirdPackage/lwip220/api/sockets.c ****   }
1191:ThirdPackage/lwip220/api/sockets.c **** 
1192:ThirdPackage/lwip220/api/sockets.c ****   /* Initialize flag output */
1193:ThirdPackage/lwip220/api/sockets.c ****   msg->msg_flags = 0;
1194:ThirdPackage/lwip220/api/sockets.c **** 
1195:ThirdPackage/lwip220/api/sockets.c ****   if (msg->msg_control) {
1196:ThirdPackage/lwip220/api/sockets.c ****     u8_t wrote_msg = 0;
1197:ThirdPackage/lwip220/api/sockets.c **** #if LWIP_NETBUF_RECVINFO
1198:ThirdPackage/lwip220/api/sockets.c ****     /* Check if packet info was recorded */
1199:ThirdPackage/lwip220/api/sockets.c ****     if (buf->flags & NETBUF_FLAG_DESTADDR) {
1200:ThirdPackage/lwip220/api/sockets.c ****       if (IP_IS_V4(&buf->toaddr)) {
1201:ThirdPackage/lwip220/api/sockets.c **** #if LWIP_IPV4
1202:ThirdPackage/lwip220/api/sockets.c ****         if (msg->msg_controllen >= CMSG_SPACE(sizeof(struct in_pktinfo))) {
1203:ThirdPackage/lwip220/api/sockets.c ****           struct cmsghdr *chdr = CMSG_FIRSTHDR(msg); /* This will always return a header!! */
1204:ThirdPackage/lwip220/api/sockets.c ****           struct in_pktinfo *pkti = (struct in_pktinfo *)CMSG_DATA(chdr);
1205:ThirdPackage/lwip220/api/sockets.c ****           chdr->cmsg_level = IPPROTO_IP;
1206:ThirdPackage/lwip220/api/sockets.c ****           chdr->cmsg_type = IP_PKTINFO;
1207:ThirdPackage/lwip220/api/sockets.c ****           chdr->cmsg_len = CMSG_LEN(sizeof(struct in_pktinfo));
1208:ThirdPackage/lwip220/api/sockets.c ****           pkti->ipi_ifindex = buf->p->if_idx;
1209:ThirdPackage/lwip220/api/sockets.c ****           inet_addr_from_ip4addr(&pkti->ipi_addr, ip_2_ip4(netbuf_destaddr(buf)));
1210:ThirdPackage/lwip220/api/sockets.c ****           msg->msg_controllen = CMSG_SPACE(sizeof(struct in_pktinfo));
1211:ThirdPackage/lwip220/api/sockets.c ****           wrote_msg = 1;
1212:ThirdPackage/lwip220/api/sockets.c ****         } else {
1213:ThirdPackage/lwip220/api/sockets.c ****           msg->msg_flags |= MSG_CTRUNC;
1214:ThirdPackage/lwip220/api/sockets.c ****         }
1215:ThirdPackage/lwip220/api/sockets.c **** #endif /* LWIP_IPV4 */
1216:ThirdPackage/lwip220/api/sockets.c ****       }
1217:ThirdPackage/lwip220/api/sockets.c ****     }
1218:ThirdPackage/lwip220/api/sockets.c **** #endif /* LWIP_NETBUF_RECVINFO */
ARM GAS  C:\Users\86188\AppData\Local\Temp\cca48a4Y.s 			page 27


1219:ThirdPackage/lwip220/api/sockets.c **** 
1220:ThirdPackage/lwip220/api/sockets.c ****     if (!wrote_msg) {
1221:ThirdPackage/lwip220/api/sockets.c ****       msg->msg_controllen = 0;
1222:ThirdPackage/lwip220/api/sockets.c ****     }
1223:ThirdPackage/lwip220/api/sockets.c ****   }
1224:ThirdPackage/lwip220/api/sockets.c **** 
1225:ThirdPackage/lwip220/api/sockets.c ****   /* If we don't peek the incoming message: zero lastdata pointer and free the netbuf */
1226:ThirdPackage/lwip220/api/sockets.c ****   if ((flags & MSG_PEEK) == 0) {
1227:ThirdPackage/lwip220/api/sockets.c ****     sock->lastdata.netbuf = NULL;
1228:ThirdPackage/lwip220/api/sockets.c ****     netbuf_delete(buf);
1229:ThirdPackage/lwip220/api/sockets.c ****   }
1230:ThirdPackage/lwip220/api/sockets.c ****   if (datagram_len) {
1231:ThirdPackage/lwip220/api/sockets.c ****     *datagram_len = buflen;
1232:ThirdPackage/lwip220/api/sockets.c ****   }
1233:ThirdPackage/lwip220/api/sockets.c ****   return ERR_OK;
1234:ThirdPackage/lwip220/api/sockets.c **** }
1235:ThirdPackage/lwip220/api/sockets.c **** 
1236:ThirdPackage/lwip220/api/sockets.c **** ssize_t
1237:ThirdPackage/lwip220/api/sockets.c **** lwip_recvfrom(int s, void *mem, size_t len, int flags,
1238:ThirdPackage/lwip220/api/sockets.c ****               struct sockaddr *from, socklen_t *fromlen)
1239:ThirdPackage/lwip220/api/sockets.c **** {
1240:ThirdPackage/lwip220/api/sockets.c ****   struct lwip_sock *sock;
1241:ThirdPackage/lwip220/api/sockets.c ****   ssize_t ret;
1242:ThirdPackage/lwip220/api/sockets.c **** 
1243:ThirdPackage/lwip220/api/sockets.c ****   LWIP_DEBUGF(SOCKETS_DEBUG, ("lwip_recvfrom(%d, %p, %"SZT_F", 0x%x, ..)\n", s, mem, len, flags));
1244:ThirdPackage/lwip220/api/sockets.c ****   sock = get_socket(s);
1245:ThirdPackage/lwip220/api/sockets.c ****   if (!sock) {
1246:ThirdPackage/lwip220/api/sockets.c ****     return -1;
1247:ThirdPackage/lwip220/api/sockets.c ****   }
1248:ThirdPackage/lwip220/api/sockets.c **** #if LWIP_TCP
1249:ThirdPackage/lwip220/api/sockets.c ****   if (NETCONNTYPE_GROUP(netconn_type(sock->conn)) == NETCONN_TCP) {
1250:ThirdPackage/lwip220/api/sockets.c ****     ret = lwip_recv_tcp(sock, mem, len, flags);
1251:ThirdPackage/lwip220/api/sockets.c ****     lwip_recv_tcp_from(sock, from, fromlen, "lwip_recvfrom", s, ret);
1252:ThirdPackage/lwip220/api/sockets.c ****     done_socket(sock);
1253:ThirdPackage/lwip220/api/sockets.c ****     return ret;
1254:ThirdPackage/lwip220/api/sockets.c ****   } else
1255:ThirdPackage/lwip220/api/sockets.c **** #endif
1256:ThirdPackage/lwip220/api/sockets.c ****   {
1257:ThirdPackage/lwip220/api/sockets.c ****     u16_t datagram_len = 0;
1258:ThirdPackage/lwip220/api/sockets.c ****     struct iovec vec;
1259:ThirdPackage/lwip220/api/sockets.c ****     struct msghdr msg;
1260:ThirdPackage/lwip220/api/sockets.c ****     err_t err;
1261:ThirdPackage/lwip220/api/sockets.c ****     vec.iov_base = mem;
1262:ThirdPackage/lwip220/api/sockets.c ****     vec.iov_len = len;
1263:ThirdPackage/lwip220/api/sockets.c ****     msg.msg_control = NULL;
1264:ThirdPackage/lwip220/api/sockets.c ****     msg.msg_controllen = 0;
1265:ThirdPackage/lwip220/api/sockets.c ****     msg.msg_flags = 0;
1266:ThirdPackage/lwip220/api/sockets.c ****     msg.msg_iov = &vec;
1267:ThirdPackage/lwip220/api/sockets.c ****     msg.msg_iovlen = 1;
1268:ThirdPackage/lwip220/api/sockets.c ****     msg.msg_name = from;
1269:ThirdPackage/lwip220/api/sockets.c ****     msg.msg_namelen = (fromlen ? *fromlen : 0);
1270:ThirdPackage/lwip220/api/sockets.c ****     err = lwip_recvfrom_udp_raw(sock, flags, &msg, &datagram_len, s);
1271:ThirdPackage/lwip220/api/sockets.c ****     if (err != ERR_OK) {
1272:ThirdPackage/lwip220/api/sockets.c ****       LWIP_DEBUGF(SOCKETS_DEBUG, ("lwip_recvfrom[UDP/RAW](%d): buf == NULL, error is \"%s\"!\n",
1273:ThirdPackage/lwip220/api/sockets.c ****                                   s, lwip_strerr(err)));
1274:ThirdPackage/lwip220/api/sockets.c ****       set_errno(err_to_errno(err));
1275:ThirdPackage/lwip220/api/sockets.c ****       done_socket(sock);
ARM GAS  C:\Users\86188\AppData\Local\Temp\cca48a4Y.s 			page 28


1276:ThirdPackage/lwip220/api/sockets.c ****       return -1;
1277:ThirdPackage/lwip220/api/sockets.c ****     }
1278:ThirdPackage/lwip220/api/sockets.c ****     ret = (ssize_t)LWIP_MIN(LWIP_MIN(len, datagram_len), SSIZE_MAX);
1279:ThirdPackage/lwip220/api/sockets.c ****     if (fromlen) {
1280:ThirdPackage/lwip220/api/sockets.c ****       *fromlen = msg.msg_namelen;
1281:ThirdPackage/lwip220/api/sockets.c ****     }
1282:ThirdPackage/lwip220/api/sockets.c ****   }
1283:ThirdPackage/lwip220/api/sockets.c **** 
1284:ThirdPackage/lwip220/api/sockets.c ****   set_errno(0);
1285:ThirdPackage/lwip220/api/sockets.c ****   done_socket(sock);
1286:ThirdPackage/lwip220/api/sockets.c ****   return ret;
1287:ThirdPackage/lwip220/api/sockets.c **** }
1288:ThirdPackage/lwip220/api/sockets.c **** 
1289:ThirdPackage/lwip220/api/sockets.c **** ssize_t
1290:ThirdPackage/lwip220/api/sockets.c **** lwip_read(int s, void *mem, size_t len)
1291:ThirdPackage/lwip220/api/sockets.c **** {
1292:ThirdPackage/lwip220/api/sockets.c ****   return lwip_recvfrom(s, mem, len, 0, NULL, NULL);
1293:ThirdPackage/lwip220/api/sockets.c **** }
1294:ThirdPackage/lwip220/api/sockets.c **** 
1295:ThirdPackage/lwip220/api/sockets.c **** ssize_t
1296:ThirdPackage/lwip220/api/sockets.c **** lwip_readv(int s, const struct iovec *iov, int iovcnt)
1297:ThirdPackage/lwip220/api/sockets.c **** {
1298:ThirdPackage/lwip220/api/sockets.c ****   struct msghdr msg;
1299:ThirdPackage/lwip220/api/sockets.c **** 
1300:ThirdPackage/lwip220/api/sockets.c ****   msg.msg_name = NULL;
1301:ThirdPackage/lwip220/api/sockets.c ****   msg.msg_namelen = 0;
1302:ThirdPackage/lwip220/api/sockets.c ****   /* Hack: we have to cast via number to cast from 'const' pointer to non-const.
1303:ThirdPackage/lwip220/api/sockets.c ****      Blame the opengroup standard for this inconsistency. */
1304:ThirdPackage/lwip220/api/sockets.c ****   msg.msg_iov = LWIP_CONST_CAST(struct iovec *, iov);
1305:ThirdPackage/lwip220/api/sockets.c ****   msg.msg_iovlen = iovcnt;
1306:ThirdPackage/lwip220/api/sockets.c ****   msg.msg_control = NULL;
1307:ThirdPackage/lwip220/api/sockets.c ****   msg.msg_controllen = 0;
1308:ThirdPackage/lwip220/api/sockets.c ****   msg.msg_flags = 0;
1309:ThirdPackage/lwip220/api/sockets.c ****   return lwip_recvmsg(s, &msg, 0);
1310:ThirdPackage/lwip220/api/sockets.c **** }
1311:ThirdPackage/lwip220/api/sockets.c **** 
1312:ThirdPackage/lwip220/api/sockets.c **** ssize_t
1313:ThirdPackage/lwip220/api/sockets.c **** lwip_recv(int s, void *mem, size_t len, int flags)
1314:ThirdPackage/lwip220/api/sockets.c **** {
1315:ThirdPackage/lwip220/api/sockets.c ****   return lwip_recvfrom(s, mem, len, flags, NULL, NULL);
1316:ThirdPackage/lwip220/api/sockets.c **** }
1317:ThirdPackage/lwip220/api/sockets.c **** 
1318:ThirdPackage/lwip220/api/sockets.c **** ssize_t
1319:ThirdPackage/lwip220/api/sockets.c **** lwip_recvmsg(int s, struct msghdr *message, int flags)
1320:ThirdPackage/lwip220/api/sockets.c **** {
1321:ThirdPackage/lwip220/api/sockets.c ****   struct lwip_sock *sock;
1322:ThirdPackage/lwip220/api/sockets.c ****   msg_iovlen_t i;
1323:ThirdPackage/lwip220/api/sockets.c ****   ssize_t buflen;
1324:ThirdPackage/lwip220/api/sockets.c **** 
1325:ThirdPackage/lwip220/api/sockets.c ****   LWIP_DEBUGF(SOCKETS_DEBUG, ("lwip_recvmsg(%d, message=%p, flags=0x%x)\n", s, (void *)message, fla
1326:ThirdPackage/lwip220/api/sockets.c ****   LWIP_ERROR("lwip_recvmsg: invalid message pointer", message != NULL, return ERR_ARG;);
1327:ThirdPackage/lwip220/api/sockets.c ****   LWIP_ERROR("lwip_recvmsg: unsupported flags", (flags & ~(MSG_PEEK|MSG_DONTWAIT)) == 0,
1328:ThirdPackage/lwip220/api/sockets.c ****              set_errno(EOPNOTSUPP); return -1;);
1329:ThirdPackage/lwip220/api/sockets.c **** 
1330:ThirdPackage/lwip220/api/sockets.c ****   if ((message->msg_iovlen <= 0) || (message->msg_iovlen > IOV_MAX)) {
1331:ThirdPackage/lwip220/api/sockets.c ****     set_errno(EMSGSIZE);
1332:ThirdPackage/lwip220/api/sockets.c ****     return -1;
ARM GAS  C:\Users\86188\AppData\Local\Temp\cca48a4Y.s 			page 29


1333:ThirdPackage/lwip220/api/sockets.c ****   }
1334:ThirdPackage/lwip220/api/sockets.c **** 
1335:ThirdPackage/lwip220/api/sockets.c ****   sock = get_socket(s);
1336:ThirdPackage/lwip220/api/sockets.c ****   if (!sock) {
1337:ThirdPackage/lwip220/api/sockets.c ****     return -1;
1338:ThirdPackage/lwip220/api/sockets.c ****   }
1339:ThirdPackage/lwip220/api/sockets.c **** 
1340:ThirdPackage/lwip220/api/sockets.c ****   /* check for valid vectors */
1341:ThirdPackage/lwip220/api/sockets.c ****   buflen = 0;
1342:ThirdPackage/lwip220/api/sockets.c ****   for (i = 0; i < message->msg_iovlen; i++) {
1343:ThirdPackage/lwip220/api/sockets.c ****     if ((message->msg_iov[i].iov_base == NULL) || ((ssize_t)message->msg_iov[i].iov_len <= 0) ||
1344:ThirdPackage/lwip220/api/sockets.c ****         ((size_t)(ssize_t)message->msg_iov[i].iov_len != message->msg_iov[i].iov_len) ||
1345:ThirdPackage/lwip220/api/sockets.c ****         ((ssize_t)(buflen + (ssize_t)message->msg_iov[i].iov_len) <= 0)) {
1346:ThirdPackage/lwip220/api/sockets.c ****       set_errno(err_to_errno(ERR_VAL));
1347:ThirdPackage/lwip220/api/sockets.c ****       done_socket(sock);
1348:ThirdPackage/lwip220/api/sockets.c ****       return -1;
1349:ThirdPackage/lwip220/api/sockets.c ****     }
1350:ThirdPackage/lwip220/api/sockets.c ****     buflen = (ssize_t)(buflen + (ssize_t)message->msg_iov[i].iov_len);
1351:ThirdPackage/lwip220/api/sockets.c ****   }
1352:ThirdPackage/lwip220/api/sockets.c **** 
1353:ThirdPackage/lwip220/api/sockets.c ****   if (NETCONNTYPE_GROUP(netconn_type(sock->conn)) == NETCONN_TCP) {
1354:ThirdPackage/lwip220/api/sockets.c **** #if LWIP_TCP
1355:ThirdPackage/lwip220/api/sockets.c ****     int recv_flags = flags;
1356:ThirdPackage/lwip220/api/sockets.c ****     message->msg_flags = 0;
1357:ThirdPackage/lwip220/api/sockets.c ****     /* recv the data */
1358:ThirdPackage/lwip220/api/sockets.c ****     buflen = 0;
1359:ThirdPackage/lwip220/api/sockets.c ****     for (i = 0; i < message->msg_iovlen; i++) {
1360:ThirdPackage/lwip220/api/sockets.c ****       /* try to receive into this vector's buffer */
1361:ThirdPackage/lwip220/api/sockets.c ****       ssize_t recvd_local = lwip_recv_tcp(sock, message->msg_iov[i].iov_base, message->msg_iov[i].i
1362:ThirdPackage/lwip220/api/sockets.c ****       if (recvd_local > 0) {
1363:ThirdPackage/lwip220/api/sockets.c ****         /* sum up received bytes */
1364:ThirdPackage/lwip220/api/sockets.c ****         buflen += recvd_local;
1365:ThirdPackage/lwip220/api/sockets.c ****       }
1366:ThirdPackage/lwip220/api/sockets.c ****       if ((recvd_local < 0) || (recvd_local < (int)message->msg_iov[i].iov_len) ||
1367:ThirdPackage/lwip220/api/sockets.c ****           (flags & MSG_PEEK)) {
1368:ThirdPackage/lwip220/api/sockets.c ****         /* returned prematurely (or peeking, which might actually be limitated to the first iov) */
1369:ThirdPackage/lwip220/api/sockets.c ****         if (buflen <= 0) {
1370:ThirdPackage/lwip220/api/sockets.c ****           /* nothing received at all, propagate the error */
1371:ThirdPackage/lwip220/api/sockets.c ****           buflen = recvd_local;
1372:ThirdPackage/lwip220/api/sockets.c ****         }
1373:ThirdPackage/lwip220/api/sockets.c ****         break;
1374:ThirdPackage/lwip220/api/sockets.c ****       }
1375:ThirdPackage/lwip220/api/sockets.c ****       /* pass MSG_DONTWAIT to lwip_recv_tcp() to prevent waiting for more data */
1376:ThirdPackage/lwip220/api/sockets.c ****       recv_flags |= MSG_DONTWAIT;
1377:ThirdPackage/lwip220/api/sockets.c ****     }
1378:ThirdPackage/lwip220/api/sockets.c ****     if (buflen > 0) {
1379:ThirdPackage/lwip220/api/sockets.c ****       /* reset socket error since we have received something */
1380:ThirdPackage/lwip220/api/sockets.c ****       set_errno(0);
1381:ThirdPackage/lwip220/api/sockets.c ****     }
1382:ThirdPackage/lwip220/api/sockets.c ****     /* " If the socket is connected, the msg_name and msg_namelen members shall be ignored." */
1383:ThirdPackage/lwip220/api/sockets.c ****     done_socket(sock);
1384:ThirdPackage/lwip220/api/sockets.c ****     return buflen;
1385:ThirdPackage/lwip220/api/sockets.c **** #else /* LWIP_TCP */
1386:ThirdPackage/lwip220/api/sockets.c ****     set_errno(err_to_errno(ERR_ARG));
1387:ThirdPackage/lwip220/api/sockets.c ****     done_socket(sock);
1388:ThirdPackage/lwip220/api/sockets.c ****     return -1;
1389:ThirdPackage/lwip220/api/sockets.c **** #endif /* LWIP_TCP */
ARM GAS  C:\Users\86188\AppData\Local\Temp\cca48a4Y.s 			page 30


1390:ThirdPackage/lwip220/api/sockets.c ****   }
1391:ThirdPackage/lwip220/api/sockets.c ****   /* else, UDP and RAW NETCONNs */
1392:ThirdPackage/lwip220/api/sockets.c **** #if LWIP_UDP || LWIP_RAW
1393:ThirdPackage/lwip220/api/sockets.c ****   {
1394:ThirdPackage/lwip220/api/sockets.c ****     u16_t datagram_len = 0;
1395:ThirdPackage/lwip220/api/sockets.c ****     err_t err;
1396:ThirdPackage/lwip220/api/sockets.c ****     err = lwip_recvfrom_udp_raw(sock, flags, message, &datagram_len, s);
1397:ThirdPackage/lwip220/api/sockets.c ****     if (err != ERR_OK) {
1398:ThirdPackage/lwip220/api/sockets.c ****       LWIP_DEBUGF(SOCKETS_DEBUG, ("lwip_recvmsg[UDP/RAW](%d): buf == NULL, error is \"%s\"!\n",
1399:ThirdPackage/lwip220/api/sockets.c ****                                   s, lwip_strerr(err)));
1400:ThirdPackage/lwip220/api/sockets.c ****       set_errno(err_to_errno(err));
1401:ThirdPackage/lwip220/api/sockets.c ****       done_socket(sock);
1402:ThirdPackage/lwip220/api/sockets.c ****       return -1;
1403:ThirdPackage/lwip220/api/sockets.c ****     }
1404:ThirdPackage/lwip220/api/sockets.c ****     if (datagram_len > buflen) {
1405:ThirdPackage/lwip220/api/sockets.c ****       message->msg_flags |= MSG_TRUNC;
1406:ThirdPackage/lwip220/api/sockets.c ****     }
1407:ThirdPackage/lwip220/api/sockets.c **** 
1408:ThirdPackage/lwip220/api/sockets.c ****     set_errno(0);
1409:ThirdPackage/lwip220/api/sockets.c ****     done_socket(sock);
1410:ThirdPackage/lwip220/api/sockets.c ****     return (int)datagram_len;
1411:ThirdPackage/lwip220/api/sockets.c ****   }
1412:ThirdPackage/lwip220/api/sockets.c **** #else /* LWIP_UDP || LWIP_RAW */
1413:ThirdPackage/lwip220/api/sockets.c ****   set_errno(err_to_errno(ERR_ARG));
1414:ThirdPackage/lwip220/api/sockets.c ****   done_socket(sock);
1415:ThirdPackage/lwip220/api/sockets.c ****   return -1;
1416:ThirdPackage/lwip220/api/sockets.c **** #endif /* LWIP_UDP || LWIP_RAW */
1417:ThirdPackage/lwip220/api/sockets.c **** }
1418:ThirdPackage/lwip220/api/sockets.c **** 
1419:ThirdPackage/lwip220/api/sockets.c **** ssize_t
1420:ThirdPackage/lwip220/api/sockets.c **** lwip_send(int s, const void *data, size_t size, int flags)
1421:ThirdPackage/lwip220/api/sockets.c **** {
1422:ThirdPackage/lwip220/api/sockets.c ****   struct lwip_sock *sock;
1423:ThirdPackage/lwip220/api/sockets.c ****   err_t err;
1424:ThirdPackage/lwip220/api/sockets.c ****   u8_t write_flags;
1425:ThirdPackage/lwip220/api/sockets.c ****   size_t written;
1426:ThirdPackage/lwip220/api/sockets.c **** 
1427:ThirdPackage/lwip220/api/sockets.c ****   LWIP_DEBUGF(SOCKETS_DEBUG, ("lwip_send(%d, data=%p, size=%"SZT_F", flags=0x%x)\n",
1428:ThirdPackage/lwip220/api/sockets.c ****                               s, data, size, flags));
1429:ThirdPackage/lwip220/api/sockets.c **** 
1430:ThirdPackage/lwip220/api/sockets.c ****   sock = get_socket(s);
1431:ThirdPackage/lwip220/api/sockets.c ****   if (!sock) {
1432:ThirdPackage/lwip220/api/sockets.c ****     return -1;
1433:ThirdPackage/lwip220/api/sockets.c ****   }
1434:ThirdPackage/lwip220/api/sockets.c **** 
1435:ThirdPackage/lwip220/api/sockets.c ****   if (NETCONNTYPE_GROUP(netconn_type(sock->conn)) != NETCONN_TCP) {
1436:ThirdPackage/lwip220/api/sockets.c **** #if (LWIP_UDP || LWIP_RAW)
1437:ThirdPackage/lwip220/api/sockets.c ****     done_socket(sock);
1438:ThirdPackage/lwip220/api/sockets.c ****     return lwip_sendto(s, data, size, flags, NULL, 0);
1439:ThirdPackage/lwip220/api/sockets.c **** #else /* (LWIP_UDP || LWIP_RAW) */
1440:ThirdPackage/lwip220/api/sockets.c ****     set_errno(err_to_errno(ERR_ARG));
1441:ThirdPackage/lwip220/api/sockets.c ****     done_socket(sock);
1442:ThirdPackage/lwip220/api/sockets.c ****     return -1;
1443:ThirdPackage/lwip220/api/sockets.c **** #endif /* (LWIP_UDP || LWIP_RAW) */
1444:ThirdPackage/lwip220/api/sockets.c ****   }
1445:ThirdPackage/lwip220/api/sockets.c **** 
1446:ThirdPackage/lwip220/api/sockets.c ****   write_flags = (u8_t)(NETCONN_COPY |
ARM GAS  C:\Users\86188\AppData\Local\Temp\cca48a4Y.s 			page 31


1447:ThirdPackage/lwip220/api/sockets.c ****                        ((flags & MSG_MORE)     ? NETCONN_MORE      : 0) |
1448:ThirdPackage/lwip220/api/sockets.c ****                        ((flags & MSG_DONTWAIT) ? NETCONN_DONTBLOCK : 0));
1449:ThirdPackage/lwip220/api/sockets.c ****   written = 0;
1450:ThirdPackage/lwip220/api/sockets.c ****   err = netconn_write_partly(sock->conn, data, size, write_flags, &written);
1451:ThirdPackage/lwip220/api/sockets.c **** 
1452:ThirdPackage/lwip220/api/sockets.c ****   LWIP_DEBUGF(SOCKETS_DEBUG, ("lwip_send(%d) err=%d written=%"SZT_F"\n", s, err, written));
1453:ThirdPackage/lwip220/api/sockets.c ****   set_errno(err_to_errno(err));
1454:ThirdPackage/lwip220/api/sockets.c ****   done_socket(sock);
1455:ThirdPackage/lwip220/api/sockets.c ****   /* casting 'written' to ssize_t is OK here since the netconn API limits it to SSIZE_MAX */
1456:ThirdPackage/lwip220/api/sockets.c ****   return (err == ERR_OK ? (ssize_t)written : -1);
1457:ThirdPackage/lwip220/api/sockets.c **** }
1458:ThirdPackage/lwip220/api/sockets.c **** 
1459:ThirdPackage/lwip220/api/sockets.c **** ssize_t
1460:ThirdPackage/lwip220/api/sockets.c **** lwip_sendmsg(int s, const struct msghdr *msg, int flags)
1461:ThirdPackage/lwip220/api/sockets.c **** {
1462:ThirdPackage/lwip220/api/sockets.c ****   struct lwip_sock *sock;
1463:ThirdPackage/lwip220/api/sockets.c **** #if LWIP_TCP
1464:ThirdPackage/lwip220/api/sockets.c ****   u8_t write_flags;
1465:ThirdPackage/lwip220/api/sockets.c ****   size_t written;
1466:ThirdPackage/lwip220/api/sockets.c **** #endif
1467:ThirdPackage/lwip220/api/sockets.c ****   err_t err = ERR_OK;
1468:ThirdPackage/lwip220/api/sockets.c **** 
1469:ThirdPackage/lwip220/api/sockets.c ****   sock = get_socket(s);
1470:ThirdPackage/lwip220/api/sockets.c ****   if (!sock) {
1471:ThirdPackage/lwip220/api/sockets.c ****     return -1;
1472:ThirdPackage/lwip220/api/sockets.c ****   }
1473:ThirdPackage/lwip220/api/sockets.c **** 
1474:ThirdPackage/lwip220/api/sockets.c ****   LWIP_ERROR("lwip_sendmsg: invalid msghdr", msg != NULL,
1475:ThirdPackage/lwip220/api/sockets.c ****              set_errno(err_to_errno(ERR_ARG)); done_socket(sock); return -1;);
1476:ThirdPackage/lwip220/api/sockets.c ****   LWIP_ERROR("lwip_sendmsg: invalid msghdr iov", msg->msg_iov != NULL,
1477:ThirdPackage/lwip220/api/sockets.c ****              set_errno(err_to_errno(ERR_ARG)); done_socket(sock); return -1;);
1478:ThirdPackage/lwip220/api/sockets.c ****   LWIP_ERROR("lwip_sendmsg: maximum iovs exceeded", (msg->msg_iovlen > 0) && (msg->msg_iovlen <= IO
1479:ThirdPackage/lwip220/api/sockets.c ****              set_errno(EMSGSIZE); done_socket(sock); return -1;);
1480:ThirdPackage/lwip220/api/sockets.c ****   LWIP_ERROR("lwip_sendmsg: unsupported flags", (flags & ~(MSG_DONTWAIT | MSG_MORE)) == 0,
1481:ThirdPackage/lwip220/api/sockets.c ****              set_errno(EOPNOTSUPP); done_socket(sock); return -1;);
1482:ThirdPackage/lwip220/api/sockets.c **** 
1483:ThirdPackage/lwip220/api/sockets.c ****   LWIP_UNUSED_ARG(msg->msg_control);
1484:ThirdPackage/lwip220/api/sockets.c ****   LWIP_UNUSED_ARG(msg->msg_controllen);
1485:ThirdPackage/lwip220/api/sockets.c ****   LWIP_UNUSED_ARG(msg->msg_flags);
1486:ThirdPackage/lwip220/api/sockets.c **** 
1487:ThirdPackage/lwip220/api/sockets.c ****   if (NETCONNTYPE_GROUP(netconn_type(sock->conn)) == NETCONN_TCP) {
1488:ThirdPackage/lwip220/api/sockets.c **** #if LWIP_TCP
1489:ThirdPackage/lwip220/api/sockets.c ****     write_flags = (u8_t)(NETCONN_COPY |
1490:ThirdPackage/lwip220/api/sockets.c ****                          ((flags & MSG_MORE)     ? NETCONN_MORE      : 0) |
1491:ThirdPackage/lwip220/api/sockets.c ****                          ((flags & MSG_DONTWAIT) ? NETCONN_DONTBLOCK : 0));
1492:ThirdPackage/lwip220/api/sockets.c **** 
1493:ThirdPackage/lwip220/api/sockets.c ****     written = 0;
1494:ThirdPackage/lwip220/api/sockets.c ****     err = netconn_write_vectors_partly(sock->conn, (struct netvector *)msg->msg_iov, (u16_t)msg->ms
1495:ThirdPackage/lwip220/api/sockets.c ****     set_errno(err_to_errno(err));
1496:ThirdPackage/lwip220/api/sockets.c ****     done_socket(sock);
1497:ThirdPackage/lwip220/api/sockets.c ****     /* casting 'written' to ssize_t is OK here since the netconn API limits it to SSIZE_MAX */
1498:ThirdPackage/lwip220/api/sockets.c ****     return (err == ERR_OK ? (ssize_t)written : -1);
1499:ThirdPackage/lwip220/api/sockets.c **** #else /* LWIP_TCP */
1500:ThirdPackage/lwip220/api/sockets.c ****     set_errno(err_to_errno(ERR_ARG));
1501:ThirdPackage/lwip220/api/sockets.c ****     done_socket(sock);
1502:ThirdPackage/lwip220/api/sockets.c ****     return -1;
1503:ThirdPackage/lwip220/api/sockets.c **** #endif /* LWIP_TCP */
ARM GAS  C:\Users\86188\AppData\Local\Temp\cca48a4Y.s 			page 32


1504:ThirdPackage/lwip220/api/sockets.c ****   }
1505:ThirdPackage/lwip220/api/sockets.c ****   /* else, UDP and RAW NETCONNs */
1506:ThirdPackage/lwip220/api/sockets.c **** #if LWIP_UDP || LWIP_RAW
1507:ThirdPackage/lwip220/api/sockets.c ****   {
1508:ThirdPackage/lwip220/api/sockets.c ****     struct netbuf chain_buf;
1509:ThirdPackage/lwip220/api/sockets.c ****     msg_iovlen_t i;
1510:ThirdPackage/lwip220/api/sockets.c ****     ssize_t size = 0;
1511:ThirdPackage/lwip220/api/sockets.c **** 
1512:ThirdPackage/lwip220/api/sockets.c ****     LWIP_UNUSED_ARG(flags);
1513:ThirdPackage/lwip220/api/sockets.c ****     LWIP_ERROR("lwip_sendmsg: invalid msghdr name", (((msg->msg_name == NULL) && (msg->msg_namelen 
1514:ThirdPackage/lwip220/api/sockets.c ****                IS_SOCK_ADDR_LEN_VALID(msg->msg_namelen)),
1515:ThirdPackage/lwip220/api/sockets.c ****                set_errno(err_to_errno(ERR_ARG)); done_socket(sock); return -1;);
1516:ThirdPackage/lwip220/api/sockets.c **** 
1517:ThirdPackage/lwip220/api/sockets.c ****     /* initialize chain buffer with destination */
1518:ThirdPackage/lwip220/api/sockets.c ****     memset(&chain_buf, 0, sizeof(struct netbuf));
1519:ThirdPackage/lwip220/api/sockets.c ****     if (msg->msg_name) {
1520:ThirdPackage/lwip220/api/sockets.c ****       u16_t remote_port;
1521:ThirdPackage/lwip220/api/sockets.c ****       SOCKADDR_TO_IPADDR_PORT((const struct sockaddr *)msg->msg_name, &chain_buf.addr, remote_port)
1522:ThirdPackage/lwip220/api/sockets.c ****       netbuf_fromport(&chain_buf) = remote_port;
1523:ThirdPackage/lwip220/api/sockets.c ****     }
1524:ThirdPackage/lwip220/api/sockets.c **** #if LWIP_NETIF_TX_SINGLE_PBUF
1525:ThirdPackage/lwip220/api/sockets.c ****     for (i = 0; i < msg->msg_iovlen; i++) {
1526:ThirdPackage/lwip220/api/sockets.c ****       size += msg->msg_iov[i].iov_len;
1527:ThirdPackage/lwip220/api/sockets.c ****       if ((msg->msg_iov[i].iov_len > INT_MAX) || (size < (int)msg->msg_iov[i].iov_len)) {
1528:ThirdPackage/lwip220/api/sockets.c ****         /* overflow */
1529:ThirdPackage/lwip220/api/sockets.c ****         goto sendmsg_emsgsize;
1530:ThirdPackage/lwip220/api/sockets.c ****       }
1531:ThirdPackage/lwip220/api/sockets.c ****     }
1532:ThirdPackage/lwip220/api/sockets.c ****     if (size > 0xFFFF) {
1533:ThirdPackage/lwip220/api/sockets.c ****       /* overflow */
1534:ThirdPackage/lwip220/api/sockets.c ****       goto sendmsg_emsgsize;
1535:ThirdPackage/lwip220/api/sockets.c ****     }
1536:ThirdPackage/lwip220/api/sockets.c ****     /* Allocate a new netbuf and copy the data into it. */
1537:ThirdPackage/lwip220/api/sockets.c ****     if (netbuf_alloc(&chain_buf, (u16_t)size) == NULL) {
1538:ThirdPackage/lwip220/api/sockets.c ****       err = ERR_MEM;
1539:ThirdPackage/lwip220/api/sockets.c ****     } else {
1540:ThirdPackage/lwip220/api/sockets.c ****       /* flatten the IO vectors */
1541:ThirdPackage/lwip220/api/sockets.c ****       size_t offset = 0;
1542:ThirdPackage/lwip220/api/sockets.c ****       for (i = 0; i < msg->msg_iovlen; i++) {
1543:ThirdPackage/lwip220/api/sockets.c ****         MEMCPY(&((u8_t *)chain_buf.p->payload)[offset], msg->msg_iov[i].iov_base, msg->msg_iov[i].i
1544:ThirdPackage/lwip220/api/sockets.c ****         offset += msg->msg_iov[i].iov_len;
1545:ThirdPackage/lwip220/api/sockets.c ****       }
1546:ThirdPackage/lwip220/api/sockets.c **** #if LWIP_CHECKSUM_ON_COPY
1547:ThirdPackage/lwip220/api/sockets.c ****       {
1548:ThirdPackage/lwip220/api/sockets.c ****         /* This can be improved by using LWIP_CHKSUM_COPY() and aggregating the checksum for each I
1549:ThirdPackage/lwip220/api/sockets.c ****         u16_t chksum = ~inet_chksum_pbuf(chain_buf.p);
1550:ThirdPackage/lwip220/api/sockets.c ****         netbuf_set_chksum(&chain_buf, chksum);
1551:ThirdPackage/lwip220/api/sockets.c ****       }
1552:ThirdPackage/lwip220/api/sockets.c **** #endif /* LWIP_CHECKSUM_ON_COPY */
1553:ThirdPackage/lwip220/api/sockets.c ****       err = ERR_OK;
1554:ThirdPackage/lwip220/api/sockets.c ****     }
1555:ThirdPackage/lwip220/api/sockets.c **** #else /* LWIP_NETIF_TX_SINGLE_PBUF */
1556:ThirdPackage/lwip220/api/sockets.c ****     /* create a chained netbuf from the IO vectors. NOTE: we assemble a pbuf chain
1557:ThirdPackage/lwip220/api/sockets.c ****        manually to avoid having to allocate, chain, and delete a netbuf for each iov */
1558:ThirdPackage/lwip220/api/sockets.c ****     for (i = 0; i < msg->msg_iovlen; i++) {
1559:ThirdPackage/lwip220/api/sockets.c ****       struct pbuf *p;
1560:ThirdPackage/lwip220/api/sockets.c ****       if (msg->msg_iov[i].iov_len > 0xFFFF) {
ARM GAS  C:\Users\86188\AppData\Local\Temp\cca48a4Y.s 			page 33


1561:ThirdPackage/lwip220/api/sockets.c ****         /* overflow */
1562:ThirdPackage/lwip220/api/sockets.c ****         goto sendmsg_emsgsize;
1563:ThirdPackage/lwip220/api/sockets.c ****       }
1564:ThirdPackage/lwip220/api/sockets.c ****       p = pbuf_alloc(PBUF_TRANSPORT, 0, PBUF_REF);
1565:ThirdPackage/lwip220/api/sockets.c ****       if (p == NULL) {
1566:ThirdPackage/lwip220/api/sockets.c ****         err = ERR_MEM; /* let netbuf_delete() cleanup chain_buf */
1567:ThirdPackage/lwip220/api/sockets.c ****         break;
1568:ThirdPackage/lwip220/api/sockets.c ****       }
1569:ThirdPackage/lwip220/api/sockets.c ****       p->payload = msg->msg_iov[i].iov_base;
1570:ThirdPackage/lwip220/api/sockets.c ****       p->len = p->tot_len = (u16_t)msg->msg_iov[i].iov_len;
1571:ThirdPackage/lwip220/api/sockets.c ****       /* netbuf empty, add new pbuf */
1572:ThirdPackage/lwip220/api/sockets.c ****       if (chain_buf.p == NULL) {
1573:ThirdPackage/lwip220/api/sockets.c ****         chain_buf.p = chain_buf.ptr = p;
1574:ThirdPackage/lwip220/api/sockets.c ****         /* add pbuf to existing pbuf chain */
1575:ThirdPackage/lwip220/api/sockets.c ****       } else {
1576:ThirdPackage/lwip220/api/sockets.c ****         if (chain_buf.p->tot_len + p->len > 0xffff) {
1577:ThirdPackage/lwip220/api/sockets.c ****           /* overflow */
1578:ThirdPackage/lwip220/api/sockets.c ****           pbuf_free(p);
1579:ThirdPackage/lwip220/api/sockets.c ****           goto sendmsg_emsgsize;
1580:ThirdPackage/lwip220/api/sockets.c ****         }
1581:ThirdPackage/lwip220/api/sockets.c ****         pbuf_cat(chain_buf.p, p);
1582:ThirdPackage/lwip220/api/sockets.c ****       }
1583:ThirdPackage/lwip220/api/sockets.c ****     }
1584:ThirdPackage/lwip220/api/sockets.c ****     /* save size of total chain */
1585:ThirdPackage/lwip220/api/sockets.c ****     if (err == ERR_OK) {
1586:ThirdPackage/lwip220/api/sockets.c ****       size = netbuf_len(&chain_buf);
1587:ThirdPackage/lwip220/api/sockets.c ****     }
1588:ThirdPackage/lwip220/api/sockets.c **** #endif /* LWIP_NETIF_TX_SINGLE_PBUF */
1589:ThirdPackage/lwip220/api/sockets.c **** 
1590:ThirdPackage/lwip220/api/sockets.c ****     if (err == ERR_OK) {
1591:ThirdPackage/lwip220/api/sockets.c **** #if LWIP_IPV4 && LWIP_IPV6
1592:ThirdPackage/lwip220/api/sockets.c ****       /* Dual-stack: Unmap IPv4 mapped IPv6 addresses */
1593:ThirdPackage/lwip220/api/sockets.c ****       if (IP_IS_V6_VAL(chain_buf.addr) && ip6_addr_isipv4mappedipv6(ip_2_ip6(&chain_buf.addr))) {
1594:ThirdPackage/lwip220/api/sockets.c ****         unmap_ipv4_mapped_ipv6(ip_2_ip4(&chain_buf.addr), ip_2_ip6(&chain_buf.addr));
1595:ThirdPackage/lwip220/api/sockets.c ****         IP_SET_TYPE_VAL(chain_buf.addr, IPADDR_TYPE_V4);
1596:ThirdPackage/lwip220/api/sockets.c ****       }
1597:ThirdPackage/lwip220/api/sockets.c **** #endif /* LWIP_IPV4 && LWIP_IPV6 */
1598:ThirdPackage/lwip220/api/sockets.c **** 
1599:ThirdPackage/lwip220/api/sockets.c ****       /* send the data */
1600:ThirdPackage/lwip220/api/sockets.c ****       err = netconn_send(sock->conn, &chain_buf);
1601:ThirdPackage/lwip220/api/sockets.c ****     }
1602:ThirdPackage/lwip220/api/sockets.c **** 
1603:ThirdPackage/lwip220/api/sockets.c ****     /* deallocated the buffer */
1604:ThirdPackage/lwip220/api/sockets.c ****     netbuf_free(&chain_buf);
1605:ThirdPackage/lwip220/api/sockets.c **** 
1606:ThirdPackage/lwip220/api/sockets.c ****     set_errno(err_to_errno(err));
1607:ThirdPackage/lwip220/api/sockets.c ****     done_socket(sock);
1608:ThirdPackage/lwip220/api/sockets.c ****     return (err == ERR_OK ? size : -1);
1609:ThirdPackage/lwip220/api/sockets.c **** sendmsg_emsgsize:
1610:ThirdPackage/lwip220/api/sockets.c ****     set_errno(EMSGSIZE);
1611:ThirdPackage/lwip220/api/sockets.c ****     netbuf_free(&chain_buf);
1612:ThirdPackage/lwip220/api/sockets.c ****     done_socket(sock);
1613:ThirdPackage/lwip220/api/sockets.c ****     return -1;
1614:ThirdPackage/lwip220/api/sockets.c ****   }
1615:ThirdPackage/lwip220/api/sockets.c **** #else /* LWIP_UDP || LWIP_RAW */
1616:ThirdPackage/lwip220/api/sockets.c ****   set_errno(err_to_errno(ERR_ARG));
1617:ThirdPackage/lwip220/api/sockets.c ****   done_socket(sock);
ARM GAS  C:\Users\86188\AppData\Local\Temp\cca48a4Y.s 			page 34


1618:ThirdPackage/lwip220/api/sockets.c ****   return -1;
1619:ThirdPackage/lwip220/api/sockets.c **** #endif /* LWIP_UDP || LWIP_RAW */
1620:ThirdPackage/lwip220/api/sockets.c **** }
1621:ThirdPackage/lwip220/api/sockets.c **** 
1622:ThirdPackage/lwip220/api/sockets.c **** ssize_t
1623:ThirdPackage/lwip220/api/sockets.c **** lwip_sendto(int s, const void *data, size_t size, int flags,
1624:ThirdPackage/lwip220/api/sockets.c ****             const struct sockaddr *to, socklen_t tolen)
1625:ThirdPackage/lwip220/api/sockets.c **** {
1626:ThirdPackage/lwip220/api/sockets.c ****   struct lwip_sock *sock;
1627:ThirdPackage/lwip220/api/sockets.c ****   err_t err;
1628:ThirdPackage/lwip220/api/sockets.c ****   u16_t short_size;
1629:ThirdPackage/lwip220/api/sockets.c ****   u16_t remote_port;
1630:ThirdPackage/lwip220/api/sockets.c ****   struct netbuf buf;
1631:ThirdPackage/lwip220/api/sockets.c **** 
1632:ThirdPackage/lwip220/api/sockets.c ****   sock = get_socket(s);
1633:ThirdPackage/lwip220/api/sockets.c ****   if (!sock) {
1634:ThirdPackage/lwip220/api/sockets.c ****     return -1;
1635:ThirdPackage/lwip220/api/sockets.c ****   }
1636:ThirdPackage/lwip220/api/sockets.c **** 
1637:ThirdPackage/lwip220/api/sockets.c ****   if (NETCONNTYPE_GROUP(netconn_type(sock->conn)) == NETCONN_TCP) {
1638:ThirdPackage/lwip220/api/sockets.c **** #if LWIP_TCP
1639:ThirdPackage/lwip220/api/sockets.c ****     done_socket(sock);
1640:ThirdPackage/lwip220/api/sockets.c ****     return lwip_send(s, data, size, flags);
1641:ThirdPackage/lwip220/api/sockets.c **** #else /* LWIP_TCP */
1642:ThirdPackage/lwip220/api/sockets.c ****     LWIP_UNUSED_ARG(flags);
1643:ThirdPackage/lwip220/api/sockets.c ****     set_errno(err_to_errno(ERR_ARG));
1644:ThirdPackage/lwip220/api/sockets.c ****     done_socket(sock);
1645:ThirdPackage/lwip220/api/sockets.c ****     return -1;
1646:ThirdPackage/lwip220/api/sockets.c **** #endif /* LWIP_TCP */
1647:ThirdPackage/lwip220/api/sockets.c ****   }
1648:ThirdPackage/lwip220/api/sockets.c **** 
1649:ThirdPackage/lwip220/api/sockets.c ****   if (size > LWIP_MIN(0xFFFF, SSIZE_MAX)) {
1650:ThirdPackage/lwip220/api/sockets.c ****     /* cannot fit into one datagram (at least for us) */
1651:ThirdPackage/lwip220/api/sockets.c ****     set_errno(EMSGSIZE);
1652:ThirdPackage/lwip220/api/sockets.c ****     done_socket(sock);
1653:ThirdPackage/lwip220/api/sockets.c ****     return -1;
1654:ThirdPackage/lwip220/api/sockets.c ****   }
1655:ThirdPackage/lwip220/api/sockets.c ****   short_size = (u16_t)size;
1656:ThirdPackage/lwip220/api/sockets.c ****   LWIP_ERROR("lwip_sendto: invalid address", (((to == NULL) && (tolen == 0)) ||
1657:ThirdPackage/lwip220/api/sockets.c ****              (IS_SOCK_ADDR_LEN_VALID(tolen) &&
1658:ThirdPackage/lwip220/api/sockets.c ****               ((to != NULL) && (IS_SOCK_ADDR_TYPE_VALID(to) && IS_SOCK_ADDR_ALIGNED(to))))),
1659:ThirdPackage/lwip220/api/sockets.c ****              set_errno(err_to_errno(ERR_ARG)); done_socket(sock); return -1;);
1660:ThirdPackage/lwip220/api/sockets.c ****   LWIP_UNUSED_ARG(tolen);
1661:ThirdPackage/lwip220/api/sockets.c **** 
1662:ThirdPackage/lwip220/api/sockets.c ****   /* initialize a buffer */
1663:ThirdPackage/lwip220/api/sockets.c ****   buf.p = buf.ptr = NULL;
1664:ThirdPackage/lwip220/api/sockets.c **** #if LWIP_CHECKSUM_ON_COPY
1665:ThirdPackage/lwip220/api/sockets.c ****   buf.flags = 0;
1666:ThirdPackage/lwip220/api/sockets.c **** #endif /* LWIP_CHECKSUM_ON_COPY */
1667:ThirdPackage/lwip220/api/sockets.c ****   if (to) {
1668:ThirdPackage/lwip220/api/sockets.c ****     SOCKADDR_TO_IPADDR_PORT(to, &buf.addr, remote_port);
1669:ThirdPackage/lwip220/api/sockets.c ****   } else {
1670:ThirdPackage/lwip220/api/sockets.c ****     remote_port = 0;
1671:ThirdPackage/lwip220/api/sockets.c ****     ip_addr_set_any(NETCONNTYPE_ISIPV6(netconn_type(sock->conn)), &buf.addr);
1672:ThirdPackage/lwip220/api/sockets.c ****   }
1673:ThirdPackage/lwip220/api/sockets.c ****   netbuf_fromport(&buf) = remote_port;
1674:ThirdPackage/lwip220/api/sockets.c **** 
ARM GAS  C:\Users\86188\AppData\Local\Temp\cca48a4Y.s 			page 35


1675:ThirdPackage/lwip220/api/sockets.c **** 
1676:ThirdPackage/lwip220/api/sockets.c ****   LWIP_DEBUGF(SOCKETS_DEBUG, ("lwip_sendto(%d, data=%p, short_size=%"U16_F", flags=0x%x to=",
1677:ThirdPackage/lwip220/api/sockets.c ****                               s, data, short_size, flags));
1678:ThirdPackage/lwip220/api/sockets.c ****   ip_addr_debug_print_val(SOCKETS_DEBUG, buf.addr);
1679:ThirdPackage/lwip220/api/sockets.c ****   LWIP_DEBUGF(SOCKETS_DEBUG, (" port=%"U16_F"\n", remote_port));
1680:ThirdPackage/lwip220/api/sockets.c **** 
1681:ThirdPackage/lwip220/api/sockets.c ****   /* make the buffer point to the data that should be sent */
1682:ThirdPackage/lwip220/api/sockets.c **** #if LWIP_NETIF_TX_SINGLE_PBUF
1683:ThirdPackage/lwip220/api/sockets.c ****   /* Allocate a new netbuf and copy the data into it. */
1684:ThirdPackage/lwip220/api/sockets.c ****   if (netbuf_alloc(&buf, short_size) == NULL) {
1685:ThirdPackage/lwip220/api/sockets.c ****     err = ERR_MEM;
1686:ThirdPackage/lwip220/api/sockets.c ****   } else {
1687:ThirdPackage/lwip220/api/sockets.c **** #if LWIP_CHECKSUM_ON_COPY
1688:ThirdPackage/lwip220/api/sockets.c ****     if (NETCONNTYPE_GROUP(netconn_type(sock->conn)) != NETCONN_RAW) {
1689:ThirdPackage/lwip220/api/sockets.c ****       u16_t chksum = LWIP_CHKSUM_COPY(buf.p->payload, data, short_size);
1690:ThirdPackage/lwip220/api/sockets.c ****       netbuf_set_chksum(&buf, chksum);
1691:ThirdPackage/lwip220/api/sockets.c ****     } else
1692:ThirdPackage/lwip220/api/sockets.c **** #endif /* LWIP_CHECKSUM_ON_COPY */
1693:ThirdPackage/lwip220/api/sockets.c ****     {
1694:ThirdPackage/lwip220/api/sockets.c ****       MEMCPY(buf.p->payload, data, short_size);
1695:ThirdPackage/lwip220/api/sockets.c ****     }
1696:ThirdPackage/lwip220/api/sockets.c ****     err = ERR_OK;
1697:ThirdPackage/lwip220/api/sockets.c ****   }
1698:ThirdPackage/lwip220/api/sockets.c **** #else /* LWIP_NETIF_TX_SINGLE_PBUF */
1699:ThirdPackage/lwip220/api/sockets.c ****   err = netbuf_ref(&buf, data, short_size);
1700:ThirdPackage/lwip220/api/sockets.c **** #endif /* LWIP_NETIF_TX_SINGLE_PBUF */
1701:ThirdPackage/lwip220/api/sockets.c ****   if (err == ERR_OK) {
1702:ThirdPackage/lwip220/api/sockets.c **** #if LWIP_IPV4 && LWIP_IPV6
1703:ThirdPackage/lwip220/api/sockets.c ****     /* Dual-stack: Unmap IPv4 mapped IPv6 addresses */
1704:ThirdPackage/lwip220/api/sockets.c ****     if (IP_IS_V6_VAL(buf.addr) && ip6_addr_isipv4mappedipv6(ip_2_ip6(&buf.addr))) {
1705:ThirdPackage/lwip220/api/sockets.c ****       unmap_ipv4_mapped_ipv6(ip_2_ip4(&buf.addr), ip_2_ip6(&buf.addr));
1706:ThirdPackage/lwip220/api/sockets.c ****       IP_SET_TYPE_VAL(buf.addr, IPADDR_TYPE_V4);
1707:ThirdPackage/lwip220/api/sockets.c ****     }
1708:ThirdPackage/lwip220/api/sockets.c **** #endif /* LWIP_IPV4 && LWIP_IPV6 */
1709:ThirdPackage/lwip220/api/sockets.c **** 
1710:ThirdPackage/lwip220/api/sockets.c ****     /* send the data */
1711:ThirdPackage/lwip220/api/sockets.c ****     err = netconn_send(sock->conn, &buf);
1712:ThirdPackage/lwip220/api/sockets.c ****   }
1713:ThirdPackage/lwip220/api/sockets.c **** 
1714:ThirdPackage/lwip220/api/sockets.c ****   /* deallocated the buffer */
1715:ThirdPackage/lwip220/api/sockets.c ****   netbuf_free(&buf);
1716:ThirdPackage/lwip220/api/sockets.c **** 
1717:ThirdPackage/lwip220/api/sockets.c ****   set_errno(err_to_errno(err));
1718:ThirdPackage/lwip220/api/sockets.c ****   done_socket(sock);
1719:ThirdPackage/lwip220/api/sockets.c ****   return (err == ERR_OK ? short_size : -1);
1720:ThirdPackage/lwip220/api/sockets.c **** }
1721:ThirdPackage/lwip220/api/sockets.c **** 
1722:ThirdPackage/lwip220/api/sockets.c **** int
1723:ThirdPackage/lwip220/api/sockets.c **** lwip_socket(int domain, int type, int protocol)
1724:ThirdPackage/lwip220/api/sockets.c **** {
1725:ThirdPackage/lwip220/api/sockets.c ****   struct netconn *conn;
1726:ThirdPackage/lwip220/api/sockets.c ****   int i;
1727:ThirdPackage/lwip220/api/sockets.c **** 
1728:ThirdPackage/lwip220/api/sockets.c ****   LWIP_UNUSED_ARG(domain); /* @todo: check this */
1729:ThirdPackage/lwip220/api/sockets.c **** 
1730:ThirdPackage/lwip220/api/sockets.c ****   /* create a netconn */
1731:ThirdPackage/lwip220/api/sockets.c ****   switch (type) {
ARM GAS  C:\Users\86188\AppData\Local\Temp\cca48a4Y.s 			page 36


1732:ThirdPackage/lwip220/api/sockets.c ****     case SOCK_RAW:
1733:ThirdPackage/lwip220/api/sockets.c ****       conn = netconn_new_with_proto_and_callback(DOMAIN_TO_NETCONN_TYPE(domain, NETCONN_RAW),
1734:ThirdPackage/lwip220/api/sockets.c ****              (u8_t)protocol, DEFAULT_SOCKET_EVENTCB);
1735:ThirdPackage/lwip220/api/sockets.c ****       LWIP_DEBUGF(SOCKETS_DEBUG, ("lwip_socket(%s, SOCK_RAW, %d) = ",
1736:ThirdPackage/lwip220/api/sockets.c ****                                   domain == PF_INET ? "PF_INET" : "UNKNOWN", protocol));
1737:ThirdPackage/lwip220/api/sockets.c ****       break;
1738:ThirdPackage/lwip220/api/sockets.c ****     case SOCK_DGRAM:
1739:ThirdPackage/lwip220/api/sockets.c ****       conn = netconn_new_with_callback(DOMAIN_TO_NETCONN_TYPE(domain,
1740:ThirdPackage/lwip220/api/sockets.c ****                                        ((protocol == IPPROTO_UDPLITE) ? NETCONN_UDPLITE : NETCONN_U
1741:ThirdPackage/lwip220/api/sockets.c ****                                        DEFAULT_SOCKET_EVENTCB);
1742:ThirdPackage/lwip220/api/sockets.c ****       LWIP_DEBUGF(SOCKETS_DEBUG, ("lwip_socket(%s, SOCK_DGRAM, %d) = ",
1743:ThirdPackage/lwip220/api/sockets.c ****                                   domain == PF_INET ? "PF_INET" : "UNKNOWN", protocol));
1744:ThirdPackage/lwip220/api/sockets.c **** #if LWIP_NETBUF_RECVINFO
1745:ThirdPackage/lwip220/api/sockets.c ****       if (conn) {
1746:ThirdPackage/lwip220/api/sockets.c ****         /* netconn layer enables pktinfo by default, sockets default to off */
1747:ThirdPackage/lwip220/api/sockets.c ****         conn->flags &= ~NETCONN_FLAG_PKTINFO;
1748:ThirdPackage/lwip220/api/sockets.c ****       }
1749:ThirdPackage/lwip220/api/sockets.c **** #endif /* LWIP_NETBUF_RECVINFO */
1750:ThirdPackage/lwip220/api/sockets.c ****       break;
1751:ThirdPackage/lwip220/api/sockets.c ****     case SOCK_STREAM:
1752:ThirdPackage/lwip220/api/sockets.c ****       conn = netconn_new_with_callback(DOMAIN_TO_NETCONN_TYPE(domain, NETCONN_TCP), DEFAULT_SOCKET_
1753:ThirdPackage/lwip220/api/sockets.c ****       LWIP_DEBUGF(SOCKETS_DEBUG, ("lwip_socket(%s, SOCK_STREAM, %d) = ",
1754:ThirdPackage/lwip220/api/sockets.c ****                                   domain == PF_INET ? "PF_INET" : "UNKNOWN", protocol));
1755:ThirdPackage/lwip220/api/sockets.c ****       break;
1756:ThirdPackage/lwip220/api/sockets.c ****     default:
1757:ThirdPackage/lwip220/api/sockets.c ****       LWIP_DEBUGF(SOCKETS_DEBUG, ("lwip_socket(%d, %d/UNKNOWN, %d) = -1\n",
1758:ThirdPackage/lwip220/api/sockets.c ****                                   domain, type, protocol));
1759:ThirdPackage/lwip220/api/sockets.c ****       set_errno(EINVAL);
1760:ThirdPackage/lwip220/api/sockets.c ****       return -1;
1761:ThirdPackage/lwip220/api/sockets.c ****   }
1762:ThirdPackage/lwip220/api/sockets.c **** 
1763:ThirdPackage/lwip220/api/sockets.c ****   if (!conn) {
1764:ThirdPackage/lwip220/api/sockets.c ****     LWIP_DEBUGF(SOCKETS_DEBUG, ("-1 / ENOBUFS (could not create netconn)\n"));
1765:ThirdPackage/lwip220/api/sockets.c ****     set_errno(ENOBUFS);
1766:ThirdPackage/lwip220/api/sockets.c ****     return -1;
1767:ThirdPackage/lwip220/api/sockets.c ****   }
1768:ThirdPackage/lwip220/api/sockets.c **** 
1769:ThirdPackage/lwip220/api/sockets.c ****   i = alloc_socket(conn, 0);
1770:ThirdPackage/lwip220/api/sockets.c **** 
1771:ThirdPackage/lwip220/api/sockets.c ****   if (i == -1) {
1772:ThirdPackage/lwip220/api/sockets.c ****     netconn_delete(conn);
1773:ThirdPackage/lwip220/api/sockets.c ****     set_errno(ENFILE);
1774:ThirdPackage/lwip220/api/sockets.c ****     return -1;
1775:ThirdPackage/lwip220/api/sockets.c ****   }
1776:ThirdPackage/lwip220/api/sockets.c ****   conn->callback_arg.socket = i;
1777:ThirdPackage/lwip220/api/sockets.c ****   done_socket(&sockets[i - LWIP_SOCKET_OFFSET]);
1778:ThirdPackage/lwip220/api/sockets.c ****   LWIP_DEBUGF(SOCKETS_DEBUG, ("%d\n", i));
1779:ThirdPackage/lwip220/api/sockets.c ****   set_errno(0);
1780:ThirdPackage/lwip220/api/sockets.c ****   return i;
1781:ThirdPackage/lwip220/api/sockets.c **** }
1782:ThirdPackage/lwip220/api/sockets.c **** 
1783:ThirdPackage/lwip220/api/sockets.c **** ssize_t
1784:ThirdPackage/lwip220/api/sockets.c **** lwip_write(int s, const void *data, size_t size)
1785:ThirdPackage/lwip220/api/sockets.c **** {
1786:ThirdPackage/lwip220/api/sockets.c ****   return lwip_send(s, data, size, 0);
1787:ThirdPackage/lwip220/api/sockets.c **** }
1788:ThirdPackage/lwip220/api/sockets.c **** 
ARM GAS  C:\Users\86188\AppData\Local\Temp\cca48a4Y.s 			page 37


1789:ThirdPackage/lwip220/api/sockets.c **** ssize_t
1790:ThirdPackage/lwip220/api/sockets.c **** lwip_writev(int s, const struct iovec *iov, int iovcnt)
1791:ThirdPackage/lwip220/api/sockets.c **** {
1792:ThirdPackage/lwip220/api/sockets.c ****   struct msghdr msg;
1793:ThirdPackage/lwip220/api/sockets.c **** 
1794:ThirdPackage/lwip220/api/sockets.c ****   msg.msg_name = NULL;
1795:ThirdPackage/lwip220/api/sockets.c ****   msg.msg_namelen = 0;
1796:ThirdPackage/lwip220/api/sockets.c ****   /* Hack: we have to cast via number to cast from 'const' pointer to non-const.
1797:ThirdPackage/lwip220/api/sockets.c ****      Blame the opengroup standard for this inconsistency. */
1798:ThirdPackage/lwip220/api/sockets.c ****   msg.msg_iov = LWIP_CONST_CAST(struct iovec *, iov);
1799:ThirdPackage/lwip220/api/sockets.c ****   msg.msg_iovlen = iovcnt;
1800:ThirdPackage/lwip220/api/sockets.c ****   msg.msg_control = NULL;
1801:ThirdPackage/lwip220/api/sockets.c ****   msg.msg_controllen = 0;
1802:ThirdPackage/lwip220/api/sockets.c ****   msg.msg_flags = 0;
1803:ThirdPackage/lwip220/api/sockets.c ****   return lwip_sendmsg(s, &msg, 0);
1804:ThirdPackage/lwip220/api/sockets.c **** }
1805:ThirdPackage/lwip220/api/sockets.c **** 
1806:ThirdPackage/lwip220/api/sockets.c **** #if LWIP_SOCKET_SELECT || LWIP_SOCKET_POLL
1807:ThirdPackage/lwip220/api/sockets.c **** /* Add select_cb to select_cb_list. */
1808:ThirdPackage/lwip220/api/sockets.c **** static void
1809:ThirdPackage/lwip220/api/sockets.c **** lwip_link_select_cb(struct lwip_select_cb *select_cb)
1810:ThirdPackage/lwip220/api/sockets.c **** {
1811:ThirdPackage/lwip220/api/sockets.c ****   LWIP_SOCKET_SELECT_DECL_PROTECT(lev);
1812:ThirdPackage/lwip220/api/sockets.c **** 
1813:ThirdPackage/lwip220/api/sockets.c ****   /* Protect the select_cb_list */
1814:ThirdPackage/lwip220/api/sockets.c ****   LWIP_SOCKET_SELECT_PROTECT(lev);
1815:ThirdPackage/lwip220/api/sockets.c **** 
1816:ThirdPackage/lwip220/api/sockets.c ****   /* Put this select_cb on top of list */
1817:ThirdPackage/lwip220/api/sockets.c ****   select_cb->next = select_cb_list;
1818:ThirdPackage/lwip220/api/sockets.c ****   if (select_cb_list != NULL) {
1819:ThirdPackage/lwip220/api/sockets.c ****     select_cb_list->prev = select_cb;
1820:ThirdPackage/lwip220/api/sockets.c ****   }
1821:ThirdPackage/lwip220/api/sockets.c ****   select_cb_list = select_cb;
1822:ThirdPackage/lwip220/api/sockets.c **** #if !LWIP_TCPIP_CORE_LOCKING
1823:ThirdPackage/lwip220/api/sockets.c ****   /* Increasing this counter tells select_check_waiters that the list has changed. */
1824:ThirdPackage/lwip220/api/sockets.c ****   select_cb_ctr++;
1825:ThirdPackage/lwip220/api/sockets.c **** #endif
1826:ThirdPackage/lwip220/api/sockets.c **** 
1827:ThirdPackage/lwip220/api/sockets.c ****   /* Now we can safely unprotect */
1828:ThirdPackage/lwip220/api/sockets.c ****   LWIP_SOCKET_SELECT_UNPROTECT(lev);
1829:ThirdPackage/lwip220/api/sockets.c **** }
1830:ThirdPackage/lwip220/api/sockets.c **** 
1831:ThirdPackage/lwip220/api/sockets.c **** /* Remove select_cb from select_cb_list. */
1832:ThirdPackage/lwip220/api/sockets.c **** static void
1833:ThirdPackage/lwip220/api/sockets.c **** lwip_unlink_select_cb(struct lwip_select_cb *select_cb)
1834:ThirdPackage/lwip220/api/sockets.c **** {
1835:ThirdPackage/lwip220/api/sockets.c ****   LWIP_SOCKET_SELECT_DECL_PROTECT(lev);
1836:ThirdPackage/lwip220/api/sockets.c **** 
1837:ThirdPackage/lwip220/api/sockets.c ****   /* Take us off the list */
1838:ThirdPackage/lwip220/api/sockets.c ****   LWIP_SOCKET_SELECT_PROTECT(lev);
1839:ThirdPackage/lwip220/api/sockets.c ****   if (select_cb->next != NULL) {
1840:ThirdPackage/lwip220/api/sockets.c ****     select_cb->next->prev = select_cb->prev;
1841:ThirdPackage/lwip220/api/sockets.c ****   }
1842:ThirdPackage/lwip220/api/sockets.c ****   if (select_cb_list == select_cb) {
1843:ThirdPackage/lwip220/api/sockets.c ****     LWIP_ASSERT("select_cb->prev == NULL", select_cb->prev == NULL);
1844:ThirdPackage/lwip220/api/sockets.c ****     select_cb_list = select_cb->next;
1845:ThirdPackage/lwip220/api/sockets.c ****   } else {
ARM GAS  C:\Users\86188\AppData\Local\Temp\cca48a4Y.s 			page 38


1846:ThirdPackage/lwip220/api/sockets.c ****     LWIP_ASSERT("select_cb->prev != NULL", select_cb->prev != NULL);
1847:ThirdPackage/lwip220/api/sockets.c ****     select_cb->prev->next = select_cb->next;
1848:ThirdPackage/lwip220/api/sockets.c ****   }
1849:ThirdPackage/lwip220/api/sockets.c **** #if !LWIP_TCPIP_CORE_LOCKING
1850:ThirdPackage/lwip220/api/sockets.c ****   /* Increasing this counter tells select_check_waiters that the list has changed. */
1851:ThirdPackage/lwip220/api/sockets.c ****   select_cb_ctr++;
1852:ThirdPackage/lwip220/api/sockets.c **** #endif
1853:ThirdPackage/lwip220/api/sockets.c ****   LWIP_SOCKET_SELECT_UNPROTECT(lev);
1854:ThirdPackage/lwip220/api/sockets.c **** }
1855:ThirdPackage/lwip220/api/sockets.c **** #endif /* LWIP_SOCKET_SELECT || LWIP_SOCKET_POLL */
1856:ThirdPackage/lwip220/api/sockets.c **** 
1857:ThirdPackage/lwip220/api/sockets.c **** #if LWIP_SOCKET_SELECT
1858:ThirdPackage/lwip220/api/sockets.c **** /**
1859:ThirdPackage/lwip220/api/sockets.c ****  * Go through the readset and writeset lists and see which socket of the sockets
1860:ThirdPackage/lwip220/api/sockets.c ****  * set in the sets has events. On return, readset, writeset and exceptset have
1861:ThirdPackage/lwip220/api/sockets.c ****  * the sockets enabled that had events.
1862:ThirdPackage/lwip220/api/sockets.c ****  *
1863:ThirdPackage/lwip220/api/sockets.c ****  * @param maxfdp1 the highest socket index in the sets
1864:ThirdPackage/lwip220/api/sockets.c ****  * @param readset_in    set of sockets to check for read events
1865:ThirdPackage/lwip220/api/sockets.c ****  * @param writeset_in   set of sockets to check for write events
1866:ThirdPackage/lwip220/api/sockets.c ****  * @param exceptset_in  set of sockets to check for error events
1867:ThirdPackage/lwip220/api/sockets.c ****  * @param readset_out   set of sockets that had read events
1868:ThirdPackage/lwip220/api/sockets.c ****  * @param writeset_out  set of sockets that had write events
1869:ThirdPackage/lwip220/api/sockets.c ****  * @param exceptset_out set os sockets that had error events
1870:ThirdPackage/lwip220/api/sockets.c ****  * @return number of sockets that had events (read/write/exception) (>= 0)
1871:ThirdPackage/lwip220/api/sockets.c ****  */
1872:ThirdPackage/lwip220/api/sockets.c **** static int
1873:ThirdPackage/lwip220/api/sockets.c **** lwip_selscan(int maxfdp1, fd_set *readset_in, fd_set *writeset_in, fd_set *exceptset_in,
1874:ThirdPackage/lwip220/api/sockets.c ****              fd_set *readset_out, fd_set *writeset_out, fd_set *exceptset_out)
1875:ThirdPackage/lwip220/api/sockets.c **** {
1876:ThirdPackage/lwip220/api/sockets.c ****   int i, nready = 0;
1877:ThirdPackage/lwip220/api/sockets.c ****   fd_set lreadset, lwriteset, lexceptset;
1878:ThirdPackage/lwip220/api/sockets.c ****   struct lwip_sock *sock;
1879:ThirdPackage/lwip220/api/sockets.c ****   SYS_ARCH_DECL_PROTECT(lev);
1880:ThirdPackage/lwip220/api/sockets.c **** 
1881:ThirdPackage/lwip220/api/sockets.c ****   FD_ZERO(&lreadset);
1882:ThirdPackage/lwip220/api/sockets.c ****   FD_ZERO(&lwriteset);
1883:ThirdPackage/lwip220/api/sockets.c ****   FD_ZERO(&lexceptset);
1884:ThirdPackage/lwip220/api/sockets.c **** 
1885:ThirdPackage/lwip220/api/sockets.c ****   /* Go through each socket in each list to count number of sockets which
1886:ThirdPackage/lwip220/api/sockets.c ****      currently match */
1887:ThirdPackage/lwip220/api/sockets.c ****   for (i = LWIP_SOCKET_OFFSET; i < maxfdp1; i++) {
1888:ThirdPackage/lwip220/api/sockets.c ****     /* if this FD is not in the set, continue */
1889:ThirdPackage/lwip220/api/sockets.c ****     if (!(readset_in && FD_ISSET(i, readset_in)) &&
1890:ThirdPackage/lwip220/api/sockets.c ****         !(writeset_in && FD_ISSET(i, writeset_in)) &&
1891:ThirdPackage/lwip220/api/sockets.c ****         !(exceptset_in && FD_ISSET(i, exceptset_in))) {
1892:ThirdPackage/lwip220/api/sockets.c ****       continue;
1893:ThirdPackage/lwip220/api/sockets.c ****     }
1894:ThirdPackage/lwip220/api/sockets.c ****     /* First get the socket's status (protected)... */
1895:ThirdPackage/lwip220/api/sockets.c ****     SYS_ARCH_PROTECT(lev);
1896:ThirdPackage/lwip220/api/sockets.c ****     sock = tryget_socket_unconn_locked(i);
1897:ThirdPackage/lwip220/api/sockets.c ****     if (sock != NULL) {
1898:ThirdPackage/lwip220/api/sockets.c ****       void *lastdata = sock->lastdata.pbuf;
1899:ThirdPackage/lwip220/api/sockets.c ****       s16_t rcvevent = sock->rcvevent;
1900:ThirdPackage/lwip220/api/sockets.c ****       u16_t sendevent = sock->sendevent;
1901:ThirdPackage/lwip220/api/sockets.c ****       u16_t errevent = sock->errevent;
1902:ThirdPackage/lwip220/api/sockets.c ****       SYS_ARCH_UNPROTECT(lev);
ARM GAS  C:\Users\86188\AppData\Local\Temp\cca48a4Y.s 			page 39


1903:ThirdPackage/lwip220/api/sockets.c **** 
1904:ThirdPackage/lwip220/api/sockets.c ****       /* ... then examine it: */
1905:ThirdPackage/lwip220/api/sockets.c ****       /* See if netconn of this socket is ready for read */
1906:ThirdPackage/lwip220/api/sockets.c ****       if (readset_in && FD_ISSET(i, readset_in) && ((lastdata != NULL) || (rcvevent > 0))) {
1907:ThirdPackage/lwip220/api/sockets.c ****         FD_SET(i, &lreadset);
1908:ThirdPackage/lwip220/api/sockets.c ****         LWIP_DEBUGF(SOCKETS_DEBUG, ("lwip_selscan: fd=%d ready for reading\n", i));
1909:ThirdPackage/lwip220/api/sockets.c ****         nready++;
1910:ThirdPackage/lwip220/api/sockets.c ****       }
1911:ThirdPackage/lwip220/api/sockets.c ****       /* See if netconn of this socket is ready for write */
1912:ThirdPackage/lwip220/api/sockets.c ****       if (writeset_in && FD_ISSET(i, writeset_in) && (sendevent != 0)) {
1913:ThirdPackage/lwip220/api/sockets.c ****         FD_SET(i, &lwriteset);
1914:ThirdPackage/lwip220/api/sockets.c ****         LWIP_DEBUGF(SOCKETS_DEBUG, ("lwip_selscan: fd=%d ready for writing\n", i));
1915:ThirdPackage/lwip220/api/sockets.c ****         nready++;
1916:ThirdPackage/lwip220/api/sockets.c ****       }
1917:ThirdPackage/lwip220/api/sockets.c ****       /* See if netconn of this socket had an error */
1918:ThirdPackage/lwip220/api/sockets.c ****       if (exceptset_in && FD_ISSET(i, exceptset_in) && (errevent != 0)) {
1919:ThirdPackage/lwip220/api/sockets.c ****         FD_SET(i, &lexceptset);
1920:ThirdPackage/lwip220/api/sockets.c ****         LWIP_DEBUGF(SOCKETS_DEBUG, ("lwip_selscan: fd=%d ready for exception\n", i));
1921:ThirdPackage/lwip220/api/sockets.c ****         nready++;
1922:ThirdPackage/lwip220/api/sockets.c ****       }
1923:ThirdPackage/lwip220/api/sockets.c ****       done_socket(sock);
1924:ThirdPackage/lwip220/api/sockets.c ****     } else {
1925:ThirdPackage/lwip220/api/sockets.c ****       SYS_ARCH_UNPROTECT(lev);
1926:ThirdPackage/lwip220/api/sockets.c ****       /* no a valid open socket */
1927:ThirdPackage/lwip220/api/sockets.c ****       return -1;
1928:ThirdPackage/lwip220/api/sockets.c ****     }
1929:ThirdPackage/lwip220/api/sockets.c ****   }
1930:ThirdPackage/lwip220/api/sockets.c ****   /* copy local sets to the ones provided as arguments */
1931:ThirdPackage/lwip220/api/sockets.c ****   *readset_out = lreadset;
1932:ThirdPackage/lwip220/api/sockets.c ****   *writeset_out = lwriteset;
1933:ThirdPackage/lwip220/api/sockets.c ****   *exceptset_out = lexceptset;
1934:ThirdPackage/lwip220/api/sockets.c **** 
1935:ThirdPackage/lwip220/api/sockets.c ****   LWIP_ASSERT("nready >= 0", nready >= 0);
1936:ThirdPackage/lwip220/api/sockets.c ****   return nready;
1937:ThirdPackage/lwip220/api/sockets.c **** }
1938:ThirdPackage/lwip220/api/sockets.c **** 
1939:ThirdPackage/lwip220/api/sockets.c **** #if LWIP_NETCONN_FULLDUPLEX
1940:ThirdPackage/lwip220/api/sockets.c **** /* Mark all of the set sockets in one of the three fdsets passed to select as used.
1941:ThirdPackage/lwip220/api/sockets.c ****  * All sockets are marked (and later unmarked), whether they are open or not.
1942:ThirdPackage/lwip220/api/sockets.c ****  * This is OK as lwip_selscan aborts select when non-open sockets are found.
1943:ThirdPackage/lwip220/api/sockets.c ****  */
1944:ThirdPackage/lwip220/api/sockets.c **** static void
1945:ThirdPackage/lwip220/api/sockets.c **** lwip_select_inc_sockets_used_set(int maxfdp, fd_set *fdset, fd_set *used_sockets)
1946:ThirdPackage/lwip220/api/sockets.c **** {
1947:ThirdPackage/lwip220/api/sockets.c ****   SYS_ARCH_DECL_PROTECT(lev);
1948:ThirdPackage/lwip220/api/sockets.c ****   if (fdset) {
1949:ThirdPackage/lwip220/api/sockets.c ****     int i;
1950:ThirdPackage/lwip220/api/sockets.c ****     for (i = LWIP_SOCKET_OFFSET; i < maxfdp; i++) {
1951:ThirdPackage/lwip220/api/sockets.c ****       /* if this FD is in the set, lock it (unless already done) */
1952:ThirdPackage/lwip220/api/sockets.c ****       if (FD_ISSET(i, fdset) && !FD_ISSET(i, used_sockets)) {
1953:ThirdPackage/lwip220/api/sockets.c ****         struct lwip_sock *sock;
1954:ThirdPackage/lwip220/api/sockets.c ****         SYS_ARCH_PROTECT(lev);
1955:ThirdPackage/lwip220/api/sockets.c ****         sock = tryget_socket_unconn_locked(i);
1956:ThirdPackage/lwip220/api/sockets.c ****         if (sock != NULL) {
1957:ThirdPackage/lwip220/api/sockets.c ****           /* leave the socket used until released by lwip_select_dec_sockets_used */
1958:ThirdPackage/lwip220/api/sockets.c ****           FD_SET(i, used_sockets);
1959:ThirdPackage/lwip220/api/sockets.c ****         }
ARM GAS  C:\Users\86188\AppData\Local\Temp\cca48a4Y.s 			page 40


1960:ThirdPackage/lwip220/api/sockets.c ****         SYS_ARCH_UNPROTECT(lev);
1961:ThirdPackage/lwip220/api/sockets.c ****       }
1962:ThirdPackage/lwip220/api/sockets.c ****     }
1963:ThirdPackage/lwip220/api/sockets.c ****   }
1964:ThirdPackage/lwip220/api/sockets.c **** }
1965:ThirdPackage/lwip220/api/sockets.c **** 
1966:ThirdPackage/lwip220/api/sockets.c **** /* Mark all sockets passed to select as used to prevent them from being freed
1967:ThirdPackage/lwip220/api/sockets.c ****  * from other threads while select is running.
1968:ThirdPackage/lwip220/api/sockets.c ****  * Marked sockets are added to 'used_sockets' to mark them only once an be able
1969:ThirdPackage/lwip220/api/sockets.c ****  * to unmark them correctly.
1970:ThirdPackage/lwip220/api/sockets.c ****  */
1971:ThirdPackage/lwip220/api/sockets.c **** static void
1972:ThirdPackage/lwip220/api/sockets.c **** lwip_select_inc_sockets_used(int maxfdp, fd_set *fdset1, fd_set *fdset2, fd_set *fdset3, fd_set *us
1973:ThirdPackage/lwip220/api/sockets.c **** {
1974:ThirdPackage/lwip220/api/sockets.c ****   FD_ZERO(used_sockets);
1975:ThirdPackage/lwip220/api/sockets.c ****   lwip_select_inc_sockets_used_set(maxfdp, fdset1, used_sockets);
1976:ThirdPackage/lwip220/api/sockets.c ****   lwip_select_inc_sockets_used_set(maxfdp, fdset2, used_sockets);
1977:ThirdPackage/lwip220/api/sockets.c ****   lwip_select_inc_sockets_used_set(maxfdp, fdset3, used_sockets);
1978:ThirdPackage/lwip220/api/sockets.c **** }
1979:ThirdPackage/lwip220/api/sockets.c **** 
1980:ThirdPackage/lwip220/api/sockets.c **** /* Let go all sockets that were marked as used when starting select */
1981:ThirdPackage/lwip220/api/sockets.c **** static void
1982:ThirdPackage/lwip220/api/sockets.c **** lwip_select_dec_sockets_used(int maxfdp, fd_set *used_sockets)
1983:ThirdPackage/lwip220/api/sockets.c **** {
1984:ThirdPackage/lwip220/api/sockets.c ****   int i;
1985:ThirdPackage/lwip220/api/sockets.c ****   for (i = LWIP_SOCKET_OFFSET; i < maxfdp; i++) {
1986:ThirdPackage/lwip220/api/sockets.c ****     /* if this FD is not in the set, continue */
1987:ThirdPackage/lwip220/api/sockets.c ****     if (FD_ISSET(i, used_sockets)) {
1988:ThirdPackage/lwip220/api/sockets.c ****       struct lwip_sock *sock = tryget_socket_unconn_nouse(i);
1989:ThirdPackage/lwip220/api/sockets.c ****       LWIP_ASSERT("socket gone at the end of select", sock != NULL);
1990:ThirdPackage/lwip220/api/sockets.c ****       if (sock != NULL) {
1991:ThirdPackage/lwip220/api/sockets.c ****         done_socket(sock);
1992:ThirdPackage/lwip220/api/sockets.c ****       }
1993:ThirdPackage/lwip220/api/sockets.c ****     }
1994:ThirdPackage/lwip220/api/sockets.c ****   }
1995:ThirdPackage/lwip220/api/sockets.c **** }
1996:ThirdPackage/lwip220/api/sockets.c **** #else /* LWIP_NETCONN_FULLDUPLEX */
1997:ThirdPackage/lwip220/api/sockets.c **** #define lwip_select_inc_sockets_used(maxfdp1, readset, writeset, exceptset, used_sockets)
1998:ThirdPackage/lwip220/api/sockets.c **** #define lwip_select_dec_sockets_used(maxfdp1, used_sockets)
1999:ThirdPackage/lwip220/api/sockets.c **** #endif /* LWIP_NETCONN_FULLDUPLEX */
2000:ThirdPackage/lwip220/api/sockets.c **** 
2001:ThirdPackage/lwip220/api/sockets.c **** int
2002:ThirdPackage/lwip220/api/sockets.c **** lwip_select(int maxfdp1, fd_set *readset, fd_set *writeset, fd_set *exceptset,
2003:ThirdPackage/lwip220/api/sockets.c ****             struct timeval *timeout)
2004:ThirdPackage/lwip220/api/sockets.c **** {
2005:ThirdPackage/lwip220/api/sockets.c ****   u32_t waitres = 0;
2006:ThirdPackage/lwip220/api/sockets.c ****   int nready;
2007:ThirdPackage/lwip220/api/sockets.c ****   fd_set lreadset, lwriteset, lexceptset;
2008:ThirdPackage/lwip220/api/sockets.c ****   u32_t msectimeout;
2009:ThirdPackage/lwip220/api/sockets.c ****   int i;
2010:ThirdPackage/lwip220/api/sockets.c ****   int maxfdp2;
2011:ThirdPackage/lwip220/api/sockets.c **** #if LWIP_NETCONN_SEM_PER_THREAD
2012:ThirdPackage/lwip220/api/sockets.c ****   int waited = 0;
2013:ThirdPackage/lwip220/api/sockets.c **** #endif
2014:ThirdPackage/lwip220/api/sockets.c **** #if LWIP_NETCONN_FULLDUPLEX
2015:ThirdPackage/lwip220/api/sockets.c ****   fd_set used_sockets;
2016:ThirdPackage/lwip220/api/sockets.c **** #endif
ARM GAS  C:\Users\86188\AppData\Local\Temp\cca48a4Y.s 			page 41


2017:ThirdPackage/lwip220/api/sockets.c ****   SYS_ARCH_DECL_PROTECT(lev);
2018:ThirdPackage/lwip220/api/sockets.c **** 
2019:ThirdPackage/lwip220/api/sockets.c ****   LWIP_DEBUGF(SOCKETS_DEBUG, ("lwip_select(%d, %p, %p, %p, tvsec=%"S32_F" tvusec=%"S32_F")\n",
2020:ThirdPackage/lwip220/api/sockets.c ****                               maxfdp1, (void *)readset, (void *) writeset, (void *) exceptset,
2021:ThirdPackage/lwip220/api/sockets.c ****                               timeout ? (s32_t)timeout->tv_sec : (s32_t) - 1,
2022:ThirdPackage/lwip220/api/sockets.c ****                               timeout ? (s32_t)timeout->tv_usec : (s32_t) - 1));
2023:ThirdPackage/lwip220/api/sockets.c **** 
2024:ThirdPackage/lwip220/api/sockets.c ****   if ((maxfdp1 < 0) || (maxfdp1 > LWIP_SELECT_MAXNFDS)) {
2025:ThirdPackage/lwip220/api/sockets.c ****     set_errno(EINVAL);
2026:ThirdPackage/lwip220/api/sockets.c ****     return -1;
2027:ThirdPackage/lwip220/api/sockets.c ****   }
2028:ThirdPackage/lwip220/api/sockets.c **** 
2029:ThirdPackage/lwip220/api/sockets.c ****   lwip_select_inc_sockets_used(maxfdp1, readset, writeset, exceptset, &used_sockets);
2030:ThirdPackage/lwip220/api/sockets.c **** 
2031:ThirdPackage/lwip220/api/sockets.c ****   /* Go through each socket in each list to count number of sockets which
2032:ThirdPackage/lwip220/api/sockets.c ****      currently match */
2033:ThirdPackage/lwip220/api/sockets.c ****   nready = lwip_selscan(maxfdp1, readset, writeset, exceptset, &lreadset, &lwriteset, &lexceptset);
2034:ThirdPackage/lwip220/api/sockets.c **** 
2035:ThirdPackage/lwip220/api/sockets.c ****   if (nready < 0) {
2036:ThirdPackage/lwip220/api/sockets.c ****     /* one of the sockets in one of the fd_sets was invalid */
2037:ThirdPackage/lwip220/api/sockets.c ****     set_errno(EBADF);
2038:ThirdPackage/lwip220/api/sockets.c ****     lwip_select_dec_sockets_used(maxfdp1, &used_sockets);
2039:ThirdPackage/lwip220/api/sockets.c ****     return -1;
2040:ThirdPackage/lwip220/api/sockets.c ****   } else if (nready > 0) {
2041:ThirdPackage/lwip220/api/sockets.c ****     /* one or more sockets are set, no need to wait */
2042:ThirdPackage/lwip220/api/sockets.c ****     LWIP_DEBUGF(SOCKETS_DEBUG, ("lwip_select: nready=%d\n", nready));
2043:ThirdPackage/lwip220/api/sockets.c ****   } else {
2044:ThirdPackage/lwip220/api/sockets.c ****     /* If we don't have any current events, then suspend if we are supposed to */
2045:ThirdPackage/lwip220/api/sockets.c ****     if (timeout && timeout->tv_sec == 0 && timeout->tv_usec == 0) {
2046:ThirdPackage/lwip220/api/sockets.c ****       LWIP_DEBUGF(SOCKETS_DEBUG, ("lwip_select: no timeout, returning 0\n"));
2047:ThirdPackage/lwip220/api/sockets.c ****       /* This is OK as the local fdsets are empty and nready is zero,
2048:ThirdPackage/lwip220/api/sockets.c ****          or we would have returned earlier. */
2049:ThirdPackage/lwip220/api/sockets.c ****     } else {
2050:ThirdPackage/lwip220/api/sockets.c ****       /* None ready: add our semaphore to list:
2051:ThirdPackage/lwip220/api/sockets.c ****          We don't actually need any dynamic memory. Our entry on the
2052:ThirdPackage/lwip220/api/sockets.c ****          list is only valid while we are in this function, so it's ok
2053:ThirdPackage/lwip220/api/sockets.c ****          to use local variables (unless we're running in MPU compatible
2054:ThirdPackage/lwip220/api/sockets.c ****          mode). */
2055:ThirdPackage/lwip220/api/sockets.c ****       API_SELECT_CB_VAR_DECLARE(select_cb);
2056:ThirdPackage/lwip220/api/sockets.c ****       API_SELECT_CB_VAR_ALLOC(select_cb, set_errno(ENOMEM); lwip_select_dec_sockets_used(maxfdp1, &
2057:ThirdPackage/lwip220/api/sockets.c ****       memset(&API_SELECT_CB_VAR_REF(select_cb), 0, sizeof(struct lwip_select_cb));
2058:ThirdPackage/lwip220/api/sockets.c **** 
2059:ThirdPackage/lwip220/api/sockets.c ****       API_SELECT_CB_VAR_REF(select_cb).readset = readset;
2060:ThirdPackage/lwip220/api/sockets.c ****       API_SELECT_CB_VAR_REF(select_cb).writeset = writeset;
2061:ThirdPackage/lwip220/api/sockets.c ****       API_SELECT_CB_VAR_REF(select_cb).exceptset = exceptset;
2062:ThirdPackage/lwip220/api/sockets.c **** #if LWIP_NETCONN_SEM_PER_THREAD
2063:ThirdPackage/lwip220/api/sockets.c ****       API_SELECT_CB_VAR_REF(select_cb).sem = LWIP_NETCONN_THREAD_SEM_GET();
2064:ThirdPackage/lwip220/api/sockets.c **** #else /* LWIP_NETCONN_SEM_PER_THREAD */
2065:ThirdPackage/lwip220/api/sockets.c ****       if (sys_sem_new(&API_SELECT_CB_VAR_REF(select_cb).sem, 0) != ERR_OK) {
2066:ThirdPackage/lwip220/api/sockets.c ****         /* failed to create semaphore */
2067:ThirdPackage/lwip220/api/sockets.c ****         set_errno(ENOMEM);
2068:ThirdPackage/lwip220/api/sockets.c ****         lwip_select_dec_sockets_used(maxfdp1, &used_sockets);
2069:ThirdPackage/lwip220/api/sockets.c ****         API_SELECT_CB_VAR_FREE(select_cb);
2070:ThirdPackage/lwip220/api/sockets.c ****         return -1;
2071:ThirdPackage/lwip220/api/sockets.c ****       }
2072:ThirdPackage/lwip220/api/sockets.c **** #endif /* LWIP_NETCONN_SEM_PER_THREAD */
2073:ThirdPackage/lwip220/api/sockets.c **** 
ARM GAS  C:\Users\86188\AppData\Local\Temp\cca48a4Y.s 			page 42


2074:ThirdPackage/lwip220/api/sockets.c ****       lwip_link_select_cb(&API_SELECT_CB_VAR_REF(select_cb));
2075:ThirdPackage/lwip220/api/sockets.c **** 
2076:ThirdPackage/lwip220/api/sockets.c ****       /* Increase select_waiting for each socket we are interested in */
2077:ThirdPackage/lwip220/api/sockets.c ****       maxfdp2 = maxfdp1;
2078:ThirdPackage/lwip220/api/sockets.c ****       for (i = LWIP_SOCKET_OFFSET; i < maxfdp1; i++) {
2079:ThirdPackage/lwip220/api/sockets.c ****         if ((readset && FD_ISSET(i, readset)) ||
2080:ThirdPackage/lwip220/api/sockets.c ****             (writeset && FD_ISSET(i, writeset)) ||
2081:ThirdPackage/lwip220/api/sockets.c ****             (exceptset && FD_ISSET(i, exceptset))) {
2082:ThirdPackage/lwip220/api/sockets.c ****           struct lwip_sock *sock;
2083:ThirdPackage/lwip220/api/sockets.c ****           SYS_ARCH_PROTECT(lev);
2084:ThirdPackage/lwip220/api/sockets.c ****           sock = tryget_socket_unconn_locked(i);
2085:ThirdPackage/lwip220/api/sockets.c ****           if (sock != NULL) {
2086:ThirdPackage/lwip220/api/sockets.c ****             sock->select_waiting++;
2087:ThirdPackage/lwip220/api/sockets.c ****             if (sock->select_waiting == 0) {
2088:ThirdPackage/lwip220/api/sockets.c ****               /* overflow - too many threads waiting */
2089:ThirdPackage/lwip220/api/sockets.c ****               sock->select_waiting--;
2090:ThirdPackage/lwip220/api/sockets.c ****               nready = -1;
2091:ThirdPackage/lwip220/api/sockets.c ****               maxfdp2 = i;
2092:ThirdPackage/lwip220/api/sockets.c ****               SYS_ARCH_UNPROTECT(lev);
2093:ThirdPackage/lwip220/api/sockets.c ****               done_socket(sock);
2094:ThirdPackage/lwip220/api/sockets.c ****               set_errno(EBUSY);
2095:ThirdPackage/lwip220/api/sockets.c ****               break;
2096:ThirdPackage/lwip220/api/sockets.c ****             }
2097:ThirdPackage/lwip220/api/sockets.c ****             SYS_ARCH_UNPROTECT(lev);
2098:ThirdPackage/lwip220/api/sockets.c ****             done_socket(sock);
2099:ThirdPackage/lwip220/api/sockets.c ****           } else {
2100:ThirdPackage/lwip220/api/sockets.c ****             /* Not a valid socket */
2101:ThirdPackage/lwip220/api/sockets.c ****             nready = -1;
2102:ThirdPackage/lwip220/api/sockets.c ****             maxfdp2 = i;
2103:ThirdPackage/lwip220/api/sockets.c ****             SYS_ARCH_UNPROTECT(lev);
2104:ThirdPackage/lwip220/api/sockets.c ****             set_errno(EBADF);
2105:ThirdPackage/lwip220/api/sockets.c ****             break;
2106:ThirdPackage/lwip220/api/sockets.c ****           }
2107:ThirdPackage/lwip220/api/sockets.c ****         }
2108:ThirdPackage/lwip220/api/sockets.c ****       }
2109:ThirdPackage/lwip220/api/sockets.c **** 
2110:ThirdPackage/lwip220/api/sockets.c ****       if (nready >= 0) {
2111:ThirdPackage/lwip220/api/sockets.c ****         /* Call lwip_selscan again: there could have been events between
2112:ThirdPackage/lwip220/api/sockets.c ****            the last scan (without us on the list) and putting us on the list! */
2113:ThirdPackage/lwip220/api/sockets.c ****         nready = lwip_selscan(maxfdp1, readset, writeset, exceptset, &lreadset, &lwriteset, &lexcep
2114:ThirdPackage/lwip220/api/sockets.c ****         if (nready < 0) {
2115:ThirdPackage/lwip220/api/sockets.c ****           set_errno(EBADF);
2116:ThirdPackage/lwip220/api/sockets.c ****         } else if (!nready) {
2117:ThirdPackage/lwip220/api/sockets.c ****           /* Still none ready, just wait to be woken */
2118:ThirdPackage/lwip220/api/sockets.c ****           if (timeout == NULL) {
2119:ThirdPackage/lwip220/api/sockets.c ****             /* Wait forever */
2120:ThirdPackage/lwip220/api/sockets.c ****             msectimeout = 0;
2121:ThirdPackage/lwip220/api/sockets.c ****           } else {
2122:ThirdPackage/lwip220/api/sockets.c ****             long msecs_long = ((timeout->tv_sec * 1000) + ((timeout->tv_usec + 500) / 1000));
2123:ThirdPackage/lwip220/api/sockets.c ****             if (msecs_long <= 0) {
2124:ThirdPackage/lwip220/api/sockets.c ****               /* Wait 1ms at least (0 means wait forever) */
2125:ThirdPackage/lwip220/api/sockets.c ****               msectimeout = 1;
2126:ThirdPackage/lwip220/api/sockets.c ****             } else {
2127:ThirdPackage/lwip220/api/sockets.c ****               msectimeout = (u32_t)msecs_long;
2128:ThirdPackage/lwip220/api/sockets.c ****             }
2129:ThirdPackage/lwip220/api/sockets.c ****           }
2130:ThirdPackage/lwip220/api/sockets.c **** 
ARM GAS  C:\Users\86188\AppData\Local\Temp\cca48a4Y.s 			page 43


2131:ThirdPackage/lwip220/api/sockets.c ****           waitres = sys_arch_sem_wait(SELECT_SEM_PTR(API_SELECT_CB_VAR_REF(select_cb).sem), msectim
2132:ThirdPackage/lwip220/api/sockets.c **** #if LWIP_NETCONN_SEM_PER_THREAD
2133:ThirdPackage/lwip220/api/sockets.c ****           waited = 1;
2134:ThirdPackage/lwip220/api/sockets.c **** #endif
2135:ThirdPackage/lwip220/api/sockets.c ****         }
2136:ThirdPackage/lwip220/api/sockets.c ****       }
2137:ThirdPackage/lwip220/api/sockets.c **** 
2138:ThirdPackage/lwip220/api/sockets.c ****       /* Decrease select_waiting for each socket we are interested in */
2139:ThirdPackage/lwip220/api/sockets.c ****       for (i = LWIP_SOCKET_OFFSET; i < maxfdp2; i++) {
2140:ThirdPackage/lwip220/api/sockets.c ****         if ((readset && FD_ISSET(i, readset)) ||
2141:ThirdPackage/lwip220/api/sockets.c ****             (writeset && FD_ISSET(i, writeset)) ||
2142:ThirdPackage/lwip220/api/sockets.c ****             (exceptset && FD_ISSET(i, exceptset))) {
2143:ThirdPackage/lwip220/api/sockets.c ****           struct lwip_sock *sock;
2144:ThirdPackage/lwip220/api/sockets.c ****           SYS_ARCH_PROTECT(lev);
2145:ThirdPackage/lwip220/api/sockets.c ****           sock = tryget_socket_unconn_nouse(i);
2146:ThirdPackage/lwip220/api/sockets.c ****           LWIP_ASSERT("socket gone at the end of select", sock != NULL);
2147:ThirdPackage/lwip220/api/sockets.c ****           if (sock != NULL) {
2148:ThirdPackage/lwip220/api/sockets.c ****             /* for now, handle select_waiting==0... */
2149:ThirdPackage/lwip220/api/sockets.c ****             LWIP_ASSERT("sock->select_waiting > 0", sock->select_waiting > 0);
2150:ThirdPackage/lwip220/api/sockets.c ****             if (sock->select_waiting > 0) {
2151:ThirdPackage/lwip220/api/sockets.c ****               sock->select_waiting--;
2152:ThirdPackage/lwip220/api/sockets.c ****             }
2153:ThirdPackage/lwip220/api/sockets.c ****             SYS_ARCH_UNPROTECT(lev);
2154:ThirdPackage/lwip220/api/sockets.c ****           } else {
2155:ThirdPackage/lwip220/api/sockets.c ****             SYS_ARCH_UNPROTECT(lev);
2156:ThirdPackage/lwip220/api/sockets.c ****             /* Not a valid socket */
2157:ThirdPackage/lwip220/api/sockets.c ****             nready = -1;
2158:ThirdPackage/lwip220/api/sockets.c ****             set_errno(EBADF);
2159:ThirdPackage/lwip220/api/sockets.c ****           }
2160:ThirdPackage/lwip220/api/sockets.c ****         }
2161:ThirdPackage/lwip220/api/sockets.c ****       }
2162:ThirdPackage/lwip220/api/sockets.c **** 
2163:ThirdPackage/lwip220/api/sockets.c ****       lwip_unlink_select_cb(&API_SELECT_CB_VAR_REF(select_cb));
2164:ThirdPackage/lwip220/api/sockets.c **** 
2165:ThirdPackage/lwip220/api/sockets.c **** #if LWIP_NETCONN_SEM_PER_THREAD
2166:ThirdPackage/lwip220/api/sockets.c ****       if (API_SELECT_CB_VAR_REF(select_cb).sem_signalled && (!waited || (waitres == SYS_ARCH_TIMEOU
2167:ThirdPackage/lwip220/api/sockets.c ****         /* don't leave the thread-local semaphore signalled */
2168:ThirdPackage/lwip220/api/sockets.c ****         sys_arch_sem_wait(API_SELECT_CB_VAR_REF(select_cb).sem, 1);
2169:ThirdPackage/lwip220/api/sockets.c ****       }
2170:ThirdPackage/lwip220/api/sockets.c **** #else /* LWIP_NETCONN_SEM_PER_THREAD */
2171:ThirdPackage/lwip220/api/sockets.c ****       sys_sem_free(&API_SELECT_CB_VAR_REF(select_cb).sem);
2172:ThirdPackage/lwip220/api/sockets.c **** #endif /* LWIP_NETCONN_SEM_PER_THREAD */
2173:ThirdPackage/lwip220/api/sockets.c ****       API_SELECT_CB_VAR_FREE(select_cb);
2174:ThirdPackage/lwip220/api/sockets.c **** 
2175:ThirdPackage/lwip220/api/sockets.c ****       if (nready < 0) {
2176:ThirdPackage/lwip220/api/sockets.c ****         /* This happens when a socket got closed while waiting */
2177:ThirdPackage/lwip220/api/sockets.c ****         lwip_select_dec_sockets_used(maxfdp1, &used_sockets);
2178:ThirdPackage/lwip220/api/sockets.c ****         return -1;
2179:ThirdPackage/lwip220/api/sockets.c ****       }
2180:ThirdPackage/lwip220/api/sockets.c **** 
2181:ThirdPackage/lwip220/api/sockets.c ****       if (waitres == SYS_ARCH_TIMEOUT) {
2182:ThirdPackage/lwip220/api/sockets.c ****         /* Timeout */
2183:ThirdPackage/lwip220/api/sockets.c ****         LWIP_DEBUGF(SOCKETS_DEBUG, ("lwip_select: timeout expired\n"));
2184:ThirdPackage/lwip220/api/sockets.c ****         /* This is OK as the local fdsets are empty and nready is zero,
2185:ThirdPackage/lwip220/api/sockets.c ****            or we would have returned earlier. */
2186:ThirdPackage/lwip220/api/sockets.c ****       } else {
2187:ThirdPackage/lwip220/api/sockets.c ****         /* See what's set now after waiting */
ARM GAS  C:\Users\86188\AppData\Local\Temp\cca48a4Y.s 			page 44


2188:ThirdPackage/lwip220/api/sockets.c ****         nready = lwip_selscan(maxfdp1, readset, writeset, exceptset, &lreadset, &lwriteset, &lexcep
2189:ThirdPackage/lwip220/api/sockets.c ****         LWIP_DEBUGF(SOCKETS_DEBUG, ("lwip_select: nready=%d\n", nready));
2190:ThirdPackage/lwip220/api/sockets.c ****         if (nready < 0) {
2191:ThirdPackage/lwip220/api/sockets.c ****           set_errno(EBADF);
2192:ThirdPackage/lwip220/api/sockets.c ****           lwip_select_dec_sockets_used(maxfdp1, &used_sockets);
2193:ThirdPackage/lwip220/api/sockets.c ****           return -1;
2194:ThirdPackage/lwip220/api/sockets.c ****         }
2195:ThirdPackage/lwip220/api/sockets.c ****       }
2196:ThirdPackage/lwip220/api/sockets.c ****     }
2197:ThirdPackage/lwip220/api/sockets.c ****   }
2198:ThirdPackage/lwip220/api/sockets.c **** 
2199:ThirdPackage/lwip220/api/sockets.c ****   lwip_select_dec_sockets_used(maxfdp1, &used_sockets);
2200:ThirdPackage/lwip220/api/sockets.c ****   set_errno(0);
2201:ThirdPackage/lwip220/api/sockets.c ****   if (readset) {
2202:ThirdPackage/lwip220/api/sockets.c ****     *readset = lreadset;
2203:ThirdPackage/lwip220/api/sockets.c ****   }
2204:ThirdPackage/lwip220/api/sockets.c ****   if (writeset) {
2205:ThirdPackage/lwip220/api/sockets.c ****     *writeset = lwriteset;
2206:ThirdPackage/lwip220/api/sockets.c ****   }
2207:ThirdPackage/lwip220/api/sockets.c ****   if (exceptset) {
2208:ThirdPackage/lwip220/api/sockets.c ****     *exceptset = lexceptset;
2209:ThirdPackage/lwip220/api/sockets.c ****   }
2210:ThirdPackage/lwip220/api/sockets.c ****   return nready;
2211:ThirdPackage/lwip220/api/sockets.c **** }
2212:ThirdPackage/lwip220/api/sockets.c **** #endif /* LWIP_SOCKET_SELECT */
2213:ThirdPackage/lwip220/api/sockets.c **** 
2214:ThirdPackage/lwip220/api/sockets.c **** #if LWIP_SOCKET_POLL
2215:ThirdPackage/lwip220/api/sockets.c **** /** Options for the lwip_pollscan function. */
2216:ThirdPackage/lwip220/api/sockets.c **** enum lwip_pollscan_opts
2217:ThirdPackage/lwip220/api/sockets.c **** {
2218:ThirdPackage/lwip220/api/sockets.c ****   /** Clear revents in each struct pollfd. */
2219:ThirdPackage/lwip220/api/sockets.c ****   LWIP_POLLSCAN_CLEAR = 1,
2220:ThirdPackage/lwip220/api/sockets.c **** 
2221:ThirdPackage/lwip220/api/sockets.c ****   /** Increment select_waiting in each struct lwip_sock. */
2222:ThirdPackage/lwip220/api/sockets.c ****   LWIP_POLLSCAN_INC_WAIT = 2,
2223:ThirdPackage/lwip220/api/sockets.c **** 
2224:ThirdPackage/lwip220/api/sockets.c ****   /** Decrement select_waiting in each struct lwip_sock. */
2225:ThirdPackage/lwip220/api/sockets.c ****   LWIP_POLLSCAN_DEC_WAIT = 4
2226:ThirdPackage/lwip220/api/sockets.c **** };
2227:ThirdPackage/lwip220/api/sockets.c **** 
2228:ThirdPackage/lwip220/api/sockets.c **** /**
2229:ThirdPackage/lwip220/api/sockets.c ****  * Update revents in each struct pollfd.
2230:ThirdPackage/lwip220/api/sockets.c ****  * Optionally update select_waiting in struct lwip_sock.
2231:ThirdPackage/lwip220/api/sockets.c ****  *
2232:ThirdPackage/lwip220/api/sockets.c ****  * @param fds          array of structures to update
2233:ThirdPackage/lwip220/api/sockets.c ****  * @param nfds         number of structures in fds
2234:ThirdPackage/lwip220/api/sockets.c ****  * @param opts         what to update and how
2235:ThirdPackage/lwip220/api/sockets.c ****  * @return number of structures that have revents != 0
2236:ThirdPackage/lwip220/api/sockets.c ****  */
2237:ThirdPackage/lwip220/api/sockets.c **** static int
2238:ThirdPackage/lwip220/api/sockets.c **** lwip_pollscan(struct pollfd *fds, nfds_t nfds, enum lwip_pollscan_opts opts)
2239:ThirdPackage/lwip220/api/sockets.c **** {
2240:ThirdPackage/lwip220/api/sockets.c ****   int nready = 0;
2241:ThirdPackage/lwip220/api/sockets.c ****   nfds_t fdi;
2242:ThirdPackage/lwip220/api/sockets.c ****   struct lwip_sock *sock;
2243:ThirdPackage/lwip220/api/sockets.c ****   SYS_ARCH_DECL_PROTECT(lev);
2244:ThirdPackage/lwip220/api/sockets.c **** 
ARM GAS  C:\Users\86188\AppData\Local\Temp\cca48a4Y.s 			page 45


2245:ThirdPackage/lwip220/api/sockets.c ****   /* Go through each struct pollfd in the array. */
2246:ThirdPackage/lwip220/api/sockets.c ****   for (fdi = 0; fdi < nfds; fdi++) {
2247:ThirdPackage/lwip220/api/sockets.c ****     if ((opts & LWIP_POLLSCAN_CLEAR) != 0) {
2248:ThirdPackage/lwip220/api/sockets.c ****       fds[fdi].revents = 0;
2249:ThirdPackage/lwip220/api/sockets.c ****     }
2250:ThirdPackage/lwip220/api/sockets.c **** 
2251:ThirdPackage/lwip220/api/sockets.c ****     /* Negative fd means the caller wants us to ignore this struct.
2252:ThirdPackage/lwip220/api/sockets.c ****        POLLNVAL means we already detected that the fd is invalid;
2253:ThirdPackage/lwip220/api/sockets.c ****        if another thread has since opened a new socket with that fd,
2254:ThirdPackage/lwip220/api/sockets.c ****        we must not use that socket. */
2255:ThirdPackage/lwip220/api/sockets.c ****     if (fds[fdi].fd >= 0 && (fds[fdi].revents & POLLNVAL) == 0) {
2256:ThirdPackage/lwip220/api/sockets.c ****       /* First get the socket's status (protected)... */
2257:ThirdPackage/lwip220/api/sockets.c ****       SYS_ARCH_PROTECT(lev);
2258:ThirdPackage/lwip220/api/sockets.c ****       sock = tryget_socket_unconn_locked(fds[fdi].fd);
2259:ThirdPackage/lwip220/api/sockets.c ****       if (sock != NULL) {
2260:ThirdPackage/lwip220/api/sockets.c ****         void* lastdata = sock->lastdata.pbuf;
2261:ThirdPackage/lwip220/api/sockets.c ****         s16_t rcvevent = sock->rcvevent;
2262:ThirdPackage/lwip220/api/sockets.c ****         u16_t sendevent = sock->sendevent;
2263:ThirdPackage/lwip220/api/sockets.c ****         u16_t errevent = sock->errevent;
2264:ThirdPackage/lwip220/api/sockets.c **** 
2265:ThirdPackage/lwip220/api/sockets.c ****         if ((opts & LWIP_POLLSCAN_INC_WAIT) != 0) {
2266:ThirdPackage/lwip220/api/sockets.c ****           sock->select_waiting++;
2267:ThirdPackage/lwip220/api/sockets.c ****           if (sock->select_waiting == 0) {
2268:ThirdPackage/lwip220/api/sockets.c ****             /* overflow - too many threads waiting */
2269:ThirdPackage/lwip220/api/sockets.c ****             sock->select_waiting--;
2270:ThirdPackage/lwip220/api/sockets.c ****             nready = -1;
2271:ThirdPackage/lwip220/api/sockets.c ****             SYS_ARCH_UNPROTECT(lev);
2272:ThirdPackage/lwip220/api/sockets.c ****             done_socket(sock);
2273:ThirdPackage/lwip220/api/sockets.c ****             break;
2274:ThirdPackage/lwip220/api/sockets.c ****           }
2275:ThirdPackage/lwip220/api/sockets.c ****         } else if ((opts & LWIP_POLLSCAN_DEC_WAIT) != 0) {
2276:ThirdPackage/lwip220/api/sockets.c ****           /* for now, handle select_waiting==0... */
2277:ThirdPackage/lwip220/api/sockets.c ****           LWIP_ASSERT("sock->select_waiting > 0", sock->select_waiting > 0);
2278:ThirdPackage/lwip220/api/sockets.c ****           if (sock->select_waiting > 0) {
2279:ThirdPackage/lwip220/api/sockets.c ****             sock->select_waiting--;
2280:ThirdPackage/lwip220/api/sockets.c ****           }
2281:ThirdPackage/lwip220/api/sockets.c ****         }
2282:ThirdPackage/lwip220/api/sockets.c ****         SYS_ARCH_UNPROTECT(lev);
2283:ThirdPackage/lwip220/api/sockets.c ****         done_socket(sock);
2284:ThirdPackage/lwip220/api/sockets.c **** 
2285:ThirdPackage/lwip220/api/sockets.c ****         /* ... then examine it: */
2286:ThirdPackage/lwip220/api/sockets.c ****         /* See if netconn of this socket is ready for read */
2287:ThirdPackage/lwip220/api/sockets.c ****         if ((fds[fdi].events & POLLIN) != 0 && ((lastdata != NULL) || (rcvevent > 0))) {
2288:ThirdPackage/lwip220/api/sockets.c ****           fds[fdi].revents |= POLLIN;
2289:ThirdPackage/lwip220/api/sockets.c ****           LWIP_DEBUGF(SOCKETS_DEBUG, ("lwip_pollscan: fd=%d ready for reading\n", fds[fdi].fd));
2290:ThirdPackage/lwip220/api/sockets.c ****         }
2291:ThirdPackage/lwip220/api/sockets.c ****         /* See if netconn of this socket is ready for write */
2292:ThirdPackage/lwip220/api/sockets.c ****         if ((fds[fdi].events & POLLOUT) != 0 && (sendevent != 0)) {
2293:ThirdPackage/lwip220/api/sockets.c ****           fds[fdi].revents |= POLLOUT;
2294:ThirdPackage/lwip220/api/sockets.c ****           LWIP_DEBUGF(SOCKETS_DEBUG, ("lwip_pollscan: fd=%d ready for writing\n", fds[fdi].fd));
2295:ThirdPackage/lwip220/api/sockets.c ****         }
2296:ThirdPackage/lwip220/api/sockets.c ****         /* See if netconn of this socket had an error */
2297:ThirdPackage/lwip220/api/sockets.c ****         if (errevent != 0) {
2298:ThirdPackage/lwip220/api/sockets.c ****           /* POLLERR is output only. */
2299:ThirdPackage/lwip220/api/sockets.c ****           fds[fdi].revents |= POLLERR;
2300:ThirdPackage/lwip220/api/sockets.c ****           LWIP_DEBUGF(SOCKETS_DEBUG, ("lwip_pollscan: fd=%d ready for exception\n", fds[fdi].fd));
2301:ThirdPackage/lwip220/api/sockets.c ****         }
ARM GAS  C:\Users\86188\AppData\Local\Temp\cca48a4Y.s 			page 46


2302:ThirdPackage/lwip220/api/sockets.c ****       } else {
2303:ThirdPackage/lwip220/api/sockets.c ****         /* Not a valid socket */
2304:ThirdPackage/lwip220/api/sockets.c ****         SYS_ARCH_UNPROTECT(lev);
2305:ThirdPackage/lwip220/api/sockets.c ****         /* POLLNVAL is output only. */
2306:ThirdPackage/lwip220/api/sockets.c ****         fds[fdi].revents |= POLLNVAL;
2307:ThirdPackage/lwip220/api/sockets.c ****         return -1;
2308:ThirdPackage/lwip220/api/sockets.c ****       }
2309:ThirdPackage/lwip220/api/sockets.c ****     }
2310:ThirdPackage/lwip220/api/sockets.c **** 
2311:ThirdPackage/lwip220/api/sockets.c ****     /* Will return the number of structures that have events,
2312:ThirdPackage/lwip220/api/sockets.c ****        not the number of events. */
2313:ThirdPackage/lwip220/api/sockets.c ****     if (fds[fdi].revents != 0) {
2314:ThirdPackage/lwip220/api/sockets.c ****       nready++;
2315:ThirdPackage/lwip220/api/sockets.c ****     }
2316:ThirdPackage/lwip220/api/sockets.c ****   }
2317:ThirdPackage/lwip220/api/sockets.c **** 
2318:ThirdPackage/lwip220/api/sockets.c ****   LWIP_ASSERT("nready >= 0", nready >= 0);
2319:ThirdPackage/lwip220/api/sockets.c ****   return nready;
2320:ThirdPackage/lwip220/api/sockets.c **** }
2321:ThirdPackage/lwip220/api/sockets.c **** 
2322:ThirdPackage/lwip220/api/sockets.c **** #if LWIP_NETCONN_FULLDUPLEX
2323:ThirdPackage/lwip220/api/sockets.c **** /* Mark all sockets as used.
2324:ThirdPackage/lwip220/api/sockets.c ****  *
2325:ThirdPackage/lwip220/api/sockets.c ****  * All sockets are marked (and later unmarked), whether they are open or not.
2326:ThirdPackage/lwip220/api/sockets.c ****  * This is OK as lwip_pollscan aborts select when non-open sockets are found.
2327:ThirdPackage/lwip220/api/sockets.c ****  */
2328:ThirdPackage/lwip220/api/sockets.c **** static void
2329:ThirdPackage/lwip220/api/sockets.c **** lwip_poll_inc_sockets_used(struct pollfd *fds, nfds_t nfds)
2330:ThirdPackage/lwip220/api/sockets.c **** {
2331:ThirdPackage/lwip220/api/sockets.c ****   nfds_t fdi;
2332:ThirdPackage/lwip220/api/sockets.c **** 
2333:ThirdPackage/lwip220/api/sockets.c ****   if(fds) {
2334:ThirdPackage/lwip220/api/sockets.c ****     /* Go through each struct pollfd in the array. */
2335:ThirdPackage/lwip220/api/sockets.c ****     for (fdi = 0; fdi < nfds; fdi++) {
2336:ThirdPackage/lwip220/api/sockets.c ****       /* Increase the reference counter */
2337:ThirdPackage/lwip220/api/sockets.c ****       tryget_socket_unconn(fds[fdi].fd);
2338:ThirdPackage/lwip220/api/sockets.c ****     }
2339:ThirdPackage/lwip220/api/sockets.c ****   }
2340:ThirdPackage/lwip220/api/sockets.c **** }
2341:ThirdPackage/lwip220/api/sockets.c **** 
2342:ThirdPackage/lwip220/api/sockets.c **** /* Let go all sockets that were marked as used when starting poll */
2343:ThirdPackage/lwip220/api/sockets.c **** static void
2344:ThirdPackage/lwip220/api/sockets.c **** lwip_poll_dec_sockets_used(struct pollfd *fds, nfds_t nfds)
2345:ThirdPackage/lwip220/api/sockets.c **** {
2346:ThirdPackage/lwip220/api/sockets.c ****   nfds_t fdi;
2347:ThirdPackage/lwip220/api/sockets.c **** 
2348:ThirdPackage/lwip220/api/sockets.c ****   if(fds) {
2349:ThirdPackage/lwip220/api/sockets.c ****     /* Go through each struct pollfd in the array. */
2350:ThirdPackage/lwip220/api/sockets.c ****     for (fdi = 0; fdi < nfds; fdi++) {
2351:ThirdPackage/lwip220/api/sockets.c ****       struct lwip_sock *sock = tryget_socket_unconn_nouse(fds[fdi].fd);
2352:ThirdPackage/lwip220/api/sockets.c ****       if (sock != NULL) {
2353:ThirdPackage/lwip220/api/sockets.c ****         done_socket(sock);
2354:ThirdPackage/lwip220/api/sockets.c ****       }
2355:ThirdPackage/lwip220/api/sockets.c ****     }
2356:ThirdPackage/lwip220/api/sockets.c ****   }
2357:ThirdPackage/lwip220/api/sockets.c **** }
2358:ThirdPackage/lwip220/api/sockets.c **** #else /* LWIP_NETCONN_FULLDUPLEX */
ARM GAS  C:\Users\86188\AppData\Local\Temp\cca48a4Y.s 			page 47


2359:ThirdPackage/lwip220/api/sockets.c **** #define lwip_poll_inc_sockets_used(fds, nfds)
2360:ThirdPackage/lwip220/api/sockets.c **** #define lwip_poll_dec_sockets_used(fds, nfds)
2361:ThirdPackage/lwip220/api/sockets.c **** #endif /* LWIP_NETCONN_FULLDUPLEX */
2362:ThirdPackage/lwip220/api/sockets.c **** 
2363:ThirdPackage/lwip220/api/sockets.c **** int
2364:ThirdPackage/lwip220/api/sockets.c **** lwip_poll(struct pollfd *fds, nfds_t nfds, int timeout)
2365:ThirdPackage/lwip220/api/sockets.c **** {
2366:ThirdPackage/lwip220/api/sockets.c ****   u32_t waitres = 0;
2367:ThirdPackage/lwip220/api/sockets.c ****   int nready;
2368:ThirdPackage/lwip220/api/sockets.c ****   u32_t msectimeout;
2369:ThirdPackage/lwip220/api/sockets.c **** #if LWIP_NETCONN_SEM_PER_THREAD
2370:ThirdPackage/lwip220/api/sockets.c ****   int waited = 0;
2371:ThirdPackage/lwip220/api/sockets.c **** #endif
2372:ThirdPackage/lwip220/api/sockets.c **** 
2373:ThirdPackage/lwip220/api/sockets.c ****   LWIP_DEBUGF(SOCKETS_DEBUG, ("lwip_poll(%p, %d, %d)\n",
2374:ThirdPackage/lwip220/api/sockets.c ****                   (void*)fds, (int)nfds, timeout));
2375:ThirdPackage/lwip220/api/sockets.c ****   LWIP_ERROR("lwip_poll: invalid fds", ((fds != NULL && nfds > 0) || (fds == NULL && nfds == 0)),
2376:ThirdPackage/lwip220/api/sockets.c ****              set_errno(EINVAL); return -1;);
2377:ThirdPackage/lwip220/api/sockets.c **** 
2378:ThirdPackage/lwip220/api/sockets.c ****   lwip_poll_inc_sockets_used(fds, nfds);
2379:ThirdPackage/lwip220/api/sockets.c **** 
2380:ThirdPackage/lwip220/api/sockets.c ****   /* Go through each struct pollfd to count number of structures
2381:ThirdPackage/lwip220/api/sockets.c ****      which currently match */
2382:ThirdPackage/lwip220/api/sockets.c ****   nready = lwip_pollscan(fds, nfds, LWIP_POLLSCAN_CLEAR);
2383:ThirdPackage/lwip220/api/sockets.c **** 
2384:ThirdPackage/lwip220/api/sockets.c ****   if (nready < 0) {
2385:ThirdPackage/lwip220/api/sockets.c ****     lwip_poll_dec_sockets_used(fds, nfds);
2386:ThirdPackage/lwip220/api/sockets.c ****     return -1;
2387:ThirdPackage/lwip220/api/sockets.c ****   }
2388:ThirdPackage/lwip220/api/sockets.c **** 
2389:ThirdPackage/lwip220/api/sockets.c ****   /* If we don't have any current events, then suspend if we are supposed to */
2390:ThirdPackage/lwip220/api/sockets.c ****   if (!nready) {
2391:ThirdPackage/lwip220/api/sockets.c ****     API_SELECT_CB_VAR_DECLARE(select_cb);
2392:ThirdPackage/lwip220/api/sockets.c **** 
2393:ThirdPackage/lwip220/api/sockets.c ****     if (timeout == 0) {
2394:ThirdPackage/lwip220/api/sockets.c ****       LWIP_DEBUGF(SOCKETS_DEBUG, ("lwip_poll: no timeout, returning 0\n"));
2395:ThirdPackage/lwip220/api/sockets.c ****       goto return_success;
2396:ThirdPackage/lwip220/api/sockets.c ****     }
2397:ThirdPackage/lwip220/api/sockets.c ****     API_SELECT_CB_VAR_ALLOC(select_cb, set_errno(EAGAIN); lwip_poll_dec_sockets_used(fds, nfds); re
2398:ThirdPackage/lwip220/api/sockets.c ****     memset(&API_SELECT_CB_VAR_REF(select_cb), 0, sizeof(struct lwip_select_cb));
2399:ThirdPackage/lwip220/api/sockets.c **** 
2400:ThirdPackage/lwip220/api/sockets.c ****     /* None ready: add our semaphore to list:
2401:ThirdPackage/lwip220/api/sockets.c ****        We don't actually need any dynamic memory. Our entry on the
2402:ThirdPackage/lwip220/api/sockets.c ****        list is only valid while we are in this function, so it's ok
2403:ThirdPackage/lwip220/api/sockets.c ****        to use local variables. */
2404:ThirdPackage/lwip220/api/sockets.c **** 
2405:ThirdPackage/lwip220/api/sockets.c ****     API_SELECT_CB_VAR_REF(select_cb).poll_fds = fds;
2406:ThirdPackage/lwip220/api/sockets.c ****     API_SELECT_CB_VAR_REF(select_cb).poll_nfds = nfds;
2407:ThirdPackage/lwip220/api/sockets.c **** #if LWIP_NETCONN_SEM_PER_THREAD
2408:ThirdPackage/lwip220/api/sockets.c ****     API_SELECT_CB_VAR_REF(select_cb).sem = LWIP_NETCONN_THREAD_SEM_GET();
2409:ThirdPackage/lwip220/api/sockets.c **** #else /* LWIP_NETCONN_SEM_PER_THREAD */
2410:ThirdPackage/lwip220/api/sockets.c ****     if (sys_sem_new(&API_SELECT_CB_VAR_REF(select_cb).sem, 0) != ERR_OK) {
2411:ThirdPackage/lwip220/api/sockets.c ****       /* failed to create semaphore */
2412:ThirdPackage/lwip220/api/sockets.c ****       set_errno(EAGAIN);
2413:ThirdPackage/lwip220/api/sockets.c ****       lwip_poll_dec_sockets_used(fds, nfds);
2414:ThirdPackage/lwip220/api/sockets.c ****       API_SELECT_CB_VAR_FREE(select_cb);
2415:ThirdPackage/lwip220/api/sockets.c ****       return -1;
ARM GAS  C:\Users\86188\AppData\Local\Temp\cca48a4Y.s 			page 48


2416:ThirdPackage/lwip220/api/sockets.c ****     }
2417:ThirdPackage/lwip220/api/sockets.c **** #endif /* LWIP_NETCONN_SEM_PER_THREAD */
2418:ThirdPackage/lwip220/api/sockets.c **** 
2419:ThirdPackage/lwip220/api/sockets.c ****     lwip_link_select_cb(&API_SELECT_CB_VAR_REF(select_cb));
2420:ThirdPackage/lwip220/api/sockets.c **** 
2421:ThirdPackage/lwip220/api/sockets.c ****     /* Increase select_waiting for each socket we are interested in.
2422:ThirdPackage/lwip220/api/sockets.c ****        Also, check for events again: there could have been events between
2423:ThirdPackage/lwip220/api/sockets.c ****        the last scan (without us on the list) and putting us on the list! */
2424:ThirdPackage/lwip220/api/sockets.c ****     nready = lwip_pollscan(fds, nfds, LWIP_POLLSCAN_INC_WAIT);
2425:ThirdPackage/lwip220/api/sockets.c **** 
2426:ThirdPackage/lwip220/api/sockets.c ****     if (!nready) {
2427:ThirdPackage/lwip220/api/sockets.c ****       /* Still none ready, just wait to be woken */
2428:ThirdPackage/lwip220/api/sockets.c ****       if (timeout < 0) {
2429:ThirdPackage/lwip220/api/sockets.c ****         /* Wait forever */
2430:ThirdPackage/lwip220/api/sockets.c ****         msectimeout = 0;
2431:ThirdPackage/lwip220/api/sockets.c ****       } else {
2432:ThirdPackage/lwip220/api/sockets.c ****         /* timeout == 0 would have been handled earlier. */
2433:ThirdPackage/lwip220/api/sockets.c ****         LWIP_ASSERT("timeout > 0", timeout > 0);
2434:ThirdPackage/lwip220/api/sockets.c ****         msectimeout = timeout;
2435:ThirdPackage/lwip220/api/sockets.c ****       }
2436:ThirdPackage/lwip220/api/sockets.c ****       waitres = sys_arch_sem_wait(SELECT_SEM_PTR(API_SELECT_CB_VAR_REF(select_cb).sem), msectimeout
2437:ThirdPackage/lwip220/api/sockets.c **** #if LWIP_NETCONN_SEM_PER_THREAD
2438:ThirdPackage/lwip220/api/sockets.c ****       waited = 1;
2439:ThirdPackage/lwip220/api/sockets.c **** #endif
2440:ThirdPackage/lwip220/api/sockets.c ****     }
2441:ThirdPackage/lwip220/api/sockets.c **** 
2442:ThirdPackage/lwip220/api/sockets.c ****     /* Decrease select_waiting for each socket we are interested in,
2443:ThirdPackage/lwip220/api/sockets.c ****        and check which events occurred while we waited. */
2444:ThirdPackage/lwip220/api/sockets.c ****     nready = lwip_pollscan(fds, nfds, LWIP_POLLSCAN_DEC_WAIT);
2445:ThirdPackage/lwip220/api/sockets.c **** 
2446:ThirdPackage/lwip220/api/sockets.c ****     lwip_unlink_select_cb(&API_SELECT_CB_VAR_REF(select_cb));
2447:ThirdPackage/lwip220/api/sockets.c **** 
2448:ThirdPackage/lwip220/api/sockets.c **** #if LWIP_NETCONN_SEM_PER_THREAD
2449:ThirdPackage/lwip220/api/sockets.c ****     if (select_cb.sem_signalled && (!waited || (waitres == SYS_ARCH_TIMEOUT))) {
2450:ThirdPackage/lwip220/api/sockets.c ****       /* don't leave the thread-local semaphore signalled */
2451:ThirdPackage/lwip220/api/sockets.c ****       sys_arch_sem_wait(API_SELECT_CB_VAR_REF(select_cb).sem, 1);
2452:ThirdPackage/lwip220/api/sockets.c ****     }
2453:ThirdPackage/lwip220/api/sockets.c **** #else /* LWIP_NETCONN_SEM_PER_THREAD */
2454:ThirdPackage/lwip220/api/sockets.c ****     sys_sem_free(&API_SELECT_CB_VAR_REF(select_cb).sem);
2455:ThirdPackage/lwip220/api/sockets.c **** #endif /* LWIP_NETCONN_SEM_PER_THREAD */
2456:ThirdPackage/lwip220/api/sockets.c ****     API_SELECT_CB_VAR_FREE(select_cb);
2457:ThirdPackage/lwip220/api/sockets.c **** 
2458:ThirdPackage/lwip220/api/sockets.c ****     if (nready < 0) {
2459:ThirdPackage/lwip220/api/sockets.c ****       /* This happens when a socket got closed while waiting */
2460:ThirdPackage/lwip220/api/sockets.c ****       lwip_poll_dec_sockets_used(fds, nfds);
2461:ThirdPackage/lwip220/api/sockets.c ****       return -1;
2462:ThirdPackage/lwip220/api/sockets.c ****     }
2463:ThirdPackage/lwip220/api/sockets.c **** 
2464:ThirdPackage/lwip220/api/sockets.c ****     if (waitres == SYS_ARCH_TIMEOUT) {
2465:ThirdPackage/lwip220/api/sockets.c ****       /* Timeout */
2466:ThirdPackage/lwip220/api/sockets.c ****       LWIP_DEBUGF(SOCKETS_DEBUG, ("lwip_poll: timeout expired\n"));
2467:ThirdPackage/lwip220/api/sockets.c ****       goto return_success;
2468:ThirdPackage/lwip220/api/sockets.c ****     }
2469:ThirdPackage/lwip220/api/sockets.c ****   }
2470:ThirdPackage/lwip220/api/sockets.c **** 
2471:ThirdPackage/lwip220/api/sockets.c ****   LWIP_DEBUGF(SOCKETS_DEBUG, ("lwip_poll: nready=%d\n", nready));
2472:ThirdPackage/lwip220/api/sockets.c **** return_success:
ARM GAS  C:\Users\86188\AppData\Local\Temp\cca48a4Y.s 			page 49


2473:ThirdPackage/lwip220/api/sockets.c ****   lwip_poll_dec_sockets_used(fds, nfds);
2474:ThirdPackage/lwip220/api/sockets.c ****   set_errno(0);
2475:ThirdPackage/lwip220/api/sockets.c ****   return nready;
2476:ThirdPackage/lwip220/api/sockets.c **** }
2477:ThirdPackage/lwip220/api/sockets.c **** 
2478:ThirdPackage/lwip220/api/sockets.c **** /**
2479:ThirdPackage/lwip220/api/sockets.c ****  * Check whether event_callback should wake up a thread waiting in
2480:ThirdPackage/lwip220/api/sockets.c ****  * lwip_poll.
2481:ThirdPackage/lwip220/api/sockets.c ****  */
2482:ThirdPackage/lwip220/api/sockets.c **** static int
2483:ThirdPackage/lwip220/api/sockets.c **** lwip_poll_should_wake(const struct lwip_select_cb *scb, int fd, int has_recvevent, int has_sendeven
2484:ThirdPackage/lwip220/api/sockets.c **** {
 268              		.loc 1 2484 1 is_stmt 1 view -0
 269              		.cfi_startproc
 270              		@ args = 4, pretend = 0, frame = 0
 271              		@ frame_needed = 0, uses_anonymous_args = 0
 272              		.loc 1 2484 1 is_stmt 0 view .LVU67
 273 0000 30B5     		push	{r4, r5, lr}
 274              	.LCFI4:
 275              		.cfi_def_cfa_offset 12
 276              		.cfi_offset 4, -12
 277              		.cfi_offset 5, -8
 278              		.cfi_offset 14, -4
 279 0002 039D     		ldr	r5, [sp, #12]
2485:ThirdPackage/lwip220/api/sockets.c ****   nfds_t fdi;
 280              		.loc 1 2485 3 is_stmt 1 view .LVU68
2486:ThirdPackage/lwip220/api/sockets.c ****   for (fdi = 0; fdi < scb->poll_nfds; fdi++) {
 281              		.loc 1 2486 3 view .LVU69
 282              	.LVL19:
 283              		.loc 1 2486 12 is_stmt 0 view .LVU70
 284 0004 4FF0000C 		mov	ip, #0
 285              		.loc 1 2486 3 view .LVU71
 286 0008 02E0     		b	.L22
 287              	.LVL20:
 288              	.L26:
 289              	.LBB2:
2487:ThirdPackage/lwip220/api/sockets.c ****     const struct pollfd *pollfd = &scb->poll_fds[fdi];
2488:ThirdPackage/lwip220/api/sockets.c ****     if (pollfd->fd == fd) {
2489:ThirdPackage/lwip220/api/sockets.c ****       /* Do not update pollfd->revents right here;
2490:ThirdPackage/lwip220/api/sockets.c ****          that would be a data race because lwip_pollscan
2491:ThirdPackage/lwip220/api/sockets.c ****          accesses revents without protecting. */
2492:ThirdPackage/lwip220/api/sockets.c ****       if (has_recvevent && (pollfd->events & POLLIN) != 0) {
2493:ThirdPackage/lwip220/api/sockets.c ****         return 1;
2494:ThirdPackage/lwip220/api/sockets.c ****       }
2495:ThirdPackage/lwip220/api/sockets.c ****       if (has_sendevent && (pollfd->events & POLLOUT) != 0) {
2496:ThirdPackage/lwip220/api/sockets.c ****         return 1;
2497:ThirdPackage/lwip220/api/sockets.c ****       }
2498:ThirdPackage/lwip220/api/sockets.c ****       if (has_errevent) {
 290              		.loc 1 2498 7 is_stmt 1 view .LVU72
 291              		.loc 1 2498 10 is_stmt 0 view .LVU73
 292 000a F5B9     		cbnz	r5, .L30
 293              	.L23:
 294              	.LBE2:
2486:ThirdPackage/lwip220/api/sockets.c ****   for (fdi = 0; fdi < scb->poll_nfds; fdi++) {
 295              		.loc 1 2486 39 is_stmt 1 discriminator 2 view .LVU74
2486:ThirdPackage/lwip220/api/sockets.c ****   for (fdi = 0; fdi < scb->poll_nfds; fdi++) {
 296              		.loc 1 2486 42 is_stmt 0 discriminator 2 view .LVU75
ARM GAS  C:\Users\86188\AppData\Local\Temp\cca48a4Y.s 			page 50


 297 000c 0CF1010C 		add	ip, ip, #1
 298              	.LVL21:
 299              	.L22:
2486:ThirdPackage/lwip220/api/sockets.c ****   for (fdi = 0; fdi < scb->poll_nfds; fdi++) {
 300              		.loc 1 2486 17 is_stmt 1 discriminator 1 view .LVU76
2486:ThirdPackage/lwip220/api/sockets.c ****   for (fdi = 0; fdi < scb->poll_nfds; fdi++) {
 301              		.loc 1 2486 26 is_stmt 0 discriminator 1 view .LVU77
 302 0010 8469     		ldr	r4, [r0, #24]
2486:ThirdPackage/lwip220/api/sockets.c ****   for (fdi = 0; fdi < scb->poll_nfds; fdi++) {
 303              		.loc 1 2486 3 discriminator 1 view .LVU78
 304 0012 6445     		cmp	r4, ip
 305 0014 15D9     		bls	.L32
 306              	.LBB3:
2487:ThirdPackage/lwip220/api/sockets.c ****     const struct pollfd *pollfd = &scb->poll_fds[fdi];
 307              		.loc 1 2487 5 is_stmt 1 view .LVU79
2487:ThirdPackage/lwip220/api/sockets.c ****     const struct pollfd *pollfd = &scb->poll_fds[fdi];
 308              		.loc 1 2487 39 is_stmt 0 view .LVU80
 309 0016 4469     		ldr	r4, [r0, #20]
2487:ThirdPackage/lwip220/api/sockets.c ****     const struct pollfd *pollfd = &scb->poll_fds[fdi];
 310              		.loc 1 2487 26 view .LVU81
 311 0018 04EBCC0E 		add	lr, r4, ip, lsl #3
 312              	.LVL22:
2488:ThirdPackage/lwip220/api/sockets.c ****       /* Do not update pollfd->revents right here;
 313              		.loc 1 2488 5 is_stmt 1 view .LVU82
2488:ThirdPackage/lwip220/api/sockets.c ****       /* Do not update pollfd->revents right here;
 314              		.loc 1 2488 15 is_stmt 0 view .LVU83
 315 001c 54F83C40 		ldr	r4, [r4, ip, lsl #3]
2488:ThirdPackage/lwip220/api/sockets.c ****       /* Do not update pollfd->revents right here;
 316              		.loc 1 2488 8 view .LVU84
 317 0020 8C42     		cmp	r4, r1
 318 0022 F3D1     		bne	.L23
2492:ThirdPackage/lwip220/api/sockets.c ****         return 1;
 319              		.loc 1 2492 7 is_stmt 1 view .LVU85
2492:ThirdPackage/lwip220/api/sockets.c ****         return 1;
 320              		.loc 1 2492 10 is_stmt 0 view .LVU86
 321 0024 22B1     		cbz	r2, .L24
2492:ThirdPackage/lwip220/api/sockets.c ****         return 1;
 322              		.loc 1 2492 35 discriminator 1 view .LVU87
 323 0026 BEF90440 		ldrsh	r4, [lr, #4]
2492:ThirdPackage/lwip220/api/sockets.c ****         return 1;
 324              		.loc 1 2492 25 discriminator 1 view .LVU88
 325 002a 14F0010F 		tst	r4, #1
 326 002e 0AD1     		bne	.L28
 327              	.L24:
2495:ThirdPackage/lwip220/api/sockets.c ****         return 1;
 328              		.loc 1 2495 7 is_stmt 1 view .LVU89
2495:ThirdPackage/lwip220/api/sockets.c ****         return 1;
 329              		.loc 1 2495 10 is_stmt 0 view .LVU90
 330 0030 002B     		cmp	r3, #0
 331 0032 EAD0     		beq	.L26
2495:ThirdPackage/lwip220/api/sockets.c ****         return 1;
 332              		.loc 1 2495 35 discriminator 1 view .LVU91
 333 0034 BEF90440 		ldrsh	r4, [lr, #4]
2495:ThirdPackage/lwip220/api/sockets.c ****         return 1;
 334              		.loc 1 2495 25 discriminator 1 view .LVU92
 335 0038 14F0020F 		tst	r4, #2
 336 003c E5D0     		beq	.L26
ARM GAS  C:\Users\86188\AppData\Local\Temp\cca48a4Y.s 			page 51


2496:ThirdPackage/lwip220/api/sockets.c ****       }
 337              		.loc 1 2496 16 view .LVU93
 338 003e 0120     		movs	r0, #1
 339              	.LVL23:
2496:ThirdPackage/lwip220/api/sockets.c ****       }
 340              		.loc 1 2496 16 view .LVU94
 341 0040 00E0     		b	.L21
 342              	.LVL24:
 343              	.L32:
2496:ThirdPackage/lwip220/api/sockets.c ****       }
 344              		.loc 1 2496 16 view .LVU95
 345              	.LBE3:
2499:ThirdPackage/lwip220/api/sockets.c ****         /* POLLERR is output only. */
2500:ThirdPackage/lwip220/api/sockets.c ****         return 1;
2501:ThirdPackage/lwip220/api/sockets.c ****       }
2502:ThirdPackage/lwip220/api/sockets.c ****     }
2503:ThirdPackage/lwip220/api/sockets.c ****   }
2504:ThirdPackage/lwip220/api/sockets.c ****   return 0;
 346              		.loc 1 2504 10 view .LVU96
 347 0042 0020     		movs	r0, #0
 348              	.LVL25:
 349              	.L21:
2505:ThirdPackage/lwip220/api/sockets.c **** }
 350              		.loc 1 2505 1 view .LVU97
 351 0044 30BD     		pop	{r4, r5, pc}
 352              	.LVL26:
 353              	.L28:
 354              	.LBB4:
2493:ThirdPackage/lwip220/api/sockets.c ****       }
 355              		.loc 1 2493 16 view .LVU98
 356 0046 0120     		movs	r0, #1
 357              	.LVL27:
2493:ThirdPackage/lwip220/api/sockets.c ****       }
 358              		.loc 1 2493 16 view .LVU99
 359 0048 FCE7     		b	.L21
 360              	.LVL28:
 361              	.L30:
2500:ThirdPackage/lwip220/api/sockets.c ****       }
 362              		.loc 1 2500 16 view .LVU100
 363 004a 0120     		movs	r0, #1
 364              	.LVL29:
2500:ThirdPackage/lwip220/api/sockets.c ****       }
 365              		.loc 1 2500 16 view .LVU101
 366 004c FAE7     		b	.L21
 367              	.LBE4:
 368              		.cfi_endproc
 369              	.LFE198:
 371              		.section	.rodata.lwip_sockopt_to_ipopt.str1.4,"aMS",%progbits,1
 372              		.align	2
 373              	.LC0:
 374 0000 54686972 		.ascii	"ThirdPackage/lwip220/api/sockets.c\000"
 374      64506163 
 374      6B616765 
 374      2F6C7769 
 374      70323230 
 375 0023 00       		.align	2
 376              	.LC1:
ARM GAS  C:\Users\86188\AppData\Local\Temp\cca48a4Y.s 			page 52


 377 0024 556E6B6E 		.ascii	"Unknown socket option\000"
 377      6F776E20 
 377      736F636B 
 377      6574206F 
 377      7074696F 
 378 003a 0000     		.align	2
 379              	.LC2:
 380 003c 41737365 		.ascii	"Assertion \"%s\" failed at line %d in %s\012\000"
 380      7274696F 
 380      6E202225 
 380      73222066 
 380      61696C65 
 381              		.section	.text.lwip_sockopt_to_ipopt,"ax",%progbits
 382              		.align	1
 383              		.syntax unified
 384              		.thumb
 385              		.thumb_func
 387              	lwip_sockopt_to_ipopt:
 388              	.LVL30:
 389              	.LFB206:
2506:ThirdPackage/lwip220/api/sockets.c **** #endif /* LWIP_SOCKET_POLL */
2507:ThirdPackage/lwip220/api/sockets.c **** 
2508:ThirdPackage/lwip220/api/sockets.c **** #if LWIP_SOCKET_SELECT || LWIP_SOCKET_POLL
2509:ThirdPackage/lwip220/api/sockets.c **** /**
2510:ThirdPackage/lwip220/api/sockets.c ****  * Callback registered in the netconn layer for each socket-netconn.
2511:ThirdPackage/lwip220/api/sockets.c ****  * Processes recvevent (data available) and wakes up tasks waiting for select.
2512:ThirdPackage/lwip220/api/sockets.c ****  *
2513:ThirdPackage/lwip220/api/sockets.c ****  * @note for LWIP_TCPIP_CORE_LOCKING any caller of this function
2514:ThirdPackage/lwip220/api/sockets.c ****  * must have the core lock held when signaling the following events
2515:ThirdPackage/lwip220/api/sockets.c ****  * as they might cause select_list_cb to be checked:
2516:ThirdPackage/lwip220/api/sockets.c ****  *   NETCONN_EVT_RCVPLUS
2517:ThirdPackage/lwip220/api/sockets.c ****  *   NETCONN_EVT_SENDPLUS
2518:ThirdPackage/lwip220/api/sockets.c ****  *   NETCONN_EVT_ERROR
2519:ThirdPackage/lwip220/api/sockets.c ****  * This requirement will be asserted in select_check_waiters()
2520:ThirdPackage/lwip220/api/sockets.c ****  */
2521:ThirdPackage/lwip220/api/sockets.c **** static void
2522:ThirdPackage/lwip220/api/sockets.c **** event_callback(struct netconn *conn, enum netconn_evt evt, u16_t len)
2523:ThirdPackage/lwip220/api/sockets.c **** {
2524:ThirdPackage/lwip220/api/sockets.c ****   int s, check_waiters;
2525:ThirdPackage/lwip220/api/sockets.c ****   struct lwip_sock *sock;
2526:ThirdPackage/lwip220/api/sockets.c ****   SYS_ARCH_DECL_PROTECT(lev);
2527:ThirdPackage/lwip220/api/sockets.c **** 
2528:ThirdPackage/lwip220/api/sockets.c ****   LWIP_UNUSED_ARG(len);
2529:ThirdPackage/lwip220/api/sockets.c **** 
2530:ThirdPackage/lwip220/api/sockets.c ****   /* Get socket */
2531:ThirdPackage/lwip220/api/sockets.c ****   if (conn) {
2532:ThirdPackage/lwip220/api/sockets.c ****     s = conn->callback_arg.socket;
2533:ThirdPackage/lwip220/api/sockets.c ****     if (s < 0) {
2534:ThirdPackage/lwip220/api/sockets.c ****       /* Data comes in right away after an accept, even though
2535:ThirdPackage/lwip220/api/sockets.c ****        * the server task might not have created a new socket yet.
2536:ThirdPackage/lwip220/api/sockets.c ****        * Just count down (or up) if that's the case and we
2537:ThirdPackage/lwip220/api/sockets.c ****        * will use the data later. Note that only receive events
2538:ThirdPackage/lwip220/api/sockets.c ****        * can happen before the new socket is set up. */
2539:ThirdPackage/lwip220/api/sockets.c ****       SYS_ARCH_PROTECT(lev);
2540:ThirdPackage/lwip220/api/sockets.c ****       if (conn->callback_arg.socket < 0) {
2541:ThirdPackage/lwip220/api/sockets.c ****         if (evt == NETCONN_EVT_RCVPLUS) {
2542:ThirdPackage/lwip220/api/sockets.c ****           /* conn->socket is -1 on initialization
ARM GAS  C:\Users\86188\AppData\Local\Temp\cca48a4Y.s 			page 53


2543:ThirdPackage/lwip220/api/sockets.c ****              lwip_accept adjusts sock->recvevent if conn->socket < -1 */
2544:ThirdPackage/lwip220/api/sockets.c ****           conn->callback_arg.socket--;
2545:ThirdPackage/lwip220/api/sockets.c ****         }
2546:ThirdPackage/lwip220/api/sockets.c ****         SYS_ARCH_UNPROTECT(lev);
2547:ThirdPackage/lwip220/api/sockets.c ****         return;
2548:ThirdPackage/lwip220/api/sockets.c ****       }
2549:ThirdPackage/lwip220/api/sockets.c ****       s = conn->callback_arg.socket;
2550:ThirdPackage/lwip220/api/sockets.c ****       SYS_ARCH_UNPROTECT(lev);
2551:ThirdPackage/lwip220/api/sockets.c ****     }
2552:ThirdPackage/lwip220/api/sockets.c **** 
2553:ThirdPackage/lwip220/api/sockets.c ****     sock = get_socket(s);
2554:ThirdPackage/lwip220/api/sockets.c ****     if (!sock) {
2555:ThirdPackage/lwip220/api/sockets.c ****       return;
2556:ThirdPackage/lwip220/api/sockets.c ****     }
2557:ThirdPackage/lwip220/api/sockets.c ****   } else {
2558:ThirdPackage/lwip220/api/sockets.c ****     return;
2559:ThirdPackage/lwip220/api/sockets.c ****   }
2560:ThirdPackage/lwip220/api/sockets.c **** 
2561:ThirdPackage/lwip220/api/sockets.c ****   check_waiters = 1;
2562:ThirdPackage/lwip220/api/sockets.c ****   SYS_ARCH_PROTECT(lev);
2563:ThirdPackage/lwip220/api/sockets.c ****   /* Set event as required */
2564:ThirdPackage/lwip220/api/sockets.c ****   switch (evt) {
2565:ThirdPackage/lwip220/api/sockets.c ****     case NETCONN_EVT_RCVPLUS:
2566:ThirdPackage/lwip220/api/sockets.c ****       sock->rcvevent++;
2567:ThirdPackage/lwip220/api/sockets.c ****       if (sock->rcvevent > 1) {
2568:ThirdPackage/lwip220/api/sockets.c ****         check_waiters = 0;
2569:ThirdPackage/lwip220/api/sockets.c ****       }
2570:ThirdPackage/lwip220/api/sockets.c ****       break;
2571:ThirdPackage/lwip220/api/sockets.c ****     case NETCONN_EVT_RCVMINUS:
2572:ThirdPackage/lwip220/api/sockets.c ****       sock->rcvevent--;
2573:ThirdPackage/lwip220/api/sockets.c ****       check_waiters = 0;
2574:ThirdPackage/lwip220/api/sockets.c ****       break;
2575:ThirdPackage/lwip220/api/sockets.c ****     case NETCONN_EVT_SENDPLUS:
2576:ThirdPackage/lwip220/api/sockets.c ****       if (sock->sendevent) {
2577:ThirdPackage/lwip220/api/sockets.c ****         check_waiters = 0;
2578:ThirdPackage/lwip220/api/sockets.c ****       }
2579:ThirdPackage/lwip220/api/sockets.c ****       sock->sendevent = 1;
2580:ThirdPackage/lwip220/api/sockets.c ****       break;
2581:ThirdPackage/lwip220/api/sockets.c ****     case NETCONN_EVT_SENDMINUS:
2582:ThirdPackage/lwip220/api/sockets.c ****       sock->sendevent = 0;
2583:ThirdPackage/lwip220/api/sockets.c ****       check_waiters = 0;
2584:ThirdPackage/lwip220/api/sockets.c ****       break;
2585:ThirdPackage/lwip220/api/sockets.c ****     case NETCONN_EVT_ERROR:
2586:ThirdPackage/lwip220/api/sockets.c ****       sock->errevent = 1;
2587:ThirdPackage/lwip220/api/sockets.c ****       break;
2588:ThirdPackage/lwip220/api/sockets.c ****     default:
2589:ThirdPackage/lwip220/api/sockets.c ****       LWIP_ASSERT("unknown event", 0);
2590:ThirdPackage/lwip220/api/sockets.c ****       break;
2591:ThirdPackage/lwip220/api/sockets.c ****   }
2592:ThirdPackage/lwip220/api/sockets.c **** 
2593:ThirdPackage/lwip220/api/sockets.c ****   if (sock->select_waiting && check_waiters) {
2594:ThirdPackage/lwip220/api/sockets.c ****     /* Save which events are active */
2595:ThirdPackage/lwip220/api/sockets.c ****     int has_recvevent, has_sendevent, has_errevent;
2596:ThirdPackage/lwip220/api/sockets.c ****     has_recvevent = sock->rcvevent > 0;
2597:ThirdPackage/lwip220/api/sockets.c ****     has_sendevent = sock->sendevent != 0;
2598:ThirdPackage/lwip220/api/sockets.c ****     has_errevent = sock->errevent != 0;
2599:ThirdPackage/lwip220/api/sockets.c ****     SYS_ARCH_UNPROTECT(lev);
ARM GAS  C:\Users\86188\AppData\Local\Temp\cca48a4Y.s 			page 54


2600:ThirdPackage/lwip220/api/sockets.c ****     /* Check any select calls waiting on this socket */
2601:ThirdPackage/lwip220/api/sockets.c ****     select_check_waiters(s, has_recvevent, has_sendevent, has_errevent);
2602:ThirdPackage/lwip220/api/sockets.c ****   } else {
2603:ThirdPackage/lwip220/api/sockets.c ****     SYS_ARCH_UNPROTECT(lev);
2604:ThirdPackage/lwip220/api/sockets.c ****   }
2605:ThirdPackage/lwip220/api/sockets.c ****   done_socket(sock);
2606:ThirdPackage/lwip220/api/sockets.c **** }
2607:ThirdPackage/lwip220/api/sockets.c **** 
2608:ThirdPackage/lwip220/api/sockets.c **** /**
2609:ThirdPackage/lwip220/api/sockets.c ****  * Check if any select waiters are waiting on this socket and its events
2610:ThirdPackage/lwip220/api/sockets.c ****  *
2611:ThirdPackage/lwip220/api/sockets.c ****  * @note on synchronization of select_cb_list:
2612:ThirdPackage/lwip220/api/sockets.c ****  * LWIP_TCPIP_CORE_LOCKING: the select_cb_list must only be accessed while holding
2613:ThirdPackage/lwip220/api/sockets.c ****  * the core lock. We do a single pass through the list and signal any waiters.
2614:ThirdPackage/lwip220/api/sockets.c ****  * Core lock should already be held when calling here!!!!
2615:ThirdPackage/lwip220/api/sockets.c **** 
2616:ThirdPackage/lwip220/api/sockets.c ****  * !LWIP_TCPIP_CORE_LOCKING: we use SYS_ARCH_PROTECT but unlock on each iteration
2617:ThirdPackage/lwip220/api/sockets.c ****  * of the loop, thus creating a possibility where a thread could modify the
2618:ThirdPackage/lwip220/api/sockets.c ****  * select_cb_list during our UNPROTECT/PROTECT. We use a generational counter to
2619:ThirdPackage/lwip220/api/sockets.c ****  * detect this change and restart the list walk. The list is expected to be small
2620:ThirdPackage/lwip220/api/sockets.c ****  */
2621:ThirdPackage/lwip220/api/sockets.c **** static void select_check_waiters(int s, int has_recvevent, int has_sendevent, int has_errevent)
2622:ThirdPackage/lwip220/api/sockets.c **** {
2623:ThirdPackage/lwip220/api/sockets.c ****   struct lwip_select_cb *scb;
2624:ThirdPackage/lwip220/api/sockets.c **** #if !LWIP_TCPIP_CORE_LOCKING
2625:ThirdPackage/lwip220/api/sockets.c ****   int last_select_cb_ctr;
2626:ThirdPackage/lwip220/api/sockets.c ****   SYS_ARCH_DECL_PROTECT(lev);
2627:ThirdPackage/lwip220/api/sockets.c **** #endif /* !LWIP_TCPIP_CORE_LOCKING */
2628:ThirdPackage/lwip220/api/sockets.c **** 
2629:ThirdPackage/lwip220/api/sockets.c ****   LWIP_ASSERT_CORE_LOCKED();
2630:ThirdPackage/lwip220/api/sockets.c **** 
2631:ThirdPackage/lwip220/api/sockets.c **** #if !LWIP_TCPIP_CORE_LOCKING
2632:ThirdPackage/lwip220/api/sockets.c ****   SYS_ARCH_PROTECT(lev);
2633:ThirdPackage/lwip220/api/sockets.c **** again:
2634:ThirdPackage/lwip220/api/sockets.c ****   /* remember the state of select_cb_list to detect changes */
2635:ThirdPackage/lwip220/api/sockets.c ****   last_select_cb_ctr = select_cb_ctr;
2636:ThirdPackage/lwip220/api/sockets.c **** #endif /* !LWIP_TCPIP_CORE_LOCKING */
2637:ThirdPackage/lwip220/api/sockets.c ****   for (scb = select_cb_list; scb != NULL; scb = scb->next) {
2638:ThirdPackage/lwip220/api/sockets.c ****     if (scb->sem_signalled == 0) {
2639:ThirdPackage/lwip220/api/sockets.c ****       /* semaphore not signalled yet */
2640:ThirdPackage/lwip220/api/sockets.c ****       int do_signal = 0;
2641:ThirdPackage/lwip220/api/sockets.c **** #if LWIP_SOCKET_POLL
2642:ThirdPackage/lwip220/api/sockets.c ****       if (scb->poll_fds != NULL) {
2643:ThirdPackage/lwip220/api/sockets.c ****         do_signal = lwip_poll_should_wake(scb, s, has_recvevent, has_sendevent, has_errevent);
2644:ThirdPackage/lwip220/api/sockets.c ****       }
2645:ThirdPackage/lwip220/api/sockets.c **** #endif /* LWIP_SOCKET_POLL */
2646:ThirdPackage/lwip220/api/sockets.c **** #if LWIP_SOCKET_SELECT && LWIP_SOCKET_POLL
2647:ThirdPackage/lwip220/api/sockets.c ****       else
2648:ThirdPackage/lwip220/api/sockets.c **** #endif /* LWIP_SOCKET_SELECT && LWIP_SOCKET_POLL */
2649:ThirdPackage/lwip220/api/sockets.c **** #if LWIP_SOCKET_SELECT
2650:ThirdPackage/lwip220/api/sockets.c ****       {
2651:ThirdPackage/lwip220/api/sockets.c ****         /* Test this select call for our socket */
2652:ThirdPackage/lwip220/api/sockets.c ****         if (has_recvevent) {
2653:ThirdPackage/lwip220/api/sockets.c ****           if (scb->readset && FD_ISSET(s, scb->readset)) {
2654:ThirdPackage/lwip220/api/sockets.c ****             do_signal = 1;
2655:ThirdPackage/lwip220/api/sockets.c ****           }
2656:ThirdPackage/lwip220/api/sockets.c ****         }
ARM GAS  C:\Users\86188\AppData\Local\Temp\cca48a4Y.s 			page 55


2657:ThirdPackage/lwip220/api/sockets.c ****         if (has_sendevent) {
2658:ThirdPackage/lwip220/api/sockets.c ****           if (!do_signal && scb->writeset && FD_ISSET(s, scb->writeset)) {
2659:ThirdPackage/lwip220/api/sockets.c ****             do_signal = 1;
2660:ThirdPackage/lwip220/api/sockets.c ****           }
2661:ThirdPackage/lwip220/api/sockets.c ****         }
2662:ThirdPackage/lwip220/api/sockets.c ****         if (has_errevent) {
2663:ThirdPackage/lwip220/api/sockets.c ****           if (!do_signal && scb->exceptset && FD_ISSET(s, scb->exceptset)) {
2664:ThirdPackage/lwip220/api/sockets.c ****             do_signal = 1;
2665:ThirdPackage/lwip220/api/sockets.c ****           }
2666:ThirdPackage/lwip220/api/sockets.c ****         }
2667:ThirdPackage/lwip220/api/sockets.c ****       }
2668:ThirdPackage/lwip220/api/sockets.c **** #endif /* LWIP_SOCKET_SELECT */
2669:ThirdPackage/lwip220/api/sockets.c ****       if (do_signal) {
2670:ThirdPackage/lwip220/api/sockets.c ****         scb->sem_signalled = 1;
2671:ThirdPackage/lwip220/api/sockets.c ****         /* For !LWIP_TCPIP_CORE_LOCKING, we don't call SYS_ARCH_UNPROTECT() before signaling
2672:ThirdPackage/lwip220/api/sockets.c ****            the semaphore, as this might lead to the select thread taking itself off the list,
2673:ThirdPackage/lwip220/api/sockets.c ****            invalidating the semaphore. */
2674:ThirdPackage/lwip220/api/sockets.c ****         sys_sem_signal(SELECT_SEM_PTR(scb->sem));
2675:ThirdPackage/lwip220/api/sockets.c ****       }
2676:ThirdPackage/lwip220/api/sockets.c ****     }
2677:ThirdPackage/lwip220/api/sockets.c **** #if LWIP_TCPIP_CORE_LOCKING
2678:ThirdPackage/lwip220/api/sockets.c ****   }
2679:ThirdPackage/lwip220/api/sockets.c **** #else
2680:ThirdPackage/lwip220/api/sockets.c ****     /* unlock interrupts with each step */
2681:ThirdPackage/lwip220/api/sockets.c ****     SYS_ARCH_UNPROTECT(lev);
2682:ThirdPackage/lwip220/api/sockets.c ****     /* this makes sure interrupt protection time is short */
2683:ThirdPackage/lwip220/api/sockets.c ****     SYS_ARCH_PROTECT(lev);
2684:ThirdPackage/lwip220/api/sockets.c ****     if (last_select_cb_ctr != select_cb_ctr) {
2685:ThirdPackage/lwip220/api/sockets.c ****       /* someone has changed select_cb_list, restart at the beginning */
2686:ThirdPackage/lwip220/api/sockets.c ****       goto again;
2687:ThirdPackage/lwip220/api/sockets.c ****     }
2688:ThirdPackage/lwip220/api/sockets.c ****     /* remember the state of select_cb_list to detect changes */
2689:ThirdPackage/lwip220/api/sockets.c ****     last_select_cb_ctr = select_cb_ctr;
2690:ThirdPackage/lwip220/api/sockets.c ****   }
2691:ThirdPackage/lwip220/api/sockets.c ****   SYS_ARCH_UNPROTECT(lev);
2692:ThirdPackage/lwip220/api/sockets.c **** #endif
2693:ThirdPackage/lwip220/api/sockets.c **** }
2694:ThirdPackage/lwip220/api/sockets.c **** #endif /* LWIP_SOCKET_SELECT || LWIP_SOCKET_POLL */
2695:ThirdPackage/lwip220/api/sockets.c **** 
2696:ThirdPackage/lwip220/api/sockets.c **** /**
2697:ThirdPackage/lwip220/api/sockets.c ****  * Close one end of a full-duplex connection.
2698:ThirdPackage/lwip220/api/sockets.c ****  */
2699:ThirdPackage/lwip220/api/sockets.c **** int
2700:ThirdPackage/lwip220/api/sockets.c **** lwip_shutdown(int s, int how)
2701:ThirdPackage/lwip220/api/sockets.c **** {
2702:ThirdPackage/lwip220/api/sockets.c ****   struct lwip_sock *sock;
2703:ThirdPackage/lwip220/api/sockets.c ****   err_t err;
2704:ThirdPackage/lwip220/api/sockets.c ****   u8_t shut_rx = 0, shut_tx = 0;
2705:ThirdPackage/lwip220/api/sockets.c **** 
2706:ThirdPackage/lwip220/api/sockets.c ****   LWIP_DEBUGF(SOCKETS_DEBUG, ("lwip_shutdown(%d, how=%d)\n", s, how));
2707:ThirdPackage/lwip220/api/sockets.c **** 
2708:ThirdPackage/lwip220/api/sockets.c ****   sock = get_socket(s);
2709:ThirdPackage/lwip220/api/sockets.c ****   if (!sock) {
2710:ThirdPackage/lwip220/api/sockets.c ****     return -1;
2711:ThirdPackage/lwip220/api/sockets.c ****   }
2712:ThirdPackage/lwip220/api/sockets.c **** 
2713:ThirdPackage/lwip220/api/sockets.c ****   if (sock->conn != NULL) {
ARM GAS  C:\Users\86188\AppData\Local\Temp\cca48a4Y.s 			page 56


2714:ThirdPackage/lwip220/api/sockets.c ****     if (NETCONNTYPE_GROUP(netconn_type(sock->conn)) != NETCONN_TCP) {
2715:ThirdPackage/lwip220/api/sockets.c ****       set_errno(EOPNOTSUPP);
2716:ThirdPackage/lwip220/api/sockets.c ****       done_socket(sock);
2717:ThirdPackage/lwip220/api/sockets.c ****       return -1;
2718:ThirdPackage/lwip220/api/sockets.c ****     }
2719:ThirdPackage/lwip220/api/sockets.c ****   } else {
2720:ThirdPackage/lwip220/api/sockets.c ****     set_errno(ENOTCONN);
2721:ThirdPackage/lwip220/api/sockets.c ****     done_socket(sock);
2722:ThirdPackage/lwip220/api/sockets.c ****     return -1;
2723:ThirdPackage/lwip220/api/sockets.c ****   }
2724:ThirdPackage/lwip220/api/sockets.c **** 
2725:ThirdPackage/lwip220/api/sockets.c ****   if (how == SHUT_RD) {
2726:ThirdPackage/lwip220/api/sockets.c ****     shut_rx = 1;
2727:ThirdPackage/lwip220/api/sockets.c ****   } else if (how == SHUT_WR) {
2728:ThirdPackage/lwip220/api/sockets.c ****     shut_tx = 1;
2729:ThirdPackage/lwip220/api/sockets.c ****   } else if (how == SHUT_RDWR) {
2730:ThirdPackage/lwip220/api/sockets.c ****     shut_rx = 1;
2731:ThirdPackage/lwip220/api/sockets.c ****     shut_tx = 1;
2732:ThirdPackage/lwip220/api/sockets.c ****   } else {
2733:ThirdPackage/lwip220/api/sockets.c ****     set_errno(EINVAL);
2734:ThirdPackage/lwip220/api/sockets.c ****     done_socket(sock);
2735:ThirdPackage/lwip220/api/sockets.c ****     return -1;
2736:ThirdPackage/lwip220/api/sockets.c ****   }
2737:ThirdPackage/lwip220/api/sockets.c ****   err = netconn_shutdown(sock->conn, shut_rx, shut_tx);
2738:ThirdPackage/lwip220/api/sockets.c **** 
2739:ThirdPackage/lwip220/api/sockets.c ****   set_errno(err_to_errno(err));
2740:ThirdPackage/lwip220/api/sockets.c ****   done_socket(sock);
2741:ThirdPackage/lwip220/api/sockets.c ****   return (err == ERR_OK ? 0 : -1);
2742:ThirdPackage/lwip220/api/sockets.c **** }
2743:ThirdPackage/lwip220/api/sockets.c **** 
2744:ThirdPackage/lwip220/api/sockets.c **** static int
2745:ThirdPackage/lwip220/api/sockets.c **** lwip_getaddrname(int s, struct sockaddr *name, socklen_t *namelen, u8_t local)
2746:ThirdPackage/lwip220/api/sockets.c **** {
2747:ThirdPackage/lwip220/api/sockets.c ****   struct lwip_sock *sock;
2748:ThirdPackage/lwip220/api/sockets.c ****   union sockaddr_aligned saddr;
2749:ThirdPackage/lwip220/api/sockets.c ****   ip_addr_t naddr;
2750:ThirdPackage/lwip220/api/sockets.c ****   u16_t port;
2751:ThirdPackage/lwip220/api/sockets.c ****   err_t err;
2752:ThirdPackage/lwip220/api/sockets.c **** 
2753:ThirdPackage/lwip220/api/sockets.c ****   sock = get_socket(s);
2754:ThirdPackage/lwip220/api/sockets.c ****   if (!sock) {
2755:ThirdPackage/lwip220/api/sockets.c ****     return -1;
2756:ThirdPackage/lwip220/api/sockets.c ****   }
2757:ThirdPackage/lwip220/api/sockets.c **** 
2758:ThirdPackage/lwip220/api/sockets.c ****   /* get the IP address and port */
2759:ThirdPackage/lwip220/api/sockets.c ****   err = netconn_getaddr(sock->conn, &naddr, &port, local);
2760:ThirdPackage/lwip220/api/sockets.c ****   if (err != ERR_OK) {
2761:ThirdPackage/lwip220/api/sockets.c ****     set_errno(err_to_errno(err));
2762:ThirdPackage/lwip220/api/sockets.c ****     done_socket(sock);
2763:ThirdPackage/lwip220/api/sockets.c ****     return -1;
2764:ThirdPackage/lwip220/api/sockets.c ****   }
2765:ThirdPackage/lwip220/api/sockets.c **** 
2766:ThirdPackage/lwip220/api/sockets.c **** #if LWIP_IPV4 && LWIP_IPV6
2767:ThirdPackage/lwip220/api/sockets.c ****   /* Dual-stack: Map IPv4 addresses to IPv4 mapped IPv6 */
2768:ThirdPackage/lwip220/api/sockets.c ****   if (NETCONNTYPE_ISIPV6(netconn_type(sock->conn)) &&
2769:ThirdPackage/lwip220/api/sockets.c ****       IP_IS_V4_VAL(naddr)) {
2770:ThirdPackage/lwip220/api/sockets.c ****     ip4_2_ipv4_mapped_ipv6(ip_2_ip6(&naddr), ip_2_ip4(&naddr));
ARM GAS  C:\Users\86188\AppData\Local\Temp\cca48a4Y.s 			page 57


2771:ThirdPackage/lwip220/api/sockets.c ****     IP_SET_TYPE_VAL(naddr, IPADDR_TYPE_V6);
2772:ThirdPackage/lwip220/api/sockets.c ****   }
2773:ThirdPackage/lwip220/api/sockets.c **** #endif /* LWIP_IPV4 && LWIP_IPV6 */
2774:ThirdPackage/lwip220/api/sockets.c **** 
2775:ThirdPackage/lwip220/api/sockets.c ****   IPADDR_PORT_TO_SOCKADDR(&saddr, &naddr, port);
2776:ThirdPackage/lwip220/api/sockets.c **** 
2777:ThirdPackage/lwip220/api/sockets.c ****   LWIP_DEBUGF(SOCKETS_DEBUG, ("lwip_getaddrname(%d, addr=", s));
2778:ThirdPackage/lwip220/api/sockets.c ****   ip_addr_debug_print_val(SOCKETS_DEBUG, naddr);
2779:ThirdPackage/lwip220/api/sockets.c ****   LWIP_DEBUGF(SOCKETS_DEBUG, (" port=%"U16_F")\n", port));
2780:ThirdPackage/lwip220/api/sockets.c **** 
2781:ThirdPackage/lwip220/api/sockets.c ****   if (*namelen > IPADDR_SOCKADDR_GET_LEN(&saddr)) {
2782:ThirdPackage/lwip220/api/sockets.c ****     *namelen = IPADDR_SOCKADDR_GET_LEN(&saddr);
2783:ThirdPackage/lwip220/api/sockets.c ****   }
2784:ThirdPackage/lwip220/api/sockets.c ****   MEMCPY(name, &saddr, *namelen);
2785:ThirdPackage/lwip220/api/sockets.c **** 
2786:ThirdPackage/lwip220/api/sockets.c ****   set_errno(0);
2787:ThirdPackage/lwip220/api/sockets.c ****   done_socket(sock);
2788:ThirdPackage/lwip220/api/sockets.c ****   return 0;
2789:ThirdPackage/lwip220/api/sockets.c **** }
2790:ThirdPackage/lwip220/api/sockets.c **** 
2791:ThirdPackage/lwip220/api/sockets.c **** int
2792:ThirdPackage/lwip220/api/sockets.c **** lwip_getpeername(int s, struct sockaddr *name, socklen_t *namelen)
2793:ThirdPackage/lwip220/api/sockets.c **** {
2794:ThirdPackage/lwip220/api/sockets.c ****   return lwip_getaddrname(s, name, namelen, 0);
2795:ThirdPackage/lwip220/api/sockets.c **** }
2796:ThirdPackage/lwip220/api/sockets.c **** 
2797:ThirdPackage/lwip220/api/sockets.c **** int
2798:ThirdPackage/lwip220/api/sockets.c **** lwip_getsockname(int s, struct sockaddr *name, socklen_t *namelen)
2799:ThirdPackage/lwip220/api/sockets.c **** {
2800:ThirdPackage/lwip220/api/sockets.c ****   return lwip_getaddrname(s, name, namelen, 1);
2801:ThirdPackage/lwip220/api/sockets.c **** }
2802:ThirdPackage/lwip220/api/sockets.c **** 
2803:ThirdPackage/lwip220/api/sockets.c **** int
2804:ThirdPackage/lwip220/api/sockets.c **** lwip_getsockopt(int s, int level, int optname, void *optval, socklen_t *optlen)
2805:ThirdPackage/lwip220/api/sockets.c **** {
2806:ThirdPackage/lwip220/api/sockets.c ****   int err;
2807:ThirdPackage/lwip220/api/sockets.c ****   struct lwip_sock *sock = get_socket(s);
2808:ThirdPackage/lwip220/api/sockets.c **** #if !LWIP_TCPIP_CORE_LOCKING
2809:ThirdPackage/lwip220/api/sockets.c ****   err_t cberr;
2810:ThirdPackage/lwip220/api/sockets.c ****   LWIP_SETGETSOCKOPT_DATA_VAR_DECLARE(data);
2811:ThirdPackage/lwip220/api/sockets.c **** #endif /* !LWIP_TCPIP_CORE_LOCKING */
2812:ThirdPackage/lwip220/api/sockets.c **** 
2813:ThirdPackage/lwip220/api/sockets.c ****   if (!sock) {
2814:ThirdPackage/lwip220/api/sockets.c ****     return -1;
2815:ThirdPackage/lwip220/api/sockets.c ****   }
2816:ThirdPackage/lwip220/api/sockets.c **** 
2817:ThirdPackage/lwip220/api/sockets.c ****   if ((NULL == optval) || (NULL == optlen)) {
2818:ThirdPackage/lwip220/api/sockets.c ****     set_errno(EFAULT);
2819:ThirdPackage/lwip220/api/sockets.c ****     done_socket(sock);
2820:ThirdPackage/lwip220/api/sockets.c ****     return -1;
2821:ThirdPackage/lwip220/api/sockets.c ****   }
2822:ThirdPackage/lwip220/api/sockets.c **** 
2823:ThirdPackage/lwip220/api/sockets.c **** #if LWIP_TCPIP_CORE_LOCKING
2824:ThirdPackage/lwip220/api/sockets.c ****   /* core-locking can just call the -impl function */
2825:ThirdPackage/lwip220/api/sockets.c ****   LOCK_TCPIP_CORE();
2826:ThirdPackage/lwip220/api/sockets.c ****   err = lwip_getsockopt_impl(s, level, optname, optval, optlen);
2827:ThirdPackage/lwip220/api/sockets.c ****   UNLOCK_TCPIP_CORE();
ARM GAS  C:\Users\86188\AppData\Local\Temp\cca48a4Y.s 			page 58


2828:ThirdPackage/lwip220/api/sockets.c **** 
2829:ThirdPackage/lwip220/api/sockets.c **** #else /* LWIP_TCPIP_CORE_LOCKING */
2830:ThirdPackage/lwip220/api/sockets.c **** 
2831:ThirdPackage/lwip220/api/sockets.c **** #if LWIP_MPU_COMPATIBLE
2832:ThirdPackage/lwip220/api/sockets.c ****   /* MPU_COMPATIBLE copies the optval data, so check for max size here */
2833:ThirdPackage/lwip220/api/sockets.c ****   if (*optlen > LWIP_SETGETSOCKOPT_MAXOPTLEN) {
2834:ThirdPackage/lwip220/api/sockets.c ****     set_errno(ENOBUFS);
2835:ThirdPackage/lwip220/api/sockets.c ****     done_socket(sock);
2836:ThirdPackage/lwip220/api/sockets.c ****     return -1;
2837:ThirdPackage/lwip220/api/sockets.c ****   }
2838:ThirdPackage/lwip220/api/sockets.c **** #endif /* LWIP_MPU_COMPATIBLE */
2839:ThirdPackage/lwip220/api/sockets.c **** 
2840:ThirdPackage/lwip220/api/sockets.c ****   LWIP_SETGETSOCKOPT_DATA_VAR_ALLOC(data, sock);
2841:ThirdPackage/lwip220/api/sockets.c ****   LWIP_SETGETSOCKOPT_DATA_VAR_REF(data).s = s;
2842:ThirdPackage/lwip220/api/sockets.c ****   LWIP_SETGETSOCKOPT_DATA_VAR_REF(data).level = level;
2843:ThirdPackage/lwip220/api/sockets.c ****   LWIP_SETGETSOCKOPT_DATA_VAR_REF(data).optname = optname;
2844:ThirdPackage/lwip220/api/sockets.c ****   LWIP_SETGETSOCKOPT_DATA_VAR_REF(data).optlen = *optlen;
2845:ThirdPackage/lwip220/api/sockets.c **** #if !LWIP_MPU_COMPATIBLE
2846:ThirdPackage/lwip220/api/sockets.c ****   LWIP_SETGETSOCKOPT_DATA_VAR_REF(data).optval.p = optval;
2847:ThirdPackage/lwip220/api/sockets.c **** #endif /* !LWIP_MPU_COMPATIBLE */
2848:ThirdPackage/lwip220/api/sockets.c ****   LWIP_SETGETSOCKOPT_DATA_VAR_REF(data).err = 0;
2849:ThirdPackage/lwip220/api/sockets.c **** #if LWIP_NETCONN_SEM_PER_THREAD
2850:ThirdPackage/lwip220/api/sockets.c ****   LWIP_SETGETSOCKOPT_DATA_VAR_REF(data).completed_sem = LWIP_NETCONN_THREAD_SEM_GET();
2851:ThirdPackage/lwip220/api/sockets.c **** #else
2852:ThirdPackage/lwip220/api/sockets.c ****   LWIP_SETGETSOCKOPT_DATA_VAR_REF(data).completed_sem = &sock->conn->op_completed;
2853:ThirdPackage/lwip220/api/sockets.c **** #endif
2854:ThirdPackage/lwip220/api/sockets.c ****   cberr = tcpip_callback(lwip_getsockopt_callback, &LWIP_SETGETSOCKOPT_DATA_VAR_REF(data));
2855:ThirdPackage/lwip220/api/sockets.c ****   if (cberr != ERR_OK) {
2856:ThirdPackage/lwip220/api/sockets.c ****     LWIP_SETGETSOCKOPT_DATA_VAR_FREE(data);
2857:ThirdPackage/lwip220/api/sockets.c ****     set_errno(err_to_errno(cberr));
2858:ThirdPackage/lwip220/api/sockets.c ****     done_socket(sock);
2859:ThirdPackage/lwip220/api/sockets.c ****     return -1;
2860:ThirdPackage/lwip220/api/sockets.c ****   }
2861:ThirdPackage/lwip220/api/sockets.c ****   sys_arch_sem_wait((sys_sem_t *)(LWIP_SETGETSOCKOPT_DATA_VAR_REF(data).completed_sem), 0);
2862:ThirdPackage/lwip220/api/sockets.c **** 
2863:ThirdPackage/lwip220/api/sockets.c ****   /* write back optlen and optval */
2864:ThirdPackage/lwip220/api/sockets.c ****   *optlen = LWIP_SETGETSOCKOPT_DATA_VAR_REF(data).optlen;
2865:ThirdPackage/lwip220/api/sockets.c **** #if LWIP_MPU_COMPATIBLE
2866:ThirdPackage/lwip220/api/sockets.c ****   MEMCPY(optval, LWIP_SETGETSOCKOPT_DATA_VAR_REF(data).optval,
2867:ThirdPackage/lwip220/api/sockets.c ****          LWIP_SETGETSOCKOPT_DATA_VAR_REF(data).optlen);
2868:ThirdPackage/lwip220/api/sockets.c **** #endif /* LWIP_MPU_COMPATIBLE */
2869:ThirdPackage/lwip220/api/sockets.c **** 
2870:ThirdPackage/lwip220/api/sockets.c ****   /* maybe lwip_getsockopt_impl has changed err */
2871:ThirdPackage/lwip220/api/sockets.c ****   err = LWIP_SETGETSOCKOPT_DATA_VAR_REF(data).err;
2872:ThirdPackage/lwip220/api/sockets.c ****   LWIP_SETGETSOCKOPT_DATA_VAR_FREE(data);
2873:ThirdPackage/lwip220/api/sockets.c **** #endif /* LWIP_TCPIP_CORE_LOCKING */
2874:ThirdPackage/lwip220/api/sockets.c **** 
2875:ThirdPackage/lwip220/api/sockets.c ****   set_errno(err);
2876:ThirdPackage/lwip220/api/sockets.c ****   done_socket(sock);
2877:ThirdPackage/lwip220/api/sockets.c ****   return err ? -1 : 0;
2878:ThirdPackage/lwip220/api/sockets.c **** }
2879:ThirdPackage/lwip220/api/sockets.c **** 
2880:ThirdPackage/lwip220/api/sockets.c **** #if !LWIP_TCPIP_CORE_LOCKING
2881:ThirdPackage/lwip220/api/sockets.c **** /** lwip_getsockopt_callback: only used without CORE_LOCKING
2882:ThirdPackage/lwip220/api/sockets.c ****  * to get into the tcpip_thread
2883:ThirdPackage/lwip220/api/sockets.c ****  */
2884:ThirdPackage/lwip220/api/sockets.c **** static void
ARM GAS  C:\Users\86188\AppData\Local\Temp\cca48a4Y.s 			page 59


2885:ThirdPackage/lwip220/api/sockets.c **** lwip_getsockopt_callback(void *arg)
2886:ThirdPackage/lwip220/api/sockets.c **** {
2887:ThirdPackage/lwip220/api/sockets.c ****   struct lwip_setgetsockopt_data *data;
2888:ThirdPackage/lwip220/api/sockets.c ****   LWIP_ASSERT("arg != NULL", arg != NULL);
2889:ThirdPackage/lwip220/api/sockets.c ****   data = (struct lwip_setgetsockopt_data *)arg;
2890:ThirdPackage/lwip220/api/sockets.c **** 
2891:ThirdPackage/lwip220/api/sockets.c ****   data->err = lwip_getsockopt_impl(data->s, data->level, data->optname,
2892:ThirdPackage/lwip220/api/sockets.c **** #if LWIP_MPU_COMPATIBLE
2893:ThirdPackage/lwip220/api/sockets.c ****                                    data->optval,
2894:ThirdPackage/lwip220/api/sockets.c **** #else /* LWIP_MPU_COMPATIBLE */
2895:ThirdPackage/lwip220/api/sockets.c ****                                    data->optval.p,
2896:ThirdPackage/lwip220/api/sockets.c **** #endif /* LWIP_MPU_COMPATIBLE */
2897:ThirdPackage/lwip220/api/sockets.c ****                                    &data->optlen);
2898:ThirdPackage/lwip220/api/sockets.c **** 
2899:ThirdPackage/lwip220/api/sockets.c ****   sys_sem_signal((sys_sem_t *)(data->completed_sem));
2900:ThirdPackage/lwip220/api/sockets.c **** }
2901:ThirdPackage/lwip220/api/sockets.c **** #endif  /* LWIP_TCPIP_CORE_LOCKING */
2902:ThirdPackage/lwip220/api/sockets.c **** 
2903:ThirdPackage/lwip220/api/sockets.c **** static int
2904:ThirdPackage/lwip220/api/sockets.c **** lwip_sockopt_to_ipopt(int optname)
2905:ThirdPackage/lwip220/api/sockets.c **** {
 390              		.loc 1 2905 1 is_stmt 1 view -0
 391              		.cfi_startproc
 392              		@ args = 0, pretend = 0, frame = 0
 393              		@ frame_needed = 0, uses_anonymous_args = 0
2906:ThirdPackage/lwip220/api/sockets.c ****   /* Map SO_* values to our internal SOF_* values
2907:ThirdPackage/lwip220/api/sockets.c ****    * We should not rely on #defines in socket.h
2908:ThirdPackage/lwip220/api/sockets.c ****    * being in sync with ip.h.
2909:ThirdPackage/lwip220/api/sockets.c ****    */
2910:ThirdPackage/lwip220/api/sockets.c ****   switch (optname) {
 394              		.loc 1 2910 3 view .LVU103
 395 0000 0828     		cmp	r0, #8
 396 0002 0DD0     		beq	.L36
 397 0004 2028     		cmp	r0, #32
 398 0006 0BD0     		beq	.L36
 399 0008 0428     		cmp	r0, #4
 400 000a 09D0     		beq	.L36
2905:ThirdPackage/lwip220/api/sockets.c ****   /* Map SO_* values to our internal SOF_* values
 401              		.loc 1 2905 1 is_stmt 0 discriminator 1 view .LVU104
 402 000c 08B5     		push	{r3, lr}
 403              	.LCFI5:
 404              		.cfi_def_cfa_offset 8
 405              		.cfi_offset 3, -8
 406              		.cfi_offset 14, -4
2911:ThirdPackage/lwip220/api/sockets.c ****   case SO_BROADCAST:
2912:ThirdPackage/lwip220/api/sockets.c ****     return SOF_BROADCAST;
2913:ThirdPackage/lwip220/api/sockets.c ****   case SO_KEEPALIVE:
2914:ThirdPackage/lwip220/api/sockets.c ****     return SOF_KEEPALIVE;
2915:ThirdPackage/lwip220/api/sockets.c ****   case SO_REUSEADDR:
2916:ThirdPackage/lwip220/api/sockets.c ****     return SOF_REUSEADDR;
2917:ThirdPackage/lwip220/api/sockets.c ****   default:
2918:ThirdPackage/lwip220/api/sockets.c ****     LWIP_ASSERT("Unknown socket option", 0);
 407              		.loc 1 2918 5 is_stmt 1 discriminator 1 view .LVU105
 408              		.loc 1 2918 5 discriminator 1 view .LVU106
 409              		.loc 1 2918 5 discriminator 1 view .LVU107
 410              		.loc 1 2918 5 discriminator 1 view .LVU108
 411 000e 054B     		ldr	r3, .L39
ARM GAS  C:\Users\86188\AppData\Local\Temp\cca48a4Y.s 			page 60


 412 0010 40F66632 		movw	r2, #2918
 413 0014 0449     		ldr	r1, .L39+4
 414 0016 0548     		ldr	r0, .L39+8
 415              	.LVL31:
 416              		.loc 1 2918 5 is_stmt 0 discriminator 1 view .LVU109
 417 0018 FFF7FEFF 		bl	printf
 418              	.LVL32:
 419              		.loc 1 2918 5 is_stmt 1 discriminator 1 view .LVU110
 420              		.loc 1 2918 5 discriminator 1 view .LVU111
2919:ThirdPackage/lwip220/api/sockets.c ****     return 0;
 421              		.loc 1 2919 5 discriminator 1 view .LVU112
 422              		.loc 1 2919 12 is_stmt 0 discriminator 1 view .LVU113
 423 001c 0020     		movs	r0, #0
2920:ThirdPackage/lwip220/api/sockets.c ****   }
2921:ThirdPackage/lwip220/api/sockets.c **** }
 424              		.loc 1 2921 1 discriminator 1 view .LVU114
 425 001e 08BD     		pop	{r3, pc}
 426              	.LVL33:
 427              	.L36:
 428              	.LCFI6:
 429              		.cfi_def_cfa_offset 0
 430              		.cfi_restore 3
 431              		.cfi_restore 14
 432              		.loc 1 2921 1 view .LVU115
 433 0020 7047     		bx	lr
 434              	.L40:
 435 0022 00BF     		.align	2
 436              	.L39:
 437 0024 00000000 		.word	.LC0
 438 0028 24000000 		.word	.LC1
 439 002c 3C000000 		.word	.LC2
 440              		.cfi_endproc
 441              	.LFE206:
 443              		.section	.rodata.alloc_socket.str1.4,"aMS",%progbits,1
 444              		.align	2
 445              	.LC3:
 446 0000 736F636B 		.ascii	"sockets[i].select_waiting == 0\000"
 446      6574735B 
 446      695D2E73 
 446      656C6563 
 446      745F7761 
