ARM GAS  C:\Users\86188\AppData\Local\Temp\ccfYzvp0.s 			page 1


   1              		.cpu cortex-m4
   2              		.arch armv7e-m
   3              		.fpu fpv4-sp-d16
   4              		.eabi_attribute 27, 1
   5              		.eabi_attribute 28, 1
   6              		.eabi_attribute 20, 1
   7              		.eabi_attribute 21, 1
   8              		.eabi_attribute 23, 3
   9              		.eabi_attribute 24, 1
  10              		.eabi_attribute 25, 1
  11              		.eabi_attribute 26, 1
  12              		.eabi_attribute 30, 1
  13              		.eabi_attribute 34, 1
  14              		.eabi_attribute 18, 4
  15              		.file	"stm32f4xx_it.c"
  16              		.text
  17              	.Ltext0:
  18              		.cfi_sections	.debug_frame
  19              		.section	.text.NMI_Handler,"ax",%progbits
  20              		.align	1
  21              		.global	NMI_Handler
  22              		.syntax unified
  23              		.thumb
  24              		.thumb_func
  26              	NMI_Handler:
  27              	.LFB137:
  28              		.file 1 "Core/Src/stm32f4xx_it.c"
   1:Core/Src/stm32f4xx_it.c **** 
   2:Core/Src/stm32f4xx_it.c **** #include "main.h"
   3:Core/Src/stm32f4xx_it.c **** 
   4:Core/Src/stm32f4xx_it.c **** void NMI_Handler(void)
   5:Core/Src/stm32f4xx_it.c **** {
  29              		.loc 1 5 1 view -0
  30              		.cfi_startproc
  31              		@ Volatile: function does not return.
  32              		@ args = 0, pretend = 0, frame = 0
  33              		@ frame_needed = 0, uses_anonymous_args = 0
  34              		@ link register save eliminated.
  35              	.L2:
   6:Core/Src/stm32f4xx_it.c ****     while (1)
  36              		.loc 1 6 5 discriminator 1 view .LVU1
   7:Core/Src/stm32f4xx_it.c ****     {
   8:Core/Src/stm32f4xx_it.c **** 
   9:Core/Src/stm32f4xx_it.c ****     }
  37              		.loc 1 9 5 discriminator 1 view .LVU2
   6:Core/Src/stm32f4xx_it.c ****     while (1)
  38              		.loc 1 6 11 discriminator 1 view .LVU3
  39 0000 FEE7     		b	.L2
  40              		.cfi_endproc
  41              	.LFE137:
  43              		.section	.text.HardFault_Handler,"ax",%progbits
  44              		.align	1
  45              		.global	HardFault_Handler
  46              		.syntax unified
  47              		.thumb
  48              		.thumb_func
  50              	HardFault_Handler:
ARM GAS  C:\Users\86188\AppData\Local\Temp\ccfYzvp0.s 			page 2


  51              	.LFB138:
  10:Core/Src/stm32f4xx_it.c **** }
  11:Core/Src/stm32f4xx_it.c **** 
  12:Core/Src/stm32f4xx_it.c **** void HardFault_Handler(void)
  13:Core/Src/stm32f4xx_it.c **** {
  52              		.loc 1 13 1 view -0
  53              		.cfi_startproc
  54              		@ Volatile: function does not return.
  55              		@ args = 0, pretend = 0, frame = 0
  56              		@ frame_needed = 0, uses_anonymous_args = 0
  57              		@ link register save eliminated.
  58              	.L4:
  14:Core/Src/stm32f4xx_it.c ****     while (1)
  59              		.loc 1 14 5 discriminator 1 view .LVU5
  15:Core/Src/stm32f4xx_it.c ****     {
  16:Core/Src/stm32f4xx_it.c **** 
  17:Core/Src/stm32f4xx_it.c ****     }
  60              		.loc 1 17 5 discriminator 1 view .LVU6
  14:Core/Src/stm32f4xx_it.c ****     while (1)
  61              		.loc 1 14 11 discriminator 1 view .LVU7
  62 0000 FEE7     		b	.L4
  63              		.cfi_endproc
  64              	.LFE138:
  66              		.section	.text.MemManage_Handler,"ax",%progbits
  67              		.align	1
  68              		.global	MemManage_Handler
  69              		.syntax unified
  70              		.thumb
  71              		.thumb_func
  73              	MemManage_Handler:
  74              	.LFB139:
  18:Core/Src/stm32f4xx_it.c **** }
  19:Core/Src/stm32f4xx_it.c **** 
  20:Core/Src/stm32f4xx_it.c **** void MemManage_Handler(void)
  21:Core/Src/stm32f4xx_it.c **** {
  75              		.loc 1 21 1 view -0
  76              		.cfi_startproc
  77              		@ Volatile: function does not return.
  78              		@ args = 0, pretend = 0, frame = 0
  79              		@ frame_needed = 0, uses_anonymous_args = 0
  80              		@ link register save eliminated.
  81              	.L6:
  22:Core/Src/stm32f4xx_it.c ****     while (1)
  82              		.loc 1 22 5 discriminator 1 view .LVU9
  23:Core/Src/stm32f4xx_it.c ****     {
  24:Core/Src/stm32f4xx_it.c **** 
  25:Core/Src/stm32f4xx_it.c ****     }
  83              		.loc 1 25 5 discriminator 1 view .LVU10
  22:Core/Src/stm32f4xx_it.c ****     while (1)
  84              		.loc 1 22 11 discriminator 1 view .LVU11
  85 0000 FEE7     		b	.L6
  86              		.cfi_endproc
  87              	.LFE139:
  89              		.section	.text.BusFault_Handler,"ax",%progbits
  90              		.align	1
  91              		.global	BusFault_Handler
  92              		.syntax unified
ARM GAS  C:\Users\86188\AppData\Local\Temp\ccfYzvp0.s 			page 3


  93              		.thumb
  94              		.thumb_func
  96              	BusFault_Handler:
  97              	.LFB140:
  26:Core/Src/stm32f4xx_it.c **** }
  27:Core/Src/stm32f4xx_it.c **** 
  28:Core/Src/stm32f4xx_it.c **** void BusFault_Handler(void)
  29:Core/Src/stm32f4xx_it.c **** {
  98              		.loc 1 29 1 view -0
  99              		.cfi_startproc
 100              		@ Volatile: function does not return.
 101              		@ args = 0, pretend = 0, frame = 0
 102              		@ frame_needed = 0, uses_anonymous_args = 0
 103              		@ link register save eliminated.
 104              	.L8:
  30:Core/Src/stm32f4xx_it.c ****     while (1)
 105              		.loc 1 30 5 discriminator 1 view .LVU13
  31:Core/Src/stm32f4xx_it.c ****     {
  32:Core/Src/stm32f4xx_it.c **** 
  33:Core/Src/stm32f4xx_it.c ****     }
 106              		.loc 1 33 5 discriminator 1 view .LVU14
  30:Core/Src/stm32f4xx_it.c ****     while (1)
 107              		.loc 1 30 11 discriminator 1 view .LVU15
 108 0000 FEE7     		b	.L8
 109              		.cfi_endproc
 110              	.LFE140:
 112              		.section	.text.UsageFault_Handler,"ax",%progbits
 113              		.align	1
 114              		.global	UsageFault_Handler
 115              		.syntax unified
 116              		.thumb
 117              		.thumb_func
 119              	UsageFault_Handler:
 120              	.LFB141:
  34:Core/Src/stm32f4xx_it.c **** }
  35:Core/Src/stm32f4xx_it.c **** 
  36:Core/Src/stm32f4xx_it.c **** void UsageFault_Handler(void)
  37:Core/Src/stm32f4xx_it.c **** {
 121              		.loc 1 37 1 view -0
 122              		.cfi_startproc
 123              		@ Volatile: function does not return.
 124              		@ args = 0, pretend = 0, frame = 0
 125              		@ frame_needed = 0, uses_anonymous_args = 0
 126              		@ link register save eliminated.
 127              	.L10:
  38:Core/Src/stm32f4xx_it.c ****     while (1)
 128              		.loc 1 38 5 discriminator 1 view .LVU17
  39:Core/Src/stm32f4xx_it.c ****     {
  40:Core/Src/stm32f4xx_it.c **** 
  41:Core/Src/stm32f4xx_it.c ****     }
 129              		.loc 1 41 5 discriminator 1 view .LVU18
  38:Core/Src/stm32f4xx_it.c ****     while (1)
 130              		.loc 1 38 11 discriminator 1 view .LVU19
 131 0000 FEE7     		b	.L10
 132              		.cfi_endproc
 133              	.LFE141:
 135              		.section	.text.DebugMon_Handler,"ax",%progbits
ARM GAS  C:\Users\86188\AppData\Local\Temp\ccfYzvp0.s 			page 4


 136              		.align	1
 137              		.global	DebugMon_Handler
 138              		.syntax unified
 139              		.thumb
 140              		.thumb_func
 142              	DebugMon_Handler:
 143              	.LFB142:
  42:Core/Src/stm32f4xx_it.c **** }
  43:Core/Src/stm32f4xx_it.c **** 
  44:Core/Src/stm32f4xx_it.c **** 
  45:Core/Src/stm32f4xx_it.c **** void DebugMon_Handler(void)
  46:Core/Src/stm32f4xx_it.c **** {
 144              		.loc 1 46 1 view -0
 145              		.cfi_startproc
 146              		@ args = 0, pretend = 0, frame = 0
 147              		@ frame_needed = 0, uses_anonymous_args = 0
 148              		@ link register save eliminated.
  47:Core/Src/stm32f4xx_it.c **** 
  48:Core/Src/stm32f4xx_it.c **** }
 149              		.loc 1 48 1 view .LVU21
 150 0000 7047     		bx	lr
 151              		.cfi_endproc
 152              	.LFE142:
 154              		.section	.text.EXTI9_5_IRQHandler,"ax",%progbits
 155              		.align	1
 156              		.global	EXTI9_5_IRQHandler
 157              		.syntax unified
 158              		.thumb
 159              		.thumb_func
 161              	EXTI9_5_IRQHandler:
 162              	.LFB143:
  49:Core/Src/stm32f4xx_it.c **** 
  50:Core/Src/stm32f4xx_it.c **** // void SysTick_Handler(void)
  51:Core/Src/stm32f4xx_it.c **** // {
  52:Core/Src/stm32f4xx_it.c **** 
  53:Core/Src/stm32f4xx_it.c **** //   HAL_IncTick();
  54:Core/Src/stm32f4xx_it.c **** // }
  55:Core/Src/stm32f4xx_it.c **** 
  56:Core/Src/stm32f4xx_it.c **** 
  57:Core/Src/stm32f4xx_it.c **** void EXTI9_5_IRQHandler(void)
  58:Core/Src/stm32f4xx_it.c **** {
 163              		.loc 1 58 1 view -0
 164              		.cfi_startproc
 165              		@ args = 0, pretend = 0, frame = 0
 166              		@ frame_needed = 0, uses_anonymous_args = 0
 167 0000 08B5     		push	{r3, lr}
 168              	.LCFI0:
 169              		.cfi_def_cfa_offset 8
 170              		.cfi_offset 3, -8
 171              		.cfi_offset 14, -4
  59:Core/Src/stm32f4xx_it.c ****     HAL_GPIO_EXTI_IRQHandler(GPIO_PIN_6);
 172              		.loc 1 59 5 view .LVU23
 173 0002 4020     		movs	r0, #64
 174 0004 FFF7FEFF 		bl	HAL_GPIO_EXTI_IRQHandler
 175              	.LVL0:
  60:Core/Src/stm32f4xx_it.c **** }
 176              		.loc 1 60 1 is_stmt 0 view .LVU24
ARM GAS  C:\Users\86188\AppData\Local\Temp\ccfYzvp0.s 			page 5


 177 0008 08BD     		pop	{r3, pc}
 178              		.cfi_endproc
 179              	.LFE143:
 181              		.section	.text.HAL_GPIO_EXTI_Callback,"ax",%progbits
 182              		.align	1
 183              		.global	HAL_GPIO_EXTI_Callback
 184              		.syntax unified
 185              		.thumb
 186              		.thumb_func
 188              	HAL_GPIO_EXTI_Callback:
 189              	.LVL1:
 190              	.LFB144:
  61:Core/Src/stm32f4xx_it.c **** 
  62:Core/Src/stm32f4xx_it.c **** void HAL_GPIO_EXTI_Callback(uint16_t GPIO_Pin)
  63:Core/Src/stm32f4xx_it.c **** {
 191              		.loc 1 63 1 is_stmt 1 view -0
 192              		.cfi_startproc
 193              		@ args = 0, pretend = 0, frame = 0
 194              		@ frame_needed = 0, uses_anonymous_args = 0
  64:Core/Src/stm32f4xx_it.c ****     if(GPIO_Pin == GPIO_PIN_6)
 195              		.loc 1 64 5 view .LVU26
 196              		.loc 1 64 7 is_stmt 0 view .LVU27
 197 0000 4028     		cmp	r0, #64
 198 0002 00D0     		beq	.L22
 199 0004 7047     		bx	lr
 200              	.L22:
  63:Core/Src/stm32f4xx_it.c ****     if(GPIO_Pin == GPIO_PIN_6)
 201              		.loc 1 63 1 view .LVU28
 202 0006 08B5     		push	{r3, lr}
 203              	.LCFI1:
 204              		.cfi_def_cfa_offset 8
 205              		.cfi_offset 3, -8
 206              		.cfi_offset 14, -4
  65:Core/Src/stm32f4xx_it.c ****     {
  66:Core/Src/stm32f4xx_it.c ****         trig_time = uwTick;
 207              		.loc 1 66 9 is_stmt 1 view .LVU29
 208              		.loc 1 66 19 is_stmt 0 view .LVU30
 209 0008 074B     		ldr	r3, .L23
 210 000a 1A68     		ldr	r2, [r3]
 211 000c 074B     		ldr	r3, .L23+4
 212 000e 1A60     		str	r2, [r3]
  67:Core/Src/stm32f4xx_it.c ****         while(HAL_GPIO_ReadPin(GPIOA,GPIO_PIN_6)== 1)
 213              		.loc 1 67 9 is_stmt 1 view .LVU31
 214              		.loc 1 67 14 is_stmt 0 view .LVU32
 215 0010 03E0     		b	.L16
 216              	.LVL2:
 217              	.L17:
  68:Core/Src/stm32f4xx_it.c ****         {
  69:Core/Src/stm32f4xx_it.c ****             echo_time = uwTick;
 218              		.loc 1 69 13 is_stmt 1 view .LVU33
 219              		.loc 1 69 23 is_stmt 0 view .LVU34
 220 0012 054B     		ldr	r3, .L23
 221 0014 1A68     		ldr	r2, [r3]
 222 0016 064B     		ldr	r3, .L23+8
 223 0018 1A60     		str	r2, [r3]
 224              	.L16:
  67:Core/Src/stm32f4xx_it.c ****         while(HAL_GPIO_ReadPin(GPIOA,GPIO_PIN_6)== 1)
ARM GAS  C:\Users\86188\AppData\Local\Temp\ccfYzvp0.s 			page 6


 225              		.loc 1 67 14 is_stmt 1 view .LVU35
  67:Core/Src/stm32f4xx_it.c ****         while(HAL_GPIO_ReadPin(GPIOA,GPIO_PIN_6)== 1)
 226              		.loc 1 67 15 is_stmt 0 view .LVU36
 227 001a 4021     		movs	r1, #64
 228 001c 0548     		ldr	r0, .L23+12
 229 001e FFF7FEFF 		bl	HAL_GPIO_ReadPin
 230              	.LVL3:
  67:Core/Src/stm32f4xx_it.c ****         while(HAL_GPIO_ReadPin(GPIOA,GPIO_PIN_6)== 1)
 231              		.loc 1 67 14 view .LVU37
 232 0022 0128     		cmp	r0, #1
 233 0024 F5D0     		beq	.L17
  70:Core/Src/stm32f4xx_it.c ****         }  
  71:Core/Src/stm32f4xx_it.c ****     }
  72:Core/Src/stm32f4xx_it.c ****     
  73:Core/Src/stm32f4xx_it.c **** }
 234              		.loc 1 73 1 view .LVU38
 235 0026 08BD     		pop	{r3, pc}
 236              	.L24:
 237              		.align	2
 238              	.L23:
 239 0028 00000000 		.word	uwTick
 240 002c 00000000 		.word	trig_time
 241 0030 00000000 		.word	echo_time
 242 0034 00000240 		.word	1073872896
 243              		.cfi_endproc
 244              	.LFE144:
 246              		.section	.text.CAN1_RX0_IRQHandler,"ax",%progbits
 247              		.align	1
 248              		.global	CAN1_RX0_IRQHandler
 249              		.syntax unified
 250              		.thumb
 251              		.thumb_func
 253              	CAN1_RX0_IRQHandler:
 254              	.LFB145:
  74:Core/Src/stm32f4xx_it.c **** 
  75:Core/Src/stm32f4xx_it.c **** 
  76:Core/Src/stm32f4xx_it.c **** 
  77:Core/Src/stm32f4xx_it.c **** void CAN1_RX0_IRQHandler(void)
  78:Core/Src/stm32f4xx_it.c **** {
 255              		.loc 1 78 1 is_stmt 1 view -0
 256              		.cfi_startproc
 257              		@ args = 0, pretend = 0, frame = 0
 258              		@ frame_needed = 0, uses_anonymous_args = 0
 259 0000 08B5     		push	{r3, lr}
 260              	.LCFI2:
 261              		.cfi_def_cfa_offset 8
 262              		.cfi_offset 3, -8
 263              		.cfi_offset 14, -4
  79:Core/Src/stm32f4xx_it.c ****     HAL_CAN_IRQHandler(&hcan1);
 264              		.loc 1 79 5 view .LVU40
 265 0002 0248     		ldr	r0, .L27
 266 0004 FFF7FEFF 		bl	HAL_CAN_IRQHandler
 267              	.LVL4:
  80:Core/Src/stm32f4xx_it.c **** }
 268              		.loc 1 80 1 is_stmt 0 view .LVU41
 269 0008 08BD     		pop	{r3, pc}
 270              	.L28:
ARM GAS  C:\Users\86188\AppData\Local\Temp\ccfYzvp0.s 			page 7


 271 000a 00BF     		.align	2
 272              	.L27:
 273 000c 00000000 		.word	hcan1
 274              		.cfi_endproc
 275              	.LFE145:
 277              		.section	.text.USART1_IRQHandler,"ax",%progbits
 278              		.align	1
 279              		.global	USART1_IRQHandler
 280              		.syntax unified
 281              		.thumb
 282              		.thumb_func
 284              	USART1_IRQHandler:
 285              	.LFB146:
  81:Core/Src/stm32f4xx_it.c **** 
  82:Core/Src/stm32f4xx_it.c **** void USART1_IRQHandler(void)
  83:Core/Src/stm32f4xx_it.c **** {
 286              		.loc 1 83 1 is_stmt 1 view -0
 287              		.cfi_startproc
 288              		@ args = 0, pretend = 0, frame = 0
 289              		@ frame_needed = 0, uses_anonymous_args = 0
 290 0000 08B5     		push	{r3, lr}
 291              	.LCFI3:
 292              		.cfi_def_cfa_offset 8
 293              		.cfi_offset 3, -8
 294              		.cfi_offset 14, -4
  84:Core/Src/stm32f4xx_it.c ****     HAL_UART_IRQHandler(&huart1);
 295              		.loc 1 84 5 view .LVU43
 296 0002 0248     		ldr	r0, .L31
 297 0004 FFF7FEFF 		bl	HAL_UART_IRQHandler
 298              	.LVL5:
  85:Core/Src/stm32f4xx_it.c **** }
 299              		.loc 1 85 1 is_stmt 0 view .LVU44
 300 0008 08BD     		pop	{r3, pc}
 301              	.L32:
 302 000a 00BF     		.align	2
 303              	.L31:
 304 000c 00000000 		.word	huart1
 305              		.cfi_endproc
 306              	.LFE146:
 308              		.section	.text.USART3_IRQHandler,"ax",%progbits
 309              		.align	1
 310              		.global	USART3_IRQHandler
 311              		.syntax unified
 312              		.thumb
 313              		.thumb_func
 315              	USART3_IRQHandler:
 316              	.LFB147:
  86:Core/Src/stm32f4xx_it.c **** void USART3_IRQHandler(void)
  87:Core/Src/stm32f4xx_it.c **** {
 317              		.loc 1 87 1 is_stmt 1 view -0
 318              		.cfi_startproc
 319              		@ args = 0, pretend = 0, frame = 0
 320              		@ frame_needed = 0, uses_anonymous_args = 0
 321 0000 08B5     		push	{r3, lr}
 322              	.LCFI4:
 323              		.cfi_def_cfa_offset 8
 324              		.cfi_offset 3, -8
ARM GAS  C:\Users\86188\AppData\Local\Temp\ccfYzvp0.s 			page 8


 325              		.cfi_offset 14, -4
  88:Core/Src/stm32f4xx_it.c ****     HAL_UART_IRQHandler(&huart3);
 326              		.loc 1 88 5 view .LVU46
 327 0002 0248     		ldr	r0, .L35
 328 0004 FFF7FEFF 		bl	HAL_UART_IRQHandler
 329              	.LVL6:
  89:Core/Src/stm32f4xx_it.c **** }
 330              		.loc 1 89 1 is_stmt 0 view .LVU47
 331 0008 08BD     		pop	{r3, pc}
 332              	.L36:
 333 000a 00BF     		.align	2
 334              	.L35:
 335 000c 00000000 		.word	huart3
 336              		.cfi_endproc
 337              	.LFE147:
 339              		.text
 340              	.Letext0:
 341              		.file 2 "k:\\program files (x86)\\gnu arm embedded toolchain\\10 2021.10\\arm-none-eabi\\include\\
 342              		.file 3 "k:\\program files (x86)\\gnu arm embedded toolchain\\10 2021.10\\arm-none-eabi\\include\\
 343              		.file 4 "Drivers/CMSIS/Device/ST/STM32F4xx/Include/stm32f407xx.h"
 344              		.file 5 "Drivers/CMSIS/Device/ST/STM32F4xx/Include/stm32f4xx.h"
 345              		.file 6 "Drivers/STM32F4xx_HAL_Driver/Inc/stm32f4xx_hal_def.h"
 346              		.file 7 "Drivers/STM32F4xx_HAL_Driver/Inc/stm32f4xx_hal_dma.h"
 347              		.file 8 "Drivers/STM32F4xx_HAL_Driver/Inc/stm32f4xx_hal_can.h"
 348              		.file 9 "Drivers/STM32F4xx_HAL_Driver/Inc/stm32f4xx_hal_uart.h"
 349              		.file 10 "Drivers/STM32F4xx_HAL_Driver/Inc/stm32f4xx_hal.h"
 350              		.file 11 "Core/Inc/main.h"
 351              		.file 12 "Drivers/STM32F4xx_HAL_Driver/Inc/stm32f4xx_hal_gpio.h"
ARM GAS  C:\Users\86188\AppData\Local\Temp\ccfYzvp0.s 			page 9

