ARM GAS  C:\Users\86188\AppData\Local\Temp\ccscIxHT.s 			page 1


   1              		.cpu cortex-m4
   2              		.arch armv7e-m
   3              		.fpu fpv4-sp-d16
   4              		.eabi_attribute 27, 1
   5              		.eabi_attribute 28, 1
   6              		.eabi_attribute 20, 1
   7              		.eabi_attribute 21, 1
   8              		.eabi_attribute 23, 3
   9              		.eabi_attribute 24, 1
  10              		.eabi_attribute 25, 1
  11              		.eabi_attribute 26, 1
  12              		.eabi_attribute 30, 1
  13              		.eabi_attribute 34, 1
  14              		.eabi_attribute 18, 4
  15              		.file	"tcpip.c"
  16              		.text
  17              	.Ltext0:
  18              		.cfi_sections	.debug_frame
  19              		.section	.text.tcpip_timeouts_mbox_fetch,"ax",%progbits
  20              		.align	1
  21              		.syntax unified
  22              		.thumb
  23              		.thumb_func
  25              	tcpip_timeouts_mbox_fetch:
  26              	.LVL0:
  27              	.LFB160:
  28              		.file 1 "ThirdPackage/lwip220/api/tcpip.c"
   1:ThirdPackage/lwip220/api/tcpip.c **** /**
   2:ThirdPackage/lwip220/api/tcpip.c ****  * @file
   3:ThirdPackage/lwip220/api/tcpip.c ****  * Sequential API Main thread module
   4:ThirdPackage/lwip220/api/tcpip.c ****  *
   5:ThirdPackage/lwip220/api/tcpip.c ****  */
   6:ThirdPackage/lwip220/api/tcpip.c **** 
   7:ThirdPackage/lwip220/api/tcpip.c **** /*
   8:ThirdPackage/lwip220/api/tcpip.c ****  * Copyright (c) 2001-2004 Swedish Institute of Computer Science.
   9:ThirdPackage/lwip220/api/tcpip.c ****  * All rights reserved.
  10:ThirdPackage/lwip220/api/tcpip.c ****  *
  11:ThirdPackage/lwip220/api/tcpip.c ****  * Redistribution and use in source and binary forms, with or without modification,
  12:ThirdPackage/lwip220/api/tcpip.c ****  * are permitted provided that the following conditions are met:
  13:ThirdPackage/lwip220/api/tcpip.c ****  *
  14:ThirdPackage/lwip220/api/tcpip.c ****  * 1. Redistributions of source code must retain the above copyright notice,
  15:ThirdPackage/lwip220/api/tcpip.c ****  *    this list of conditions and the following disclaimer.
  16:ThirdPackage/lwip220/api/tcpip.c ****  * 2. Redistributions in binary form must reproduce the above copyright notice,
  17:ThirdPackage/lwip220/api/tcpip.c ****  *    this list of conditions and the following disclaimer in the documentation
  18:ThirdPackage/lwip220/api/tcpip.c ****  *    and/or other materials provided with the distribution.
  19:ThirdPackage/lwip220/api/tcpip.c ****  * 3. The name of the author may not be used to endorse or promote products
  20:ThirdPackage/lwip220/api/tcpip.c ****  *    derived from this software without specific prior written permission.
  21:ThirdPackage/lwip220/api/tcpip.c ****  *
  22:ThirdPackage/lwip220/api/tcpip.c ****  * THIS SOFTWARE IS PROVIDED BY THE AUTHOR ``AS IS'' AND ANY EXPRESS OR IMPLIED
  23:ThirdPackage/lwip220/api/tcpip.c ****  * WARRANTIES, INCLUDING, BUT NOT LIMITED TO, THE IMPLIED WARRANTIES OF
  24:ThirdPackage/lwip220/api/tcpip.c ****  * MERCHANTABILITY AND FITNESS FOR A PARTICULAR PURPOSE ARE DISCLAIMED. IN NO EVENT
  25:ThirdPackage/lwip220/api/tcpip.c ****  * SHALL THE AUTHOR BE LIABLE FOR ANY DIRECT, INDIRECT, INCIDENTAL, SPECIAL,
  26:ThirdPackage/lwip220/api/tcpip.c ****  * EXEMPLARY, OR CONSEQUENTIAL DAMAGES (INCLUDING, BUT NOT LIMITED TO, PROCUREMENT
  27:ThirdPackage/lwip220/api/tcpip.c ****  * OF SUBSTITUTE GOODS OR SERVICES; LOSS OF USE, DATA, OR PROFITS; OR BUSINESS
  28:ThirdPackage/lwip220/api/tcpip.c ****  * INTERRUPTION) HOWEVER CAUSED AND ON ANY THEORY OF LIABILITY, WHETHER IN
  29:ThirdPackage/lwip220/api/tcpip.c ****  * CONTRACT, STRICT LIABILITY, OR TORT (INCLUDING NEGLIGENCE OR OTHERWISE) ARISING
  30:ThirdPackage/lwip220/api/tcpip.c ****  * IN ANY WAY OUT OF THE USE OF THIS SOFTWARE, EVEN IF ADVISED OF THE POSSIBILITY
ARM GAS  C:\Users\86188\AppData\Local\Temp\ccscIxHT.s 			page 2


  31:ThirdPackage/lwip220/api/tcpip.c ****  * OF SUCH DAMAGE.
  32:ThirdPackage/lwip220/api/tcpip.c ****  *
  33:ThirdPackage/lwip220/api/tcpip.c ****  * This file is part of the lwIP TCP/IP stack.
  34:ThirdPackage/lwip220/api/tcpip.c ****  *
  35:ThirdPackage/lwip220/api/tcpip.c ****  * Author: Adam Dunkels <adam@sics.se>
  36:ThirdPackage/lwip220/api/tcpip.c ****  *
  37:ThirdPackage/lwip220/api/tcpip.c ****  */
  38:ThirdPackage/lwip220/api/tcpip.c **** 
  39:ThirdPackage/lwip220/api/tcpip.c **** #include "lwip/opt.h"
  40:ThirdPackage/lwip220/api/tcpip.c **** 
  41:ThirdPackage/lwip220/api/tcpip.c **** #if !NO_SYS /* don't build if not configured for use in lwipopts.h */
  42:ThirdPackage/lwip220/api/tcpip.c **** 
  43:ThirdPackage/lwip220/api/tcpip.c **** #include "lwip/priv/tcpip_priv.h"
  44:ThirdPackage/lwip220/api/tcpip.c **** #include "lwip/sys.h"
  45:ThirdPackage/lwip220/api/tcpip.c **** #include "lwip/memp.h"
  46:ThirdPackage/lwip220/api/tcpip.c **** #include "lwip/mem.h"
  47:ThirdPackage/lwip220/api/tcpip.c **** #include "lwip/init.h"
  48:ThirdPackage/lwip220/api/tcpip.c **** #include "lwip/ip.h"
  49:ThirdPackage/lwip220/api/tcpip.c **** #include "lwip/pbuf.h"
  50:ThirdPackage/lwip220/api/tcpip.c **** #include "lwip/etharp.h"
  51:ThirdPackage/lwip220/api/tcpip.c **** #include "netif/ethernet.h"
  52:ThirdPackage/lwip220/api/tcpip.c **** 
  53:ThirdPackage/lwip220/api/tcpip.c **** #define TCPIP_MSG_VAR_REF(name)     API_VAR_REF(name)
  54:ThirdPackage/lwip220/api/tcpip.c **** #define TCPIP_MSG_VAR_DECLARE(name) API_VAR_DECLARE(struct tcpip_msg, name)
  55:ThirdPackage/lwip220/api/tcpip.c **** #define TCPIP_MSG_VAR_ALLOC(name)   API_VAR_ALLOC(struct tcpip_msg, MEMP_TCPIP_MSG_API, name, ERR_M
  56:ThirdPackage/lwip220/api/tcpip.c **** #define TCPIP_MSG_VAR_FREE(name)    API_VAR_FREE(MEMP_TCPIP_MSG_API, name)
  57:ThirdPackage/lwip220/api/tcpip.c **** 
  58:ThirdPackage/lwip220/api/tcpip.c **** /* global variables */
  59:ThirdPackage/lwip220/api/tcpip.c **** static tcpip_init_done_fn tcpip_init_done;
  60:ThirdPackage/lwip220/api/tcpip.c **** static void *tcpip_init_done_arg;
  61:ThirdPackage/lwip220/api/tcpip.c **** static sys_mbox_t tcpip_mbox;
  62:ThirdPackage/lwip220/api/tcpip.c **** 
  63:ThirdPackage/lwip220/api/tcpip.c **** #if LWIP_TCPIP_CORE_LOCKING
  64:ThirdPackage/lwip220/api/tcpip.c **** /** The global semaphore to lock the stack. */
  65:ThirdPackage/lwip220/api/tcpip.c **** sys_mutex_t lock_tcpip_core;
  66:ThirdPackage/lwip220/api/tcpip.c **** #endif /* LWIP_TCPIP_CORE_LOCKING */
  67:ThirdPackage/lwip220/api/tcpip.c **** 
  68:ThirdPackage/lwip220/api/tcpip.c **** static void tcpip_thread_handle_msg(struct tcpip_msg *msg);
  69:ThirdPackage/lwip220/api/tcpip.c **** 
  70:ThirdPackage/lwip220/api/tcpip.c **** #if !LWIP_TIMERS
  71:ThirdPackage/lwip220/api/tcpip.c **** /* wait for a message with timers disabled (e.g. pass a timer-check trigger into tcpip_thread) */
  72:ThirdPackage/lwip220/api/tcpip.c **** #define TCPIP_MBOX_FETCH(mbox, msg) sys_mbox_fetch(mbox, msg)
  73:ThirdPackage/lwip220/api/tcpip.c **** #else /* !LWIP_TIMERS */
  74:ThirdPackage/lwip220/api/tcpip.c **** /* wait for a message, timeouts are processed while waiting */
  75:ThirdPackage/lwip220/api/tcpip.c **** #define TCPIP_MBOX_FETCH(mbox, msg) tcpip_timeouts_mbox_fetch(mbox, msg)
  76:ThirdPackage/lwip220/api/tcpip.c **** /**
  77:ThirdPackage/lwip220/api/tcpip.c ****  * Wait (forever) for a message to arrive in an mbox.
  78:ThirdPackage/lwip220/api/tcpip.c ****  * While waiting, timeouts are processed.
  79:ThirdPackage/lwip220/api/tcpip.c ****  *
  80:ThirdPackage/lwip220/api/tcpip.c ****  * @param mbox the mbox to fetch the message from
  81:ThirdPackage/lwip220/api/tcpip.c ****  * @param msg the place to store the message
  82:ThirdPackage/lwip220/api/tcpip.c ****  */
  83:ThirdPackage/lwip220/api/tcpip.c **** static void
  84:ThirdPackage/lwip220/api/tcpip.c **** tcpip_timeouts_mbox_fetch(sys_mbox_t *mbox, void **msg)
  85:ThirdPackage/lwip220/api/tcpip.c **** {
  29              		.loc 1 85 1 view -0
  30              		.cfi_startproc
ARM GAS  C:\Users\86188\AppData\Local\Temp\ccscIxHT.s 			page 3


  31              		@ args = 0, pretend = 0, frame = 0
  32              		@ frame_needed = 0, uses_anonymous_args = 0
  33              		.loc 1 85 1 is_stmt 0 view .LVU1
  34 0000 F8B5     		push	{r3, r4, r5, r6, r7, lr}
  35              	.LCFI0:
  36              		.cfi_def_cfa_offset 24
  37              		.cfi_offset 3, -24
  38              		.cfi_offset 4, -20
  39              		.cfi_offset 5, -16
  40              		.cfi_offset 6, -12
  41              		.cfi_offset 7, -8
  42              		.cfi_offset 14, -4
  43 0002 0646     		mov	r6, r0
  44 0004 0F46     		mov	r7, r1
  45 0006 0EE0     		b	.L2
  46              	.LVL1:
  47              	.L8:
  86:ThirdPackage/lwip220/api/tcpip.c ****   u32_t sleeptime, res;
  87:ThirdPackage/lwip220/api/tcpip.c **** 
  88:ThirdPackage/lwip220/api/tcpip.c **** again:
  89:ThirdPackage/lwip220/api/tcpip.c ****   LWIP_ASSERT_CORE_LOCKED();
  90:ThirdPackage/lwip220/api/tcpip.c **** 
  91:ThirdPackage/lwip220/api/tcpip.c ****   sleeptime = sys_timeouts_sleeptime();
  92:ThirdPackage/lwip220/api/tcpip.c ****   if (sleeptime == SYS_TIMEOUTS_SLEEPTIME_INFINITE) {
  93:ThirdPackage/lwip220/api/tcpip.c ****     UNLOCK_TCPIP_CORE();
  48              		.loc 1 93 5 is_stmt 1 view .LVU2
  49 0008 144C     		ldr	r4, .L10
  50 000a 2046     		mov	r0, r4
  51              	.LVL2:
  52              		.loc 1 93 5 is_stmt 0 view .LVU3
  53 000c FFF7FEFF 		bl	sys_mutex_unlock
  54              	.LVL3:
  94:ThirdPackage/lwip220/api/tcpip.c ****     sys_arch_mbox_fetch(mbox, msg, 0);
  55              		.loc 1 94 5 is_stmt 1 view .LVU4
  56 0010 0022     		movs	r2, #0
  57 0012 3946     		mov	r1, r7
  58 0014 3046     		mov	r0, r6
  59 0016 FFF7FEFF 		bl	sys_arch_mbox_fetch
  60              	.LVL4:
  95:ThirdPackage/lwip220/api/tcpip.c ****     LOCK_TCPIP_CORE();
  61              		.loc 1 95 5 view .LVU5
  62 001a 2046     		mov	r0, r4
  63 001c FFF7FEFF 		bl	sys_mutex_lock
  64              	.LVL5:
  96:ThirdPackage/lwip220/api/tcpip.c ****     return;
  65              		.loc 1 96 5 view .LVU6
  66              	.L1:
  97:ThirdPackage/lwip220/api/tcpip.c ****   } else if (sleeptime == 0) {
  98:ThirdPackage/lwip220/api/tcpip.c ****     sys_check_timeouts();
  99:ThirdPackage/lwip220/api/tcpip.c ****     /* We try again to fetch a message from the mbox. */
 100:ThirdPackage/lwip220/api/tcpip.c ****     goto again;
 101:ThirdPackage/lwip220/api/tcpip.c ****   }
 102:ThirdPackage/lwip220/api/tcpip.c **** 
 103:ThirdPackage/lwip220/api/tcpip.c ****   UNLOCK_TCPIP_CORE();
 104:ThirdPackage/lwip220/api/tcpip.c ****   res = sys_arch_mbox_fetch(mbox, msg, sleeptime);
 105:ThirdPackage/lwip220/api/tcpip.c ****   LOCK_TCPIP_CORE();
 106:ThirdPackage/lwip220/api/tcpip.c ****   if (res == SYS_ARCH_TIMEOUT) {
ARM GAS  C:\Users\86188\AppData\Local\Temp\ccscIxHT.s 			page 4


 107:ThirdPackage/lwip220/api/tcpip.c ****     /* If a SYS_ARCH_TIMEOUT value is returned, a timeout occurred
 108:ThirdPackage/lwip220/api/tcpip.c ****        before a message could be fetched. */
 109:ThirdPackage/lwip220/api/tcpip.c ****     sys_check_timeouts();
 110:ThirdPackage/lwip220/api/tcpip.c ****     /* We try again to fetch a message from the mbox. */
 111:ThirdPackage/lwip220/api/tcpip.c ****     goto again;
 112:ThirdPackage/lwip220/api/tcpip.c ****   }
 113:ThirdPackage/lwip220/api/tcpip.c **** }
  67              		.loc 1 113 1 is_stmt 0 view .LVU7
  68 0020 F8BD     		pop	{r3, r4, r5, r6, r7, pc}
  69              	.LVL6:
  70              	.L9:
  98:ThirdPackage/lwip220/api/tcpip.c ****     /* We try again to fetch a message from the mbox. */
  71              		.loc 1 98 5 is_stmt 1 view .LVU8
  72 0022 FFF7FEFF 		bl	sys_check_timeouts
  73              	.LVL7:
 100:ThirdPackage/lwip220/api/tcpip.c ****   }
  74              		.loc 1 100 5 view .LVU9
  75              	.L2:
  86:ThirdPackage/lwip220/api/tcpip.c **** 
  76              		.loc 1 86 3 view .LVU10
  89:ThirdPackage/lwip220/api/tcpip.c **** 
  77              		.loc 1 89 28 view .LVU11
  91:ThirdPackage/lwip220/api/tcpip.c ****   if (sleeptime == SYS_TIMEOUTS_SLEEPTIME_INFINITE) {
  78              		.loc 1 91 3 view .LVU12
  91:ThirdPackage/lwip220/api/tcpip.c ****   if (sleeptime == SYS_TIMEOUTS_SLEEPTIME_INFINITE) {
  79              		.loc 1 91 15 is_stmt 0 view .LVU13
  80 0026 FFF7FEFF 		bl	sys_timeouts_sleeptime
  81              	.LVL8:
  82 002a 0446     		mov	r4, r0
  83              	.LVL9:
  92:ThirdPackage/lwip220/api/tcpip.c ****     UNLOCK_TCPIP_CORE();
  84              		.loc 1 92 3 is_stmt 1 view .LVU14
  92:ThirdPackage/lwip220/api/tcpip.c ****     UNLOCK_TCPIP_CORE();
  85              		.loc 1 92 6 is_stmt 0 view .LVU15
  86 002c B0F1FF3F 		cmp	r0, #-1
  87 0030 EAD0     		beq	.L8
  97:ThirdPackage/lwip220/api/tcpip.c ****     sys_check_timeouts();
  88              		.loc 1 97 10 is_stmt 1 view .LVU16
  97:ThirdPackage/lwip220/api/tcpip.c ****     sys_check_timeouts();
  89              		.loc 1 97 13 is_stmt 0 view .LVU17
  90 0032 0028     		cmp	r0, #0
  91 0034 F5D0     		beq	.L9
 103:ThirdPackage/lwip220/api/tcpip.c ****   res = sys_arch_mbox_fetch(mbox, msg, sleeptime);
  92              		.loc 1 103 3 is_stmt 1 view .LVU18
  93 0036 094D     		ldr	r5, .L10
  94 0038 2846     		mov	r0, r5
  95              	.LVL10:
 103:ThirdPackage/lwip220/api/tcpip.c ****   res = sys_arch_mbox_fetch(mbox, msg, sleeptime);
  96              		.loc 1 103 3 is_stmt 0 view .LVU19
  97 003a FFF7FEFF 		bl	sys_mutex_unlock
  98              	.LVL11:
 104:ThirdPackage/lwip220/api/tcpip.c ****   LOCK_TCPIP_CORE();
  99              		.loc 1 104 3 is_stmt 1 view .LVU20
 104:ThirdPackage/lwip220/api/tcpip.c ****   LOCK_TCPIP_CORE();
 100              		.loc 1 104 9 is_stmt 0 view .LVU21
 101 003e 2246     		mov	r2, r4
 102 0040 3946     		mov	r1, r7
ARM GAS  C:\Users\86188\AppData\Local\Temp\ccscIxHT.s 			page 5


 103 0042 3046     		mov	r0, r6
 104 0044 FFF7FEFF 		bl	sys_arch_mbox_fetch
 105              	.LVL12:
 106 0048 0446     		mov	r4, r0
 107              	.LVL13:
 105:ThirdPackage/lwip220/api/tcpip.c ****   if (res == SYS_ARCH_TIMEOUT) {
 108              		.loc 1 105 3 is_stmt 1 view .LVU22
 109 004a 2846     		mov	r0, r5
 110              	.LVL14:
 105:ThirdPackage/lwip220/api/tcpip.c ****   if (res == SYS_ARCH_TIMEOUT) {
 111              		.loc 1 105 3 is_stmt 0 view .LVU23
 112 004c FFF7FEFF 		bl	sys_mutex_lock
 113              	.LVL15:
 106:ThirdPackage/lwip220/api/tcpip.c ****     /* If a SYS_ARCH_TIMEOUT value is returned, a timeout occurred
 114              		.loc 1 106 3 is_stmt 1 view .LVU24
 106:ThirdPackage/lwip220/api/tcpip.c ****     /* If a SYS_ARCH_TIMEOUT value is returned, a timeout occurred
 115              		.loc 1 106 6 is_stmt 0 view .LVU25
 116 0050 B4F1FF3F 		cmp	r4, #-1
 117 0054 E4D1     		bne	.L1
 109:ThirdPackage/lwip220/api/tcpip.c ****     /* We try again to fetch a message from the mbox. */
 118              		.loc 1 109 5 is_stmt 1 view .LVU26
 119 0056 FFF7FEFF 		bl	sys_check_timeouts
 120              	.LVL16:
 111:ThirdPackage/lwip220/api/tcpip.c ****   }
 121              		.loc 1 111 5 view .LVU27
 122              	.L3:
 123 005a E4E7     		b	.L2
 124              	.L11:
 125              		.align	2
 126              	.L10:
 127 005c 00000000 		.word	.LANCHOR0
 128              		.cfi_endproc
 129              	.LFE160:
 131              		.section	.rodata.tcpip_thread_handle_msg.str1.4,"aMS",%progbits,1
 132              		.align	2
 133              	.LC0:
 134 0000 54686972 		.ascii	"ThirdPackage/lwip220/api/tcpip.c\000"
 134      64506163 
 134      6B616765 
 134      2F6C7769 
 134      70323230 
 135 0021 000000   		.align	2
 136              	.LC1:
 137 0024 74637069 		.ascii	"tcpip_thread: invalid message\000"
 137      705F7468 
 137      72656164 
 137      3A20696E 
 137      76616C69 
 138 0042 0000     		.align	2
 139              	.LC2:
 140 0044 41737365 		.ascii	"Assertion \"%s\" failed at line %d in %s\012\000"
 140      7274696F 
 140      6E202225 
 140      73222066 
 140      61696C65 
 141              		.section	.text.tcpip_thread_handle_msg,"ax",%progbits
 142              		.align	1
ARM GAS  C:\Users\86188\AppData\Local\Temp\ccscIxHT.s 			page 6


 143              		.syntax unified
 144              		.thumb
 145              		.thumb_func
 147              	tcpip_thread_handle_msg:
 148              	.LVL17:
 149              	.LFB162:
 114:ThirdPackage/lwip220/api/tcpip.c **** #endif /* !LWIP_TIMERS */
 115:ThirdPackage/lwip220/api/tcpip.c **** 
 116:ThirdPackage/lwip220/api/tcpip.c **** /**
 117:ThirdPackage/lwip220/api/tcpip.c ****  * The main lwIP thread. This thread has exclusive access to lwIP core functions
 118:ThirdPackage/lwip220/api/tcpip.c ****  * (unless access to them is not locked). Other threads communicate with this
 119:ThirdPackage/lwip220/api/tcpip.c ****  * thread using message boxes.
 120:ThirdPackage/lwip220/api/tcpip.c ****  *
 121:ThirdPackage/lwip220/api/tcpip.c ****  * It also starts all the timers to make sure they are running in the right
 122:ThirdPackage/lwip220/api/tcpip.c ****  * thread context.
 123:ThirdPackage/lwip220/api/tcpip.c ****  *
 124:ThirdPackage/lwip220/api/tcpip.c ****  * @param arg unused argument
 125:ThirdPackage/lwip220/api/tcpip.c ****  */
 126:ThirdPackage/lwip220/api/tcpip.c **** static void
 127:ThirdPackage/lwip220/api/tcpip.c **** tcpip_thread(void *arg)
 128:ThirdPackage/lwip220/api/tcpip.c **** {
 129:ThirdPackage/lwip220/api/tcpip.c ****   struct tcpip_msg *msg;
 130:ThirdPackage/lwip220/api/tcpip.c ****   LWIP_UNUSED_ARG(arg);
 131:ThirdPackage/lwip220/api/tcpip.c **** 
 132:ThirdPackage/lwip220/api/tcpip.c ****   LWIP_MARK_TCPIP_THREAD();
 133:ThirdPackage/lwip220/api/tcpip.c **** 
 134:ThirdPackage/lwip220/api/tcpip.c ****   LOCK_TCPIP_CORE();
 135:ThirdPackage/lwip220/api/tcpip.c ****   if (tcpip_init_done != NULL) {
 136:ThirdPackage/lwip220/api/tcpip.c ****     tcpip_init_done(tcpip_init_done_arg);
 137:ThirdPackage/lwip220/api/tcpip.c ****   }
 138:ThirdPackage/lwip220/api/tcpip.c **** 
 139:ThirdPackage/lwip220/api/tcpip.c ****   while (1) {                          /* MAIN Loop */
 140:ThirdPackage/lwip220/api/tcpip.c ****     LWIP_TCPIP_THREAD_ALIVE();
 141:ThirdPackage/lwip220/api/tcpip.c ****     /* wait for a message, timeouts are processed while waiting */
 142:ThirdPackage/lwip220/api/tcpip.c ****     TCPIP_MBOX_FETCH(&tcpip_mbox, (void **)&msg);
 143:ThirdPackage/lwip220/api/tcpip.c ****     if (msg == NULL) {
 144:ThirdPackage/lwip220/api/tcpip.c ****       LWIP_DEBUGF(TCPIP_DEBUG, ("tcpip_thread: invalid message: NULL\n"));
 145:ThirdPackage/lwip220/api/tcpip.c ****       LWIP_ASSERT("tcpip_thread: invalid message", 0);
 146:ThirdPackage/lwip220/api/tcpip.c ****       continue;
 147:ThirdPackage/lwip220/api/tcpip.c ****     }
 148:ThirdPackage/lwip220/api/tcpip.c ****     tcpip_thread_handle_msg(msg);
 149:ThirdPackage/lwip220/api/tcpip.c ****   }
 150:ThirdPackage/lwip220/api/tcpip.c **** }
 151:ThirdPackage/lwip220/api/tcpip.c **** 
 152:ThirdPackage/lwip220/api/tcpip.c **** /* Handle a single tcpip_msg
 153:ThirdPackage/lwip220/api/tcpip.c ****  * This is in its own function for access by tests only.
 154:ThirdPackage/lwip220/api/tcpip.c ****  */
 155:ThirdPackage/lwip220/api/tcpip.c **** static void
 156:ThirdPackage/lwip220/api/tcpip.c **** tcpip_thread_handle_msg(struct tcpip_msg *msg)
 157:ThirdPackage/lwip220/api/tcpip.c **** {
 150              		.loc 1 157 1 view -0
 151              		.cfi_startproc
 152              		@ args = 0, pretend = 0, frame = 0
 153              		@ frame_needed = 0, uses_anonymous_args = 0
 154              		.loc 1 157 1 is_stmt 0 view .LVU29
 155 0000 10B5     		push	{r4, lr}
 156              	.LCFI1:
ARM GAS  C:\Users\86188\AppData\Local\Temp\ccscIxHT.s 			page 7


 157              		.cfi_def_cfa_offset 8
 158              		.cfi_offset 4, -8
 159              		.cfi_offset 14, -4
 160 0002 0446     		mov	r4, r0
 158:ThirdPackage/lwip220/api/tcpip.c ****   switch (msg->type) {
 161              		.loc 1 158 3 is_stmt 1 view .LVU30
 162              		.loc 1 158 14 is_stmt 0 view .LVU31
 163 0004 0378     		ldrb	r3, [r0]	@ zero_extendqisi2
 164              		.loc 1 158 3 view .LVU32
 165 0006 012B     		cmp	r3, #1
 166 0008 17D0     		beq	.L13
 167 000a 022B     		cmp	r3, #2
 168 000c 1DD0     		beq	.L14
 169 000e 33B1     		cbz	r3, .L19
 159:ThirdPackage/lwip220/api/tcpip.c **** #if !LWIP_TCPIP_CORE_LOCKING
 160:ThirdPackage/lwip220/api/tcpip.c ****     case TCPIP_MSG_API:
 161:ThirdPackage/lwip220/api/tcpip.c ****       LWIP_DEBUGF(TCPIP_DEBUG, ("tcpip_thread: API message %p\n", (void *)msg));
 162:ThirdPackage/lwip220/api/tcpip.c ****       msg->msg.api_msg.function(msg->msg.api_msg.msg);
 163:ThirdPackage/lwip220/api/tcpip.c ****       break;
 164:ThirdPackage/lwip220/api/tcpip.c ****     case TCPIP_MSG_API_CALL:
 165:ThirdPackage/lwip220/api/tcpip.c ****       LWIP_DEBUGF(TCPIP_DEBUG, ("tcpip_thread: API CALL message %p\n", (void *)msg));
 166:ThirdPackage/lwip220/api/tcpip.c ****       msg->msg.api_call.arg->err = msg->msg.api_call.function(msg->msg.api_call.arg);
 167:ThirdPackage/lwip220/api/tcpip.c ****       sys_sem_signal(msg->msg.api_call.sem);
 168:ThirdPackage/lwip220/api/tcpip.c ****       break;
 169:ThirdPackage/lwip220/api/tcpip.c ****     case TCPIP_MSG_CALLBACK_STATIC_WAIT:
 170:ThirdPackage/lwip220/api/tcpip.c ****       LWIP_DEBUGF(TCPIP_DEBUG, ("tcpip_thread: CALLBACK WAIT message %p\n", (void *)msg));
 171:ThirdPackage/lwip220/api/tcpip.c ****       msg->msg.cb_wait.function(msg->msg.cb_wait.ctx);
 172:ThirdPackage/lwip220/api/tcpip.c ****       sys_sem_signal(msg->msg.cb_wait.sem);
 173:ThirdPackage/lwip220/api/tcpip.c ****       break;
 174:ThirdPackage/lwip220/api/tcpip.c **** #endif /* !LWIP_TCPIP_CORE_LOCKING */
 175:ThirdPackage/lwip220/api/tcpip.c **** 
 176:ThirdPackage/lwip220/api/tcpip.c **** #if !LWIP_TCPIP_CORE_LOCKING_INPUT
 177:ThirdPackage/lwip220/api/tcpip.c ****     case TCPIP_MSG_INPKT:
 178:ThirdPackage/lwip220/api/tcpip.c ****       LWIP_DEBUGF(TCPIP_DEBUG, ("tcpip_thread: PACKET %p\n", (void *)msg));
 179:ThirdPackage/lwip220/api/tcpip.c ****       if (msg->msg.inp.input_fn(msg->msg.inp.p, msg->msg.inp.netif) != ERR_OK) {
 180:ThirdPackage/lwip220/api/tcpip.c ****         pbuf_free(msg->msg.inp.p);
 181:ThirdPackage/lwip220/api/tcpip.c ****       }
 182:ThirdPackage/lwip220/api/tcpip.c ****       memp_free(MEMP_TCPIP_MSG_INPKT, msg);
 183:ThirdPackage/lwip220/api/tcpip.c ****       break;
 184:ThirdPackage/lwip220/api/tcpip.c **** #endif /* !LWIP_TCPIP_CORE_LOCKING_INPUT */
 185:ThirdPackage/lwip220/api/tcpip.c **** 
 186:ThirdPackage/lwip220/api/tcpip.c **** #if LWIP_TCPIP_TIMEOUT && LWIP_TIMERS
 187:ThirdPackage/lwip220/api/tcpip.c ****     case TCPIP_MSG_TIMEOUT:
 188:ThirdPackage/lwip220/api/tcpip.c ****       LWIP_DEBUGF(TCPIP_DEBUG, ("tcpip_thread: TIMEOUT %p\n", (void *)msg));
 189:ThirdPackage/lwip220/api/tcpip.c ****       sys_timeout(msg->msg.tmo.msecs, msg->msg.tmo.h, msg->msg.tmo.arg);
 190:ThirdPackage/lwip220/api/tcpip.c ****       memp_free(MEMP_TCPIP_MSG_API, msg);
 191:ThirdPackage/lwip220/api/tcpip.c ****       break;
 192:ThirdPackage/lwip220/api/tcpip.c ****     case TCPIP_MSG_UNTIMEOUT:
 193:ThirdPackage/lwip220/api/tcpip.c ****       LWIP_DEBUGF(TCPIP_DEBUG, ("tcpip_thread: UNTIMEOUT %p\n", (void *)msg));
 194:ThirdPackage/lwip220/api/tcpip.c ****       sys_untimeout(msg->msg.tmo.h, msg->msg.tmo.arg);
 195:ThirdPackage/lwip220/api/tcpip.c ****       memp_free(MEMP_TCPIP_MSG_API, msg);
 196:ThirdPackage/lwip220/api/tcpip.c ****       break;
 197:ThirdPackage/lwip220/api/tcpip.c **** #endif /* LWIP_TCPIP_TIMEOUT && LWIP_TIMERS */
 198:ThirdPackage/lwip220/api/tcpip.c **** 
 199:ThirdPackage/lwip220/api/tcpip.c ****     case TCPIP_MSG_CALLBACK:
 200:ThirdPackage/lwip220/api/tcpip.c ****       LWIP_DEBUGF(TCPIP_DEBUG, ("tcpip_thread: CALLBACK %p\n", (void *)msg));
 201:ThirdPackage/lwip220/api/tcpip.c ****       msg->msg.cb.function(msg->msg.cb.ctx);
ARM GAS  C:\Users\86188\AppData\Local\Temp\ccscIxHT.s 			page 8


 202:ThirdPackage/lwip220/api/tcpip.c ****       memp_free(MEMP_TCPIP_MSG_API, msg);
 203:ThirdPackage/lwip220/api/tcpip.c ****       break;
 204:ThirdPackage/lwip220/api/tcpip.c **** 
 205:ThirdPackage/lwip220/api/tcpip.c ****     case TCPIP_MSG_CALLBACK_STATIC:
 206:ThirdPackage/lwip220/api/tcpip.c ****       LWIP_DEBUGF(TCPIP_DEBUG, ("tcpip_thread: CALLBACK_STATIC %p\n", (void *)msg));
 207:ThirdPackage/lwip220/api/tcpip.c ****       msg->msg.cb.function(msg->msg.cb.ctx);
 208:ThirdPackage/lwip220/api/tcpip.c ****       break;
 209:ThirdPackage/lwip220/api/tcpip.c **** 
 210:ThirdPackage/lwip220/api/tcpip.c ****     default:
 211:ThirdPackage/lwip220/api/tcpip.c ****       LWIP_DEBUGF(TCPIP_DEBUG, ("tcpip_thread: invalid message: %d\n", msg->type));
 170              		.loc 1 211 83 is_stmt 1 discriminator 1 view .LVU33
 212:ThirdPackage/lwip220/api/tcpip.c ****       LWIP_ASSERT("tcpip_thread: invalid message", 0);
 171              		.loc 1 212 7 discriminator 1 view .LVU34
 172              		.loc 1 212 7 discriminator 1 view .LVU35
 173              		.loc 1 212 7 discriminator 1 view .LVU36
 174              		.loc 1 212 7 discriminator 1 view .LVU37
 175 0010 104B     		ldr	r3, .L21
 176 0012 D422     		movs	r2, #212
 177 0014 1049     		ldr	r1, .L21+4
 178 0016 1148     		ldr	r0, .L21+8
 179              	.LVL18:
 180              		.loc 1 212 7 is_stmt 0 discriminator 1 view .LVU38
 181 0018 FFF7FEFF 		bl	printf
 182              	.LVL19:
 183              		.loc 1 212 7 is_stmt 1 discriminator 1 view .LVU39
 184              		.loc 1 212 7 discriminator 1 view .LVU40
 213:ThirdPackage/lwip220/api/tcpip.c ****       break;
 185              		.loc 1 213 7 discriminator 1 view .LVU41
 214:ThirdPackage/lwip220/api/tcpip.c ****   }
 215:ThirdPackage/lwip220/api/tcpip.c **** }
 186              		.loc 1 215 1 is_stmt 0 discriminator 1 view .LVU42
 187 001c 08E0     		b	.L12
 188              	.LVL20:
 189              	.L19:
 178:ThirdPackage/lwip220/api/tcpip.c ****       if (msg->msg.inp.input_fn(msg->msg.inp.p, msg->msg.inp.netif) != ERR_OK) {
 190              		.loc 1 178 75 is_stmt 1 view .LVU43
 179:ThirdPackage/lwip220/api/tcpip.c ****         pbuf_free(msg->msg.inp.p);
 191              		.loc 1 179 7 view .LVU44
 179:ThirdPackage/lwip220/api/tcpip.c ****         pbuf_free(msg->msg.inp.p);
 192              		.loc 1 179 23 is_stmt 0 view .LVU45
 193 001e C368     		ldr	r3, [r0, #12]
 179:ThirdPackage/lwip220/api/tcpip.c ****         pbuf_free(msg->msg.inp.p);
 194              		.loc 1 179 11 view .LVU46
 195 0020 8168     		ldr	r1, [r0, #8]
 196 0022 4068     		ldr	r0, [r0, #4]
 197              	.LVL21:
 179:ThirdPackage/lwip220/api/tcpip.c ****         pbuf_free(msg->msg.inp.p);
 198              		.loc 1 179 11 view .LVU47
 199 0024 9847     		blx	r3
 200              	.LVL22:
 179:ThirdPackage/lwip220/api/tcpip.c ****         pbuf_free(msg->msg.inp.p);
 201              		.loc 1 179 10 view .LVU48
 202 0026 20B9     		cbnz	r0, .L20
 203              	.L16:
 182:ThirdPackage/lwip220/api/tcpip.c ****       break;
 204              		.loc 1 182 7 is_stmt 1 view .LVU49
 205 0028 2146     		mov	r1, r4
ARM GAS  C:\Users\86188\AppData\Local\Temp\ccscIxHT.s 			page 9


 206 002a 0920     		movs	r0, #9
 207 002c FFF7FEFF 		bl	memp_free
 208              	.LVL23:
 183:ThirdPackage/lwip220/api/tcpip.c **** #endif /* !LWIP_TCPIP_CORE_LOCKING_INPUT */
 209              		.loc 1 183 7 view .LVU50
 210              	.L12:
 211              		.loc 1 215 1 is_stmt 0 view .LVU51
 212 0030 10BD     		pop	{r4, pc}
 213              	.LVL24:
 214              	.L20:
 180:ThirdPackage/lwip220/api/tcpip.c ****       }
 215              		.loc 1 180 9 is_stmt 1 view .LVU52
 216 0032 6068     		ldr	r0, [r4, #4]
 217 0034 FFF7FEFF 		bl	pbuf_free
 218              	.LVL25:
 219 0038 F6E7     		b	.L16
 220              	.LVL26:
 221              	.L13:
 200:ThirdPackage/lwip220/api/tcpip.c ****       msg->msg.cb.function(msg->msg.cb.ctx);
 222              		.loc 1 200 77 view .LVU53
 201:ThirdPackage/lwip220/api/tcpip.c ****       memp_free(MEMP_TCPIP_MSG_API, msg);
 223              		.loc 1 201 7 view .LVU54
 201:ThirdPackage/lwip220/api/tcpip.c ****       memp_free(MEMP_TCPIP_MSG_API, msg);
 224              		.loc 1 201 18 is_stmt 0 view .LVU55
 225 003a 4368     		ldr	r3, [r0, #4]
 201:ThirdPackage/lwip220/api/tcpip.c ****       memp_free(MEMP_TCPIP_MSG_API, msg);
 226              		.loc 1 201 7 view .LVU56
 227 003c 8068     		ldr	r0, [r0, #8]
 228              	.LVL27:
 201:ThirdPackage/lwip220/api/tcpip.c ****       memp_free(MEMP_TCPIP_MSG_API, msg);
 229              		.loc 1 201 7 view .LVU57
 230 003e 9847     		blx	r3
 231              	.LVL28:
 202:ThirdPackage/lwip220/api/tcpip.c ****       break;
 232              		.loc 1 202 7 is_stmt 1 view .LVU58
 233 0040 2146     		mov	r1, r4
 234 0042 0820     		movs	r0, #8
 235 0044 FFF7FEFF 		bl	memp_free
 236              	.LVL29:
 203:ThirdPackage/lwip220/api/tcpip.c **** 
 237              		.loc 1 203 7 view .LVU59
 238 0048 F2E7     		b	.L12
 239              	.LVL30:
 240              	.L14:
 206:ThirdPackage/lwip220/api/tcpip.c ****       msg->msg.cb.function(msg->msg.cb.ctx);
 241              		.loc 1 206 84 view .LVU60
 207:ThirdPackage/lwip220/api/tcpip.c ****       break;
 242              		.loc 1 207 7 view .LVU61
 207:ThirdPackage/lwip220/api/tcpip.c ****       break;
 243              		.loc 1 207 18 is_stmt 0 view .LVU62
 244 004a 4368     		ldr	r3, [r0, #4]
 207:ThirdPackage/lwip220/api/tcpip.c ****       break;
 245              		.loc 1 207 7 view .LVU63
 246 004c 8068     		ldr	r0, [r0, #8]
 247              	.LVL31:
 207:ThirdPackage/lwip220/api/tcpip.c ****       break;
 248              		.loc 1 207 7 view .LVU64
ARM GAS  C:\Users\86188\AppData\Local\Temp\ccscIxHT.s 			page 10


 249 004e 9847     		blx	r3
 250              	.LVL32:
 208:ThirdPackage/lwip220/api/tcpip.c **** 
 251              		.loc 1 208 7 is_stmt 1 view .LVU65
 252 0050 EEE7     		b	.L12
 253              	.L22:
 254 0052 00BF     		.align	2
 255              	.L21:
 256 0054 00000000 		.word	.LC0
 257 0058 24000000 		.word	.LC1
 258 005c 44000000 		.word	.LC2
 259              		.cfi_endproc
 260              	.LFE162:
 262              		.section	.text.tcpip_thread,"ax",%progbits
 263              		.align	1
 264              		.syntax unified
 265              		.thumb
 266              		.thumb_func
 268              	tcpip_thread:
 269              	.LVL33:
 270              	.LFB161:
 128:ThirdPackage/lwip220/api/tcpip.c ****   struct tcpip_msg *msg;
 271              		.loc 1 128 1 view -0
 272              		.cfi_startproc
 273              		@ Volatile: function does not return.
 274              		@ args = 0, pretend = 0, frame = 8
 275              		@ frame_needed = 0, uses_anonymous_args = 0
 128:ThirdPackage/lwip220/api/tcpip.c ****   struct tcpip_msg *msg;
 276              		.loc 1 128 1 is_stmt 0 view .LVU67
 277 0000 00B5     		push	{lr}
 278              	.LCFI2:
 279              		.cfi_def_cfa_offset 4
 280              		.cfi_offset 14, -4
 281 0002 83B0     		sub	sp, sp, #12
 282              	.LCFI3:
 283              		.cfi_def_cfa_offset 16
 129:ThirdPackage/lwip220/api/tcpip.c ****   LWIP_UNUSED_ARG(arg);
 284              		.loc 1 129 3 is_stmt 1 view .LVU68
 130:ThirdPackage/lwip220/api/tcpip.c **** 
 285              		.loc 1 130 3 view .LVU69
 132:ThirdPackage/lwip220/api/tcpip.c **** 
 286              		.loc 1 132 27 view .LVU70
 134:ThirdPackage/lwip220/api/tcpip.c ****   if (tcpip_init_done != NULL) {
 287              		.loc 1 134 3 view .LVU71
 288 0004 0C48     		ldr	r0, .L29
 289              	.LVL34:
 134:ThirdPackage/lwip220/api/tcpip.c ****   if (tcpip_init_done != NULL) {
 290              		.loc 1 134 3 is_stmt 0 view .LVU72
 291 0006 FFF7FEFF 		bl	sys_mutex_lock
 292              	.LVL35:
 135:ThirdPackage/lwip220/api/tcpip.c ****     tcpip_init_done(tcpip_init_done_arg);
 293              		.loc 1 135 3 is_stmt 1 view .LVU73
 135:ThirdPackage/lwip220/api/tcpip.c ****     tcpip_init_done(tcpip_init_done_arg);
 294              		.loc 1 135 23 is_stmt 0 view .LVU74
 295 000a 0C4B     		ldr	r3, .L29+4
 296 000c 1B68     		ldr	r3, [r3]
 135:ThirdPackage/lwip220/api/tcpip.c ****     tcpip_init_done(tcpip_init_done_arg);
ARM GAS  C:\Users\86188\AppData\Local\Temp\ccscIxHT.s 			page 11


 297              		.loc 1 135 6 view .LVU75
 298 000e 2BB1     		cbz	r3, .L25
 136:ThirdPackage/lwip220/api/tcpip.c ****   }
 299              		.loc 1 136 5 is_stmt 1 view .LVU76
 300 0010 0B4A     		ldr	r2, .L29+8
 301 0012 1068     		ldr	r0, [r2]
 302 0014 9847     		blx	r3
 303              	.LVL36:
 304 0016 01E0     		b	.L25
 305              	.L26:
 148:ThirdPackage/lwip220/api/tcpip.c ****   }
 306              		.loc 1 148 5 view .LVU77
 307 0018 FFF7FEFF 		bl	tcpip_thread_handle_msg
 308              	.LVL37:
 309              	.L25:
 139:ThirdPackage/lwip220/api/tcpip.c ****     LWIP_TCPIP_THREAD_ALIVE();
 310              		.loc 1 139 3 view .LVU78
 140:ThirdPackage/lwip220/api/tcpip.c ****     /* wait for a message, timeouts are processed while waiting */
 311              		.loc 1 140 30 view .LVU79
 142:ThirdPackage/lwip220/api/tcpip.c ****     if (msg == NULL) {
 312              		.loc 1 142 5 view .LVU80
 313 001c 01A9     		add	r1, sp, #4
 314 001e 0948     		ldr	r0, .L29+12
 315 0020 FFF7FEFF 		bl	tcpip_timeouts_mbox_fetch
 316              	.LVL38:
 143:ThirdPackage/lwip220/api/tcpip.c ****       LWIP_DEBUGF(TCPIP_DEBUG, ("tcpip_thread: invalid message: NULL\n"));
 317              		.loc 1 143 5 view .LVU81
 143:ThirdPackage/lwip220/api/tcpip.c ****       LWIP_DEBUGF(TCPIP_DEBUG, ("tcpip_thread: invalid message: NULL\n"));
 318              		.loc 1 143 13 is_stmt 0 view .LVU82
 319 0024 0198     		ldr	r0, [sp, #4]
 143:ThirdPackage/lwip220/api/tcpip.c ****       LWIP_DEBUGF(TCPIP_DEBUG, ("tcpip_thread: invalid message: NULL\n"));
 320              		.loc 1 143 8 view .LVU83
 321 0026 0028     		cmp	r0, #0
 322 0028 F6D1     		bne	.L26
 144:ThirdPackage/lwip220/api/tcpip.c ****       LWIP_ASSERT("tcpip_thread: invalid message", 0);
 323              		.loc 1 144 74 is_stmt 1 discriminator 1 view .LVU84
 145:ThirdPackage/lwip220/api/tcpip.c ****       continue;
 324              		.loc 1 145 7 discriminator 1 view .LVU85
 145:ThirdPackage/lwip220/api/tcpip.c ****       continue;
 325              		.loc 1 145 7 discriminator 1 view .LVU86
 145:ThirdPackage/lwip220/api/tcpip.c ****       continue;
 326              		.loc 1 145 7 discriminator 1 view .LVU87
 145:ThirdPackage/lwip220/api/tcpip.c ****       continue;
 327              		.loc 1 145 7 discriminator 1 view .LVU88
 328 002a 074B     		ldr	r3, .L29+16
 329 002c 9122     		movs	r2, #145
 330 002e 0749     		ldr	r1, .L29+20
 331 0030 0748     		ldr	r0, .L29+24
 332 0032 FFF7FEFF 		bl	printf
 333              	.LVL39:
 145:ThirdPackage/lwip220/api/tcpip.c ****       continue;
 334              		.loc 1 145 7 discriminator 1 view .LVU89
 145:ThirdPackage/lwip220/api/tcpip.c ****       continue;
 335              		.loc 1 145 7 discriminator 1 view .LVU90
 146:ThirdPackage/lwip220/api/tcpip.c ****     }
 336              		.loc 1 146 7 discriminator 1 view .LVU91
 337 0036 F1E7     		b	.L25
ARM GAS  C:\Users\86188\AppData\Local\Temp\ccscIxHT.s 			page 12


 338              	.L30:
 339              		.align	2
 340              	.L29:
 341 0038 00000000 		.word	.LANCHOR0
 342 003c 00000000 		.word	.LANCHOR1
 343 0040 00000000 		.word	.LANCHOR2
 344 0044 00000000 		.word	.LANCHOR3
 345 0048 00000000 		.word	.LC0
 346 004c 24000000 		.word	.LC1
 347 0050 44000000 		.word	.LC2
 348              		.cfi_endproc
 349              	.LFE161:
 351              		.section	.text.pbuf_free_int,"ax",%progbits
 352              		.align	1
 353              		.syntax unified
 354              		.thumb
 355              		.thumb_func
 357              	pbuf_free_int:
 358              	.LVL40:
 359              	.LFB175:
 216:ThirdPackage/lwip220/api/tcpip.c **** 
 217:ThirdPackage/lwip220/api/tcpip.c **** #ifdef TCPIP_THREAD_TEST
 218:ThirdPackage/lwip220/api/tcpip.c **** /** Work on queued items in single-threaded test mode */
 219:ThirdPackage/lwip220/api/tcpip.c **** int
 220:ThirdPackage/lwip220/api/tcpip.c **** tcpip_thread_poll_one(void)
 221:ThirdPackage/lwip220/api/tcpip.c **** {
 222:ThirdPackage/lwip220/api/tcpip.c ****   int ret = 0;
 223:ThirdPackage/lwip220/api/tcpip.c ****   struct tcpip_msg *msg;
 224:ThirdPackage/lwip220/api/tcpip.c **** 
 225:ThirdPackage/lwip220/api/tcpip.c ****   if (sys_arch_mbox_tryfetch(&tcpip_mbox, (void **)&msg) != SYS_MBOX_EMPTY) {
 226:ThirdPackage/lwip220/api/tcpip.c ****     LOCK_TCPIP_CORE();
 227:ThirdPackage/lwip220/api/tcpip.c ****     if (msg != NULL) {
 228:ThirdPackage/lwip220/api/tcpip.c ****       tcpip_thread_handle_msg(msg);
 229:ThirdPackage/lwip220/api/tcpip.c ****       ret = 1;
 230:ThirdPackage/lwip220/api/tcpip.c ****     }
 231:ThirdPackage/lwip220/api/tcpip.c ****     UNLOCK_TCPIP_CORE();
 232:ThirdPackage/lwip220/api/tcpip.c ****   }
 233:ThirdPackage/lwip220/api/tcpip.c ****   return ret;
 234:ThirdPackage/lwip220/api/tcpip.c **** }
 235:ThirdPackage/lwip220/api/tcpip.c **** #endif
 236:ThirdPackage/lwip220/api/tcpip.c **** 
 237:ThirdPackage/lwip220/api/tcpip.c **** /**
 238:ThirdPackage/lwip220/api/tcpip.c ****  * Pass a received packet to tcpip_thread for input processing
 239:ThirdPackage/lwip220/api/tcpip.c ****  *
 240:ThirdPackage/lwip220/api/tcpip.c ****  * @param p the received packet
 241:ThirdPackage/lwip220/api/tcpip.c ****  * @param inp the network interface on which the packet was received
 242:ThirdPackage/lwip220/api/tcpip.c ****  * @param input_fn input function to call
 243:ThirdPackage/lwip220/api/tcpip.c ****  */
 244:ThirdPackage/lwip220/api/tcpip.c **** err_t
 245:ThirdPackage/lwip220/api/tcpip.c **** tcpip_inpkt(struct pbuf *p, struct netif *inp, netif_input_fn input_fn)
 246:ThirdPackage/lwip220/api/tcpip.c **** {
 247:ThirdPackage/lwip220/api/tcpip.c **** #if LWIP_TCPIP_CORE_LOCKING_INPUT
 248:ThirdPackage/lwip220/api/tcpip.c ****   err_t ret;
 249:ThirdPackage/lwip220/api/tcpip.c ****   LWIP_DEBUGF(TCPIP_DEBUG, ("tcpip_inpkt: PACKET %p/%p\n", (void *)p, (void *)inp));
 250:ThirdPackage/lwip220/api/tcpip.c ****   LOCK_TCPIP_CORE();
 251:ThirdPackage/lwip220/api/tcpip.c ****   ret = input_fn(p, inp);
 252:ThirdPackage/lwip220/api/tcpip.c ****   UNLOCK_TCPIP_CORE();
ARM GAS  C:\Users\86188\AppData\Local\Temp\ccscIxHT.s 			page 13


 253:ThirdPackage/lwip220/api/tcpip.c ****   return ret;
 254:ThirdPackage/lwip220/api/tcpip.c **** #else /* LWIP_TCPIP_CORE_LOCKING_INPUT */
 255:ThirdPackage/lwip220/api/tcpip.c ****   struct tcpip_msg *msg;
 256:ThirdPackage/lwip220/api/tcpip.c **** 
 257:ThirdPackage/lwip220/api/tcpip.c ****   LWIP_ASSERT("Invalid mbox", sys_mbox_valid_val(tcpip_mbox));
 258:ThirdPackage/lwip220/api/tcpip.c **** 
 259:ThirdPackage/lwip220/api/tcpip.c ****   msg = (struct tcpip_msg *)memp_malloc(MEMP_TCPIP_MSG_INPKT);
 260:ThirdPackage/lwip220/api/tcpip.c ****   if (msg == NULL) {
 261:ThirdPackage/lwip220/api/tcpip.c ****     return ERR_MEM;
 262:ThirdPackage/lwip220/api/tcpip.c ****   }
 263:ThirdPackage/lwip220/api/tcpip.c **** 
 264:ThirdPackage/lwip220/api/tcpip.c ****   msg->type = TCPIP_MSG_INPKT;
 265:ThirdPackage/lwip220/api/tcpip.c ****   msg->msg.inp.p = p;
 266:ThirdPackage/lwip220/api/tcpip.c ****   msg->msg.inp.netif = inp;
 267:ThirdPackage/lwip220/api/tcpip.c ****   msg->msg.inp.input_fn = input_fn;
 268:ThirdPackage/lwip220/api/tcpip.c ****   if (sys_mbox_trypost(&tcpip_mbox, msg) != ERR_OK) {
 269:ThirdPackage/lwip220/api/tcpip.c ****     memp_free(MEMP_TCPIP_MSG_INPKT, msg);
 270:ThirdPackage/lwip220/api/tcpip.c ****     return ERR_MEM;
 271:ThirdPackage/lwip220/api/tcpip.c ****   }
 272:ThirdPackage/lwip220/api/tcpip.c ****   return ERR_OK;
 273:ThirdPackage/lwip220/api/tcpip.c **** #endif /* LWIP_TCPIP_CORE_LOCKING_INPUT */
 274:ThirdPackage/lwip220/api/tcpip.c **** }
 275:ThirdPackage/lwip220/api/tcpip.c **** 
 276:ThirdPackage/lwip220/api/tcpip.c **** /**
 277:ThirdPackage/lwip220/api/tcpip.c ****  * @ingroup lwip_os
 278:ThirdPackage/lwip220/api/tcpip.c ****  * Pass a received packet to tcpip_thread for input processing with
 279:ThirdPackage/lwip220/api/tcpip.c ****  * ethernet_input or ip_input. Don't call directly, pass to netif_add()
 280:ThirdPackage/lwip220/api/tcpip.c ****  * and call netif->input().
 281:ThirdPackage/lwip220/api/tcpip.c ****  *
 282:ThirdPackage/lwip220/api/tcpip.c ****  * @param p the received packet, p->payload pointing to the Ethernet header or
 283:ThirdPackage/lwip220/api/tcpip.c ****  *          to an IP header (if inp doesn't have NETIF_FLAG_ETHARP or
 284:ThirdPackage/lwip220/api/tcpip.c ****  *          NETIF_FLAG_ETHERNET flags)
 285:ThirdPackage/lwip220/api/tcpip.c ****  * @param inp the network interface on which the packet was received
 286:ThirdPackage/lwip220/api/tcpip.c ****  */
 287:ThirdPackage/lwip220/api/tcpip.c **** err_t
 288:ThirdPackage/lwip220/api/tcpip.c **** tcpip_input(struct pbuf *p, struct netif *inp)
 289:ThirdPackage/lwip220/api/tcpip.c **** {
 290:ThirdPackage/lwip220/api/tcpip.c **** #if LWIP_ETHERNET
 291:ThirdPackage/lwip220/api/tcpip.c ****   if (inp->flags & (NETIF_FLAG_ETHARP | NETIF_FLAG_ETHERNET)) {
 292:ThirdPackage/lwip220/api/tcpip.c ****     return tcpip_inpkt(p, inp, ethernet_input);
 293:ThirdPackage/lwip220/api/tcpip.c ****   } else
 294:ThirdPackage/lwip220/api/tcpip.c **** #endif /* LWIP_ETHERNET */
 295:ThirdPackage/lwip220/api/tcpip.c ****     return tcpip_inpkt(p, inp, ip_input);
 296:ThirdPackage/lwip220/api/tcpip.c **** }
 297:ThirdPackage/lwip220/api/tcpip.c **** 
 298:ThirdPackage/lwip220/api/tcpip.c **** /**
 299:ThirdPackage/lwip220/api/tcpip.c ****  * @ingroup lwip_os
 300:ThirdPackage/lwip220/api/tcpip.c ****  * Call a specific function in the thread context of
 301:ThirdPackage/lwip220/api/tcpip.c ****  * tcpip_thread for easy access synchronization.
 302:ThirdPackage/lwip220/api/tcpip.c ****  * A function called in that way may access lwIP core code
 303:ThirdPackage/lwip220/api/tcpip.c ****  * without fearing concurrent access.
 304:ThirdPackage/lwip220/api/tcpip.c ****  * Blocks until the request is posted.
 305:ThirdPackage/lwip220/api/tcpip.c ****  * Must not be called from interrupt context!
 306:ThirdPackage/lwip220/api/tcpip.c ****  *
 307:ThirdPackage/lwip220/api/tcpip.c ****  * @param function the function to call
 308:ThirdPackage/lwip220/api/tcpip.c ****  * @param ctx parameter passed to f
 309:ThirdPackage/lwip220/api/tcpip.c ****  * @return ERR_OK if the function was called, another err_t if not
ARM GAS  C:\Users\86188\AppData\Local\Temp\ccscIxHT.s 			page 14


 310:ThirdPackage/lwip220/api/tcpip.c ****  *
 311:ThirdPackage/lwip220/api/tcpip.c ****  * @see tcpip_try_callback
 312:ThirdPackage/lwip220/api/tcpip.c ****  */
 313:ThirdPackage/lwip220/api/tcpip.c **** err_t
 314:ThirdPackage/lwip220/api/tcpip.c **** tcpip_callback(tcpip_callback_fn function, void *ctx)
 315:ThirdPackage/lwip220/api/tcpip.c **** {
 316:ThirdPackage/lwip220/api/tcpip.c ****   struct tcpip_msg *msg;
 317:ThirdPackage/lwip220/api/tcpip.c **** 
 318:ThirdPackage/lwip220/api/tcpip.c ****   LWIP_ASSERT("Invalid mbox", sys_mbox_valid_val(tcpip_mbox));
 319:ThirdPackage/lwip220/api/tcpip.c **** 
 320:ThirdPackage/lwip220/api/tcpip.c ****   msg = (struct tcpip_msg *)memp_malloc(MEMP_TCPIP_MSG_API);
 321:ThirdPackage/lwip220/api/tcpip.c ****   if (msg == NULL) {
 322:ThirdPackage/lwip220/api/tcpip.c ****     return ERR_MEM;
 323:ThirdPackage/lwip220/api/tcpip.c ****   }
 324:ThirdPackage/lwip220/api/tcpip.c **** 
 325:ThirdPackage/lwip220/api/tcpip.c ****   msg->type = TCPIP_MSG_CALLBACK;
 326:ThirdPackage/lwip220/api/tcpip.c ****   msg->msg.cb.function = function;
 327:ThirdPackage/lwip220/api/tcpip.c ****   msg->msg.cb.ctx = ctx;
 328:ThirdPackage/lwip220/api/tcpip.c **** 
 329:ThirdPackage/lwip220/api/tcpip.c ****   sys_mbox_post(&tcpip_mbox, msg);
 330:ThirdPackage/lwip220/api/tcpip.c ****   return ERR_OK;
 331:ThirdPackage/lwip220/api/tcpip.c **** }
 332:ThirdPackage/lwip220/api/tcpip.c **** 
 333:ThirdPackage/lwip220/api/tcpip.c **** /**
 334:ThirdPackage/lwip220/api/tcpip.c ****  * @ingroup lwip_os
 335:ThirdPackage/lwip220/api/tcpip.c ****  * Call a specific function in the thread context of
 336:ThirdPackage/lwip220/api/tcpip.c ****  * tcpip_thread for easy access synchronization.
 337:ThirdPackage/lwip220/api/tcpip.c ****  * A function called in that way may access lwIP core code
 338:ThirdPackage/lwip220/api/tcpip.c ****  * without fearing concurrent access.
 339:ThirdPackage/lwip220/api/tcpip.c ****  * Does NOT block when the request cannot be posted because the
 340:ThirdPackage/lwip220/api/tcpip.c ****  * tcpip_mbox is full, but returns ERR_MEM instead.
 341:ThirdPackage/lwip220/api/tcpip.c ****  * Can be called from interrupt context.
 342:ThirdPackage/lwip220/api/tcpip.c ****  *
 343:ThirdPackage/lwip220/api/tcpip.c ****  * @param function the function to call
 344:ThirdPackage/lwip220/api/tcpip.c ****  * @param ctx parameter passed to f
 345:ThirdPackage/lwip220/api/tcpip.c ****  * @return ERR_OK if the function was called, another err_t if not
 346:ThirdPackage/lwip220/api/tcpip.c ****  *
 347:ThirdPackage/lwip220/api/tcpip.c ****  * @see tcpip_callback
 348:ThirdPackage/lwip220/api/tcpip.c ****  */
 349:ThirdPackage/lwip220/api/tcpip.c **** err_t
 350:ThirdPackage/lwip220/api/tcpip.c **** tcpip_try_callback(tcpip_callback_fn function, void *ctx)
 351:ThirdPackage/lwip220/api/tcpip.c **** {
 352:ThirdPackage/lwip220/api/tcpip.c ****   struct tcpip_msg *msg;
 353:ThirdPackage/lwip220/api/tcpip.c **** 
 354:ThirdPackage/lwip220/api/tcpip.c ****   LWIP_ASSERT("Invalid mbox", sys_mbox_valid_val(tcpip_mbox));
 355:ThirdPackage/lwip220/api/tcpip.c **** 
 356:ThirdPackage/lwip220/api/tcpip.c ****   msg = (struct tcpip_msg *)memp_malloc(MEMP_TCPIP_MSG_API);
 357:ThirdPackage/lwip220/api/tcpip.c ****   if (msg == NULL) {
 358:ThirdPackage/lwip220/api/tcpip.c ****     return ERR_MEM;
 359:ThirdPackage/lwip220/api/tcpip.c ****   }
 360:ThirdPackage/lwip220/api/tcpip.c **** 
 361:ThirdPackage/lwip220/api/tcpip.c ****   msg->type = TCPIP_MSG_CALLBACK;
 362:ThirdPackage/lwip220/api/tcpip.c ****   msg->msg.cb.function = function;
 363:ThirdPackage/lwip220/api/tcpip.c ****   msg->msg.cb.ctx = ctx;
 364:ThirdPackage/lwip220/api/tcpip.c **** 
 365:ThirdPackage/lwip220/api/tcpip.c ****   if (sys_mbox_trypost(&tcpip_mbox, msg) != ERR_OK) {
 366:ThirdPackage/lwip220/api/tcpip.c ****     memp_free(MEMP_TCPIP_MSG_API, msg);
ARM GAS  C:\Users\86188\AppData\Local\Temp\ccscIxHT.s 			page 15


 367:ThirdPackage/lwip220/api/tcpip.c ****     return ERR_MEM;
 368:ThirdPackage/lwip220/api/tcpip.c ****   }
 369:ThirdPackage/lwip220/api/tcpip.c ****   return ERR_OK;
 370:ThirdPackage/lwip220/api/tcpip.c **** }
 371:ThirdPackage/lwip220/api/tcpip.c **** 
 372:ThirdPackage/lwip220/api/tcpip.c **** #if LWIP_TCPIP_TIMEOUT && LWIP_TIMERS
 373:ThirdPackage/lwip220/api/tcpip.c **** /**
 374:ThirdPackage/lwip220/api/tcpip.c ****  * call sys_timeout in tcpip_thread
 375:ThirdPackage/lwip220/api/tcpip.c ****  *
 376:ThirdPackage/lwip220/api/tcpip.c ****  * @param msecs time in milliseconds for timeout
 377:ThirdPackage/lwip220/api/tcpip.c ****  * @param h function to be called on timeout
 378:ThirdPackage/lwip220/api/tcpip.c ****  * @param arg argument to pass to timeout function h
 379:ThirdPackage/lwip220/api/tcpip.c ****  * @return ERR_MEM on memory error, ERR_OK otherwise
 380:ThirdPackage/lwip220/api/tcpip.c ****  */
 381:ThirdPackage/lwip220/api/tcpip.c **** err_t
 382:ThirdPackage/lwip220/api/tcpip.c **** tcpip_timeout(u32_t msecs, sys_timeout_handler h, void *arg)
 383:ThirdPackage/lwip220/api/tcpip.c **** {
 384:ThirdPackage/lwip220/api/tcpip.c ****   struct tcpip_msg *msg;
 385:ThirdPackage/lwip220/api/tcpip.c **** 
 386:ThirdPackage/lwip220/api/tcpip.c ****   LWIP_ASSERT("Invalid mbox", sys_mbox_valid_val(tcpip_mbox));
 387:ThirdPackage/lwip220/api/tcpip.c **** 
 388:ThirdPackage/lwip220/api/tcpip.c ****   msg = (struct tcpip_msg *)memp_malloc(MEMP_TCPIP_MSG_API);
 389:ThirdPackage/lwip220/api/tcpip.c ****   if (msg == NULL) {
 390:ThirdPackage/lwip220/api/tcpip.c ****     return ERR_MEM;
 391:ThirdPackage/lwip220/api/tcpip.c ****   }
 392:ThirdPackage/lwip220/api/tcpip.c **** 
 393:ThirdPackage/lwip220/api/tcpip.c ****   msg->type = TCPIP_MSG_TIMEOUT;
 394:ThirdPackage/lwip220/api/tcpip.c ****   msg->msg.tmo.msecs = msecs;
 395:ThirdPackage/lwip220/api/tcpip.c ****   msg->msg.tmo.h = h;
 396:ThirdPackage/lwip220/api/tcpip.c ****   msg->msg.tmo.arg = arg;
 397:ThirdPackage/lwip220/api/tcpip.c ****   sys_mbox_post(&tcpip_mbox, msg);
 398:ThirdPackage/lwip220/api/tcpip.c ****   return ERR_OK;
 399:ThirdPackage/lwip220/api/tcpip.c **** }
 400:ThirdPackage/lwip220/api/tcpip.c **** 
 401:ThirdPackage/lwip220/api/tcpip.c **** /**
 402:ThirdPackage/lwip220/api/tcpip.c ****  * call sys_untimeout in tcpip_thread
 403:ThirdPackage/lwip220/api/tcpip.c ****  *
 404:ThirdPackage/lwip220/api/tcpip.c ****  * @param h function to be called on timeout
 405:ThirdPackage/lwip220/api/tcpip.c ****  * @param arg argument to pass to timeout function h
 406:ThirdPackage/lwip220/api/tcpip.c ****  * @return ERR_MEM on memory error, ERR_OK otherwise
 407:ThirdPackage/lwip220/api/tcpip.c ****  */
 408:ThirdPackage/lwip220/api/tcpip.c **** err_t
 409:ThirdPackage/lwip220/api/tcpip.c **** tcpip_untimeout(sys_timeout_handler h, void *arg)
 410:ThirdPackage/lwip220/api/tcpip.c **** {
 411:ThirdPackage/lwip220/api/tcpip.c ****   struct tcpip_msg *msg;
 412:ThirdPackage/lwip220/api/tcpip.c **** 
 413:ThirdPackage/lwip220/api/tcpip.c ****   LWIP_ASSERT("Invalid mbox", sys_mbox_valid_val(tcpip_mbox));
 414:ThirdPackage/lwip220/api/tcpip.c **** 
 415:ThirdPackage/lwip220/api/tcpip.c ****   msg = (struct tcpip_msg *)memp_malloc(MEMP_TCPIP_MSG_API);
 416:ThirdPackage/lwip220/api/tcpip.c ****   if (msg == NULL) {
 417:ThirdPackage/lwip220/api/tcpip.c ****     return ERR_MEM;
 418:ThirdPackage/lwip220/api/tcpip.c ****   }
 419:ThirdPackage/lwip220/api/tcpip.c **** 
 420:ThirdPackage/lwip220/api/tcpip.c ****   msg->type = TCPIP_MSG_UNTIMEOUT;
 421:ThirdPackage/lwip220/api/tcpip.c ****   msg->msg.tmo.h = h;
 422:ThirdPackage/lwip220/api/tcpip.c ****   msg->msg.tmo.arg = arg;
 423:ThirdPackage/lwip220/api/tcpip.c ****   sys_mbox_post(&tcpip_mbox, msg);
ARM GAS  C:\Users\86188\AppData\Local\Temp\ccscIxHT.s 			page 16


 424:ThirdPackage/lwip220/api/tcpip.c ****   return ERR_OK;
 425:ThirdPackage/lwip220/api/tcpip.c **** }
 426:ThirdPackage/lwip220/api/tcpip.c **** #endif /* LWIP_TCPIP_TIMEOUT && LWIP_TIMERS */
 427:ThirdPackage/lwip220/api/tcpip.c **** 
 428:ThirdPackage/lwip220/api/tcpip.c **** 
 429:ThirdPackage/lwip220/api/tcpip.c **** /**
 430:ThirdPackage/lwip220/api/tcpip.c ****  * Sends a message to TCPIP thread to call a function. Caller thread blocks on
 431:ThirdPackage/lwip220/api/tcpip.c ****  * on a provided semaphore, which ist NOT automatically signalled by TCPIP thread,
 432:ThirdPackage/lwip220/api/tcpip.c ****  * this has to be done by the user.
 433:ThirdPackage/lwip220/api/tcpip.c ****  * It is recommended to use LWIP_TCPIP_CORE_LOCKING since this is the way
 434:ThirdPackage/lwip220/api/tcpip.c ****  * with least runtime overhead.
 435:ThirdPackage/lwip220/api/tcpip.c ****  *
 436:ThirdPackage/lwip220/api/tcpip.c ****  * @param fn function to be called from TCPIP thread
 437:ThirdPackage/lwip220/api/tcpip.c ****  * @param apimsg argument to API function
 438:ThirdPackage/lwip220/api/tcpip.c ****  * @param sem semaphore to wait on
 439:ThirdPackage/lwip220/api/tcpip.c ****  * @return ERR_OK if the function was called, another err_t if not
 440:ThirdPackage/lwip220/api/tcpip.c ****  */
 441:ThirdPackage/lwip220/api/tcpip.c **** err_t
 442:ThirdPackage/lwip220/api/tcpip.c **** tcpip_send_msg_wait_sem(tcpip_callback_fn fn, void *apimsg, sys_sem_t *sem)
 443:ThirdPackage/lwip220/api/tcpip.c **** {
 444:ThirdPackage/lwip220/api/tcpip.c **** #if LWIP_TCPIP_CORE_LOCKING
 445:ThirdPackage/lwip220/api/tcpip.c ****   LWIP_UNUSED_ARG(sem);
 446:ThirdPackage/lwip220/api/tcpip.c ****   LOCK_TCPIP_CORE();
 447:ThirdPackage/lwip220/api/tcpip.c ****   fn(apimsg);
 448:ThirdPackage/lwip220/api/tcpip.c ****   UNLOCK_TCPIP_CORE();
 449:ThirdPackage/lwip220/api/tcpip.c ****   return ERR_OK;
 450:ThirdPackage/lwip220/api/tcpip.c **** #else /* LWIP_TCPIP_CORE_LOCKING */
 451:ThirdPackage/lwip220/api/tcpip.c ****   TCPIP_MSG_VAR_DECLARE(msg);
 452:ThirdPackage/lwip220/api/tcpip.c **** 
 453:ThirdPackage/lwip220/api/tcpip.c ****   LWIP_ASSERT("semaphore not initialized", sys_sem_valid(sem));
 454:ThirdPackage/lwip220/api/tcpip.c ****   LWIP_ASSERT("Invalid mbox", sys_mbox_valid_val(tcpip_mbox));
 455:ThirdPackage/lwip220/api/tcpip.c **** 
 456:ThirdPackage/lwip220/api/tcpip.c ****   TCPIP_MSG_VAR_ALLOC(msg);
 457:ThirdPackage/lwip220/api/tcpip.c ****   TCPIP_MSG_VAR_REF(msg).type = TCPIP_MSG_API;
 458:ThirdPackage/lwip220/api/tcpip.c ****   TCPIP_MSG_VAR_REF(msg).msg.api_msg.function = fn;
 459:ThirdPackage/lwip220/api/tcpip.c ****   TCPIP_MSG_VAR_REF(msg).msg.api_msg.msg = apimsg;
 460:ThirdPackage/lwip220/api/tcpip.c ****   sys_mbox_post(&tcpip_mbox, &TCPIP_MSG_VAR_REF(msg));
 461:ThirdPackage/lwip220/api/tcpip.c ****   sys_arch_sem_wait(sem, 0);
 462:ThirdPackage/lwip220/api/tcpip.c ****   TCPIP_MSG_VAR_FREE(msg);
 463:ThirdPackage/lwip220/api/tcpip.c ****   return ERR_OK;
 464:ThirdPackage/lwip220/api/tcpip.c **** #endif /* LWIP_TCPIP_CORE_LOCKING */
 465:ThirdPackage/lwip220/api/tcpip.c **** }
 466:ThirdPackage/lwip220/api/tcpip.c **** 
 467:ThirdPackage/lwip220/api/tcpip.c **** /**
 468:ThirdPackage/lwip220/api/tcpip.c ****  * Synchronously calls function in TCPIP thread and waits for its completion.
 469:ThirdPackage/lwip220/api/tcpip.c ****  * It is recommended to use LWIP_TCPIP_CORE_LOCKING (preferred) or
 470:ThirdPackage/lwip220/api/tcpip.c ****  * LWIP_NETCONN_SEM_PER_THREAD.
 471:ThirdPackage/lwip220/api/tcpip.c ****  * If not, a semaphore is created and destroyed on every call which is usually
 472:ThirdPackage/lwip220/api/tcpip.c ****  * an expensive/slow operation.
 473:ThirdPackage/lwip220/api/tcpip.c ****  * @param fn Function to call
 474:ThirdPackage/lwip220/api/tcpip.c ****  * @param call Call parameters
 475:ThirdPackage/lwip220/api/tcpip.c ****  * @return Return value from tcpip_api_call_fn
 476:ThirdPackage/lwip220/api/tcpip.c ****  */
 477:ThirdPackage/lwip220/api/tcpip.c **** err_t
 478:ThirdPackage/lwip220/api/tcpip.c **** tcpip_api_call(tcpip_api_call_fn fn, struct tcpip_api_call_data *call)
 479:ThirdPackage/lwip220/api/tcpip.c **** {
 480:ThirdPackage/lwip220/api/tcpip.c **** #if LWIP_TCPIP_CORE_LOCKING
ARM GAS  C:\Users\86188\AppData\Local\Temp\ccscIxHT.s 			page 17


 481:ThirdPackage/lwip220/api/tcpip.c ****   err_t err;
 482:ThirdPackage/lwip220/api/tcpip.c ****   LOCK_TCPIP_CORE();
 483:ThirdPackage/lwip220/api/tcpip.c ****   err = fn(call);
 484:ThirdPackage/lwip220/api/tcpip.c ****   UNLOCK_TCPIP_CORE();
 485:ThirdPackage/lwip220/api/tcpip.c ****   return err;
 486:ThirdPackage/lwip220/api/tcpip.c **** #else /* LWIP_TCPIP_CORE_LOCKING */
 487:ThirdPackage/lwip220/api/tcpip.c ****   TCPIP_MSG_VAR_DECLARE(msg);
 488:ThirdPackage/lwip220/api/tcpip.c **** 
 489:ThirdPackage/lwip220/api/tcpip.c **** #if !LWIP_NETCONN_SEM_PER_THREAD
 490:ThirdPackage/lwip220/api/tcpip.c ****   err_t err = sys_sem_new(&call->sem, 0);
 491:ThirdPackage/lwip220/api/tcpip.c ****   if (err != ERR_OK) {
 492:ThirdPackage/lwip220/api/tcpip.c ****     return err;
 493:ThirdPackage/lwip220/api/tcpip.c ****   }
 494:ThirdPackage/lwip220/api/tcpip.c **** #endif /* LWIP_NETCONN_SEM_PER_THREAD */
 495:ThirdPackage/lwip220/api/tcpip.c **** 
 496:ThirdPackage/lwip220/api/tcpip.c ****   LWIP_ASSERT("Invalid mbox", sys_mbox_valid_val(tcpip_mbox));
 497:ThirdPackage/lwip220/api/tcpip.c **** 
 498:ThirdPackage/lwip220/api/tcpip.c ****   TCPIP_MSG_VAR_ALLOC(msg);
 499:ThirdPackage/lwip220/api/tcpip.c ****   TCPIP_MSG_VAR_REF(msg).type = TCPIP_MSG_API_CALL;
 500:ThirdPackage/lwip220/api/tcpip.c ****   TCPIP_MSG_VAR_REF(msg).msg.api_call.arg = call;
 501:ThirdPackage/lwip220/api/tcpip.c ****   TCPIP_MSG_VAR_REF(msg).msg.api_call.function = fn;
 502:ThirdPackage/lwip220/api/tcpip.c **** #if LWIP_NETCONN_SEM_PER_THREAD
 503:ThirdPackage/lwip220/api/tcpip.c ****   TCPIP_MSG_VAR_REF(msg).msg.api_call.sem = LWIP_NETCONN_THREAD_SEM_GET();
 504:ThirdPackage/lwip220/api/tcpip.c **** #else /* LWIP_NETCONN_SEM_PER_THREAD */
 505:ThirdPackage/lwip220/api/tcpip.c ****   TCPIP_MSG_VAR_REF(msg).msg.api_call.sem = &call->sem;
 506:ThirdPackage/lwip220/api/tcpip.c **** #endif /* LWIP_NETCONN_SEM_PER_THREAD */
 507:ThirdPackage/lwip220/api/tcpip.c ****   sys_mbox_post(&tcpip_mbox, &TCPIP_MSG_VAR_REF(msg));
 508:ThirdPackage/lwip220/api/tcpip.c ****   sys_arch_sem_wait(TCPIP_MSG_VAR_REF(msg).msg.api_call.sem, 0);
 509:ThirdPackage/lwip220/api/tcpip.c ****   TCPIP_MSG_VAR_FREE(msg);
 510:ThirdPackage/lwip220/api/tcpip.c **** 
 511:ThirdPackage/lwip220/api/tcpip.c **** #if !LWIP_NETCONN_SEM_PER_THREAD
 512:ThirdPackage/lwip220/api/tcpip.c ****   sys_sem_free(&call->sem);
 513:ThirdPackage/lwip220/api/tcpip.c **** #endif /* LWIP_NETCONN_SEM_PER_THREAD */
 514:ThirdPackage/lwip220/api/tcpip.c **** 
 515:ThirdPackage/lwip220/api/tcpip.c ****   return call->err;
 516:ThirdPackage/lwip220/api/tcpip.c **** #endif /* LWIP_TCPIP_CORE_LOCKING */
 517:ThirdPackage/lwip220/api/tcpip.c **** }
 518:ThirdPackage/lwip220/api/tcpip.c **** 
 519:ThirdPackage/lwip220/api/tcpip.c **** /**
 520:ThirdPackage/lwip220/api/tcpip.c ****  * @ingroup lwip_os
 521:ThirdPackage/lwip220/api/tcpip.c ****  * Allocate a structure for a static callback message and initialize it.
 522:ThirdPackage/lwip220/api/tcpip.c ****  * The message has a special type such that lwIP never frees it.
 523:ThirdPackage/lwip220/api/tcpip.c ****  * This is intended to be used to send "static" messages from interrupt context,
 524:ThirdPackage/lwip220/api/tcpip.c ****  * e.g. the message is allocated once and posted several times from an IRQ
 525:ThirdPackage/lwip220/api/tcpip.c ****  * using tcpip_callbackmsg_trycallback().
 526:ThirdPackage/lwip220/api/tcpip.c ****  * Example usage: Trigger execution of an ethernet IRQ DPC routine in lwIP thread context.
 527:ThirdPackage/lwip220/api/tcpip.c ****  *
 528:ThirdPackage/lwip220/api/tcpip.c ****  * @param function the function to call
 529:ThirdPackage/lwip220/api/tcpip.c ****  * @param ctx parameter passed to function
 530:ThirdPackage/lwip220/api/tcpip.c ****  * @return a struct pointer to pass to tcpip_callbackmsg_trycallback().
 531:ThirdPackage/lwip220/api/tcpip.c ****  *
 532:ThirdPackage/lwip220/api/tcpip.c ****  * @see tcpip_callbackmsg_trycallback()
 533:ThirdPackage/lwip220/api/tcpip.c ****  * @see tcpip_callbackmsg_delete()
 534:ThirdPackage/lwip220/api/tcpip.c ****  */
 535:ThirdPackage/lwip220/api/tcpip.c **** struct tcpip_callback_msg *
 536:ThirdPackage/lwip220/api/tcpip.c **** tcpip_callbackmsg_new(tcpip_callback_fn function, void *ctx)
 537:ThirdPackage/lwip220/api/tcpip.c **** {
ARM GAS  C:\Users\86188\AppData\Local\Temp\ccscIxHT.s 			page 18


 538:ThirdPackage/lwip220/api/tcpip.c ****   struct tcpip_msg *msg = (struct tcpip_msg *)memp_malloc(MEMP_TCPIP_MSG_API);
 539:ThirdPackage/lwip220/api/tcpip.c ****   if (msg == NULL) {
 540:ThirdPackage/lwip220/api/tcpip.c ****     return NULL;
 541:ThirdPackage/lwip220/api/tcpip.c ****   }
 542:ThirdPackage/lwip220/api/tcpip.c ****   msg->type = TCPIP_MSG_CALLBACK_STATIC;
 543:ThirdPackage/lwip220/api/tcpip.c ****   msg->msg.cb.function = function;
 544:ThirdPackage/lwip220/api/tcpip.c ****   msg->msg.cb.ctx = ctx;
 545:ThirdPackage/lwip220/api/tcpip.c ****   return (struct tcpip_callback_msg *)msg;
 546:ThirdPackage/lwip220/api/tcpip.c **** }
 547:ThirdPackage/lwip220/api/tcpip.c **** 
 548:ThirdPackage/lwip220/api/tcpip.c **** /**
 549:ThirdPackage/lwip220/api/tcpip.c ****  * @ingroup lwip_os
 550:ThirdPackage/lwip220/api/tcpip.c ****  * Free a callback message allocated by tcpip_callbackmsg_new().
 551:ThirdPackage/lwip220/api/tcpip.c ****  *
 552:ThirdPackage/lwip220/api/tcpip.c ****  * @param msg the message to free
 553:ThirdPackage/lwip220/api/tcpip.c ****  *
 554:ThirdPackage/lwip220/api/tcpip.c ****  * @see tcpip_callbackmsg_new()
 555:ThirdPackage/lwip220/api/tcpip.c ****  */
 556:ThirdPackage/lwip220/api/tcpip.c **** void
 557:ThirdPackage/lwip220/api/tcpip.c **** tcpip_callbackmsg_delete(struct tcpip_callback_msg *msg)
 558:ThirdPackage/lwip220/api/tcpip.c **** {
 559:ThirdPackage/lwip220/api/tcpip.c ****   memp_free(MEMP_TCPIP_MSG_API, msg);
 560:ThirdPackage/lwip220/api/tcpip.c **** }
 561:ThirdPackage/lwip220/api/tcpip.c **** 
 562:ThirdPackage/lwip220/api/tcpip.c **** /**
 563:ThirdPackage/lwip220/api/tcpip.c ****  * @ingroup lwip_os
 564:ThirdPackage/lwip220/api/tcpip.c ****  * Try to post a callback-message to the tcpip_thread tcpip_mbox.
 565:ThirdPackage/lwip220/api/tcpip.c ****  *
 566:ThirdPackage/lwip220/api/tcpip.c ****  * @param msg pointer to the message to post
 567:ThirdPackage/lwip220/api/tcpip.c ****  * @return sys_mbox_trypost() return code
 568:ThirdPackage/lwip220/api/tcpip.c ****  *
 569:ThirdPackage/lwip220/api/tcpip.c ****  * @see tcpip_callbackmsg_new()
 570:ThirdPackage/lwip220/api/tcpip.c ****  */
 571:ThirdPackage/lwip220/api/tcpip.c **** err_t
 572:ThirdPackage/lwip220/api/tcpip.c **** tcpip_callbackmsg_trycallback(struct tcpip_callback_msg *msg)
 573:ThirdPackage/lwip220/api/tcpip.c **** {
 574:ThirdPackage/lwip220/api/tcpip.c ****   LWIP_ASSERT("Invalid mbox", sys_mbox_valid_val(tcpip_mbox));
 575:ThirdPackage/lwip220/api/tcpip.c ****   return sys_mbox_trypost(&tcpip_mbox, msg);
 576:ThirdPackage/lwip220/api/tcpip.c **** }
 577:ThirdPackage/lwip220/api/tcpip.c **** 
 578:ThirdPackage/lwip220/api/tcpip.c **** /**
 579:ThirdPackage/lwip220/api/tcpip.c ****  * @ingroup lwip_os
 580:ThirdPackage/lwip220/api/tcpip.c ****  * Try to post a callback-message to the tcpip_thread mbox.
 581:ThirdPackage/lwip220/api/tcpip.c ****  * Same as @ref tcpip_callbackmsg_trycallback but calls sys_mbox_trypost_fromisr(),
 582:ThirdPackage/lwip220/api/tcpip.c ****  * mainly to help FreeRTOS, where calls differ between task level and ISR level.
 583:ThirdPackage/lwip220/api/tcpip.c ****  *
 584:ThirdPackage/lwip220/api/tcpip.c ****  * @param msg pointer to the message to post
 585:ThirdPackage/lwip220/api/tcpip.c ****  * @return sys_mbox_trypost_fromisr() return code (without change, so this
 586:ThirdPackage/lwip220/api/tcpip.c ****  *         knowledge can be used to e.g. propagate "bool needs_scheduling")
 587:ThirdPackage/lwip220/api/tcpip.c ****  *
 588:ThirdPackage/lwip220/api/tcpip.c ****  * @see tcpip_callbackmsg_new()
 589:ThirdPackage/lwip220/api/tcpip.c ****  */
 590:ThirdPackage/lwip220/api/tcpip.c **** err_t
 591:ThirdPackage/lwip220/api/tcpip.c **** tcpip_callbackmsg_trycallback_fromisr(struct tcpip_callback_msg *msg)
 592:ThirdPackage/lwip220/api/tcpip.c **** {
 593:ThirdPackage/lwip220/api/tcpip.c ****   LWIP_ASSERT("Invalid mbox", sys_mbox_valid_val(tcpip_mbox));
 594:ThirdPackage/lwip220/api/tcpip.c ****   return sys_mbox_trypost_fromisr(&tcpip_mbox, msg);
ARM GAS  C:\Users\86188\AppData\Local\Temp\ccscIxHT.s 			page 19


 595:ThirdPackage/lwip220/api/tcpip.c **** }
 596:ThirdPackage/lwip220/api/tcpip.c **** 
 597:ThirdPackage/lwip220/api/tcpip.c **** /**
 598:ThirdPackage/lwip220/api/tcpip.c ****  * Sends a message to TCPIP thread to call a function. Caller thread blocks
 599:ThirdPackage/lwip220/api/tcpip.c ****  * until the function returns.
 600:ThirdPackage/lwip220/api/tcpip.c ****  * It is recommended to use LWIP_TCPIP_CORE_LOCKING (preferred) or
 601:ThirdPackage/lwip220/api/tcpip.c ****  * LWIP_NETCONN_SEM_PER_THREAD.
 602:ThirdPackage/lwip220/api/tcpip.c ****  * If not, a semaphore is created and destroyed on every call which is usually
 603:ThirdPackage/lwip220/api/tcpip.c ****  * an expensive/slow operation.
 604:ThirdPackage/lwip220/api/tcpip.c ****  *
 605:ThirdPackage/lwip220/api/tcpip.c ****  * @param function the function to call
 606:ThirdPackage/lwip220/api/tcpip.c ****  * @param ctx parameter passed to f
 607:ThirdPackage/lwip220/api/tcpip.c ****  * @return ERR_OK if the function was called, another err_t if not
 608:ThirdPackage/lwip220/api/tcpip.c ****  */
 609:ThirdPackage/lwip220/api/tcpip.c **** err_t
 610:ThirdPackage/lwip220/api/tcpip.c **** tcpip_callback_wait(tcpip_callback_fn function, void *ctx)
 611:ThirdPackage/lwip220/api/tcpip.c **** {
 612:ThirdPackage/lwip220/api/tcpip.c **** #if LWIP_TCPIP_CORE_LOCKING
 613:ThirdPackage/lwip220/api/tcpip.c ****   LOCK_TCPIP_CORE();
 614:ThirdPackage/lwip220/api/tcpip.c ****   function(ctx);
 615:ThirdPackage/lwip220/api/tcpip.c ****   UNLOCK_TCPIP_CORE();
 616:ThirdPackage/lwip220/api/tcpip.c ****   return ERR_OK;
 617:ThirdPackage/lwip220/api/tcpip.c **** #else /* LWIP_TCPIP_CORE_LOCKING */
 618:ThirdPackage/lwip220/api/tcpip.c ****   err_t err;
 619:ThirdPackage/lwip220/api/tcpip.c ****   sys_sem_t sem;
 620:ThirdPackage/lwip220/api/tcpip.c ****   struct tcpip_msg msg;
 621:ThirdPackage/lwip220/api/tcpip.c **** 
 622:ThirdPackage/lwip220/api/tcpip.c ****   LWIP_ASSERT("Invalid mbox", sys_mbox_valid_val(tcpip_mbox));
 623:ThirdPackage/lwip220/api/tcpip.c **** 
 624:ThirdPackage/lwip220/api/tcpip.c ****   err = sys_sem_new(&sem, 0);
 625:ThirdPackage/lwip220/api/tcpip.c ****   if (err != ERR_OK) {
 626:ThirdPackage/lwip220/api/tcpip.c ****     return err;
 627:ThirdPackage/lwip220/api/tcpip.c ****   }
 628:ThirdPackage/lwip220/api/tcpip.c **** 
 629:ThirdPackage/lwip220/api/tcpip.c ****   msg.type = TCPIP_MSG_CALLBACK_STATIC_WAIT;
 630:ThirdPackage/lwip220/api/tcpip.c ****   msg.msg.cb_wait.function = function;
 631:ThirdPackage/lwip220/api/tcpip.c ****   msg.msg.cb_wait.ctx = ctx;
 632:ThirdPackage/lwip220/api/tcpip.c ****   msg.msg.cb_wait.sem = &sem;
 633:ThirdPackage/lwip220/api/tcpip.c ****   sys_mbox_post(&tcpip_mbox, &msg);
 634:ThirdPackage/lwip220/api/tcpip.c ****   sys_arch_sem_wait(&sem, 0);
 635:ThirdPackage/lwip220/api/tcpip.c ****   sys_sem_free(&sem);
 636:ThirdPackage/lwip220/api/tcpip.c ****   return ERR_OK;
 637:ThirdPackage/lwip220/api/tcpip.c **** #endif /* LWIP_TCPIP_CORE_LOCKING */
 638:ThirdPackage/lwip220/api/tcpip.c **** }
 639:ThirdPackage/lwip220/api/tcpip.c **** 
 640:ThirdPackage/lwip220/api/tcpip.c **** /**
 641:ThirdPackage/lwip220/api/tcpip.c ****  * @ingroup lwip_os
 642:ThirdPackage/lwip220/api/tcpip.c ****  * Initialize this module:
 643:ThirdPackage/lwip220/api/tcpip.c ****  * - initialize all sub modules
 644:ThirdPackage/lwip220/api/tcpip.c ****  * - start the tcpip_thread
 645:ThirdPackage/lwip220/api/tcpip.c ****  *
 646:ThirdPackage/lwip220/api/tcpip.c ****  * @param initfunc a function to call when tcpip_thread is running and finished initializing
 647:ThirdPackage/lwip220/api/tcpip.c ****  * @param arg argument to pass to initfunc
 648:ThirdPackage/lwip220/api/tcpip.c ****  */
 649:ThirdPackage/lwip220/api/tcpip.c **** void
 650:ThirdPackage/lwip220/api/tcpip.c **** tcpip_init(tcpip_init_done_fn initfunc, void *arg)
 651:ThirdPackage/lwip220/api/tcpip.c **** {
ARM GAS  C:\Users\86188\AppData\Local\Temp\ccscIxHT.s 			page 20


 652:ThirdPackage/lwip220/api/tcpip.c ****   lwip_init();
 653:ThirdPackage/lwip220/api/tcpip.c **** 
 654:ThirdPackage/lwip220/api/tcpip.c ****   tcpip_init_done = initfunc;
 655:ThirdPackage/lwip220/api/tcpip.c ****   tcpip_init_done_arg = arg;
 656:ThirdPackage/lwip220/api/tcpip.c ****   if (sys_mbox_new(&tcpip_mbox, TCPIP_MBOX_SIZE) != ERR_OK) {
 657:ThirdPackage/lwip220/api/tcpip.c ****     LWIP_ASSERT("failed to create tcpip_thread mbox", 0);
 658:ThirdPackage/lwip220/api/tcpip.c ****   }
 659:ThirdPackage/lwip220/api/tcpip.c **** #if LWIP_TCPIP_CORE_LOCKING
 660:ThirdPackage/lwip220/api/tcpip.c ****   if (sys_mutex_new(&lock_tcpip_core) != ERR_OK) {
 661:ThirdPackage/lwip220/api/tcpip.c ****     LWIP_ASSERT("failed to create lock_tcpip_core", 0);
 662:ThirdPackage/lwip220/api/tcpip.c ****   }
 663:ThirdPackage/lwip220/api/tcpip.c **** #endif /* LWIP_TCPIP_CORE_LOCKING */
 664:ThirdPackage/lwip220/api/tcpip.c **** 
 665:ThirdPackage/lwip220/api/tcpip.c ****   sys_thread_new(TCPIP_THREAD_NAME, tcpip_thread, NULL, TCPIP_THREAD_STACKSIZE, TCPIP_THREAD_PRIO);
 666:ThirdPackage/lwip220/api/tcpip.c **** }
 667:ThirdPackage/lwip220/api/tcpip.c **** 
 668:ThirdPackage/lwip220/api/tcpip.c **** /**
 669:ThirdPackage/lwip220/api/tcpip.c ****  * Simple callback function used with tcpip_callback to free a pbuf
 670:ThirdPackage/lwip220/api/tcpip.c ****  * (pbuf_free has a wrong signature for tcpip_callback)
 671:ThirdPackage/lwip220/api/tcpip.c ****  *
 672:ThirdPackage/lwip220/api/tcpip.c ****  * @param p The pbuf (chain) to be dereferenced.
 673:ThirdPackage/lwip220/api/tcpip.c ****  */
 674:ThirdPackage/lwip220/api/tcpip.c **** static void
 675:ThirdPackage/lwip220/api/tcpip.c **** pbuf_free_int(void *p)
 676:ThirdPackage/lwip220/api/tcpip.c **** {
 360              		.loc 1 676 1 view -0
 361              		.cfi_startproc
 362              		@ args = 0, pretend = 0, frame = 0
 363              		@ frame_needed = 0, uses_anonymous_args = 0
 364              		.loc 1 676 1 is_stmt 0 view .LVU93
 365 0000 08B5     		push	{r3, lr}
 366              	.LCFI4:
 367              		.cfi_def_cfa_offset 8
 368              		.cfi_offset 3, -8
 369              		.cfi_offset 14, -4
 677:ThirdPackage/lwip220/api/tcpip.c ****   struct pbuf *q = (struct pbuf *)p;
 370              		.loc 1 677 3 is_stmt 1 view .LVU94
 371              	.LVL41:
 678:ThirdPackage/lwip220/api/tcpip.c ****   pbuf_free(q);
 372              		.loc 1 678 3 view .LVU95
 373 0002 FFF7FEFF 		bl	pbuf_free
 374              	.LVL42:
 679:ThirdPackage/lwip220/api/tcpip.c **** }
 375              		.loc 1 679 1 is_stmt 0 view .LVU96
 376 0006 08BD     		pop	{r3, pc}
 377              		.cfi_endproc
 378              	.LFE175:
 380              		.section	.rodata.tcpip_inpkt.str1.4,"aMS",%progbits,1
 381              		.align	2
 382              	.LC3:
 383 0000 496E7661 		.ascii	"Invalid mbox\000"
 383      6C696420 
 383      6D626F78 
 383      00
 384              		.section	.text.tcpip_inpkt,"ax",%progbits
 385              		.align	1
 386              		.global	tcpip_inpkt
ARM GAS  C:\Users\86188\AppData\Local\Temp\ccscIxHT.s 			page 21


 387              		.syntax unified
 388              		.thumb
 389              		.thumb_func
 391              	tcpip_inpkt:
 392              	.LVL43:
 393              	.LFB163:
 246:ThirdPackage/lwip220/api/tcpip.c **** #if LWIP_TCPIP_CORE_LOCKING_INPUT
 394              		.loc 1 246 1 is_stmt 1 view -0
 395              		.cfi_startproc
 396              		@ args = 0, pretend = 0, frame = 0
 397              		@ frame_needed = 0, uses_anonymous_args = 0
 246:ThirdPackage/lwip220/api/tcpip.c **** #if LWIP_TCPIP_CORE_LOCKING_INPUT
 398              		.loc 1 246 1 is_stmt 0 view .LVU98
 399 0000 F8B5     		push	{r3, r4, r5, r6, r7, lr}
 400              	.LCFI5:
 401              		.cfi_def_cfa_offset 24
 402              		.cfi_offset 3, -24
 403              		.cfi_offset 4, -20
 404              		.cfi_offset 5, -16
 405              		.cfi_offset 6, -12
 406              		.cfi_offset 7, -8
 407              		.cfi_offset 14, -4
 408 0002 0746     		mov	r7, r0
 409 0004 0E46     		mov	r6, r1
 410 0006 1546     		mov	r5, r2
 255:ThirdPackage/lwip220/api/tcpip.c **** 
 411              		.loc 1 255 3 is_stmt 1 view .LVU99
 257:ThirdPackage/lwip220/api/tcpip.c **** 
 412              		.loc 1 257 3 view .LVU100
 257:ThirdPackage/lwip220/api/tcpip.c **** 
 413              		.loc 1 257 3 view .LVU101
 414 0008 1248     		ldr	r0, .L40
 415              	.LVL44:
 257:ThirdPackage/lwip220/api/tcpip.c **** 
 416              		.loc 1 257 3 is_stmt 0 view .LVU102
 417 000a FFF7FEFF 		bl	sys_mbox_valid
 418              	.LVL45:
 257:ThirdPackage/lwip220/api/tcpip.c **** 
 419              		.loc 1 257 3 view .LVU103
 420 000e 78B1     		cbz	r0, .L38
 421              	.L34:
 257:ThirdPackage/lwip220/api/tcpip.c **** 
 422              		.loc 1 257 3 is_stmt 1 discriminator 3 view .LVU104
 257:ThirdPackage/lwip220/api/tcpip.c **** 
 423              		.loc 1 257 3 discriminator 3 view .LVU105
 259:ThirdPackage/lwip220/api/tcpip.c ****   if (msg == NULL) {
 424              		.loc 1 259 3 discriminator 3 view .LVU106
 259:ThirdPackage/lwip220/api/tcpip.c ****   if (msg == NULL) {
 425              		.loc 1 259 29 is_stmt 0 discriminator 3 view .LVU107
 426 0010 0920     		movs	r0, #9
 427 0012 FFF7FEFF 		bl	memp_malloc
 428              	.LVL46:
 260:ThirdPackage/lwip220/api/tcpip.c ****     return ERR_MEM;
 429              		.loc 1 260 3 is_stmt 1 discriminator 3 view .LVU108
 260:ThirdPackage/lwip220/api/tcpip.c ****     return ERR_MEM;
 430              		.loc 1 260 6 is_stmt 0 discriminator 3 view .LVU109
 431 0016 0446     		mov	r4, r0
ARM GAS  C:\Users\86188\AppData\Local\Temp\ccscIxHT.s 			page 22


 432 0018 C8B1     		cbz	r0, .L36
 264:ThirdPackage/lwip220/api/tcpip.c ****   msg->msg.inp.p = p;
 433              		.loc 1 264 3 is_stmt 1 view .LVU110
 264:ThirdPackage/lwip220/api/tcpip.c ****   msg->msg.inp.p = p;
 434              		.loc 1 264 13 is_stmt 0 view .LVU111
 435 001a 0023     		movs	r3, #0
 436 001c 0370     		strb	r3, [r0]
 265:ThirdPackage/lwip220/api/tcpip.c ****   msg->msg.inp.netif = inp;
 437              		.loc 1 265 3 is_stmt 1 view .LVU112
 265:ThirdPackage/lwip220/api/tcpip.c ****   msg->msg.inp.netif = inp;
 438              		.loc 1 265 18 is_stmt 0 view .LVU113
 439 001e 4760     		str	r7, [r0, #4]
 266:ThirdPackage/lwip220/api/tcpip.c ****   msg->msg.inp.input_fn = input_fn;
 440              		.loc 1 266 3 is_stmt 1 view .LVU114
 266:ThirdPackage/lwip220/api/tcpip.c ****   msg->msg.inp.input_fn = input_fn;
 441              		.loc 1 266 22 is_stmt 0 view .LVU115
 442 0020 8660     		str	r6, [r0, #8]
 267:ThirdPackage/lwip220/api/tcpip.c ****   if (sys_mbox_trypost(&tcpip_mbox, msg) != ERR_OK) {
 443              		.loc 1 267 3 is_stmt 1 view .LVU116
 267:ThirdPackage/lwip220/api/tcpip.c ****   if (sys_mbox_trypost(&tcpip_mbox, msg) != ERR_OK) {
 444              		.loc 1 267 25 is_stmt 0 view .LVU117
 445 0022 C560     		str	r5, [r0, #12]
 268:ThirdPackage/lwip220/api/tcpip.c ****     memp_free(MEMP_TCPIP_MSG_INPKT, msg);
 446              		.loc 1 268 3 is_stmt 1 view .LVU118
 268:ThirdPackage/lwip220/api/tcpip.c ****     memp_free(MEMP_TCPIP_MSG_INPKT, msg);
 447              		.loc 1 268 7 is_stmt 0 view .LVU119
 448 0024 0146     		mov	r1, r0
 449 0026 0B48     		ldr	r0, .L40
 450              	.LVL47:
 268:ThirdPackage/lwip220/api/tcpip.c ****     memp_free(MEMP_TCPIP_MSG_INPKT, msg);
 451              		.loc 1 268 7 view .LVU120
 452 0028 FFF7FEFF 		bl	sys_mbox_trypost
 453              	.LVL48:
 268:ThirdPackage/lwip220/api/tcpip.c ****     memp_free(MEMP_TCPIP_MSG_INPKT, msg);
 454              		.loc 1 268 6 view .LVU121
 455 002c 40B9     		cbnz	r0, .L39
 456              	.L35:
 274:ThirdPackage/lwip220/api/tcpip.c **** 
 457              		.loc 1 274 1 view .LVU122
 458 002e F8BD     		pop	{r3, r4, r5, r6, r7, pc}
 459              	.LVL49:
 460              	.L38:
 257:ThirdPackage/lwip220/api/tcpip.c **** 
 461              		.loc 1 257 3 is_stmt 1 discriminator 1 view .LVU123
 257:ThirdPackage/lwip220/api/tcpip.c **** 
 462              		.loc 1 257 3 discriminator 1 view .LVU124
 463 0030 094B     		ldr	r3, .L40+4
 464 0032 40F20112 		movw	r2, #257
 465 0036 0949     		ldr	r1, .L40+8
 466 0038 0948     		ldr	r0, .L40+12
 467 003a FFF7FEFF 		bl	printf
 468              	.LVL50:
 469 003e E7E7     		b	.L34
 470              	.LVL51:
 471              	.L39:
 269:ThirdPackage/lwip220/api/tcpip.c ****     return ERR_MEM;
 472              		.loc 1 269 5 view .LVU125
ARM GAS  C:\Users\86188\AppData\Local\Temp\ccscIxHT.s 			page 23


 473 0040 2146     		mov	r1, r4
 474 0042 0920     		movs	r0, #9
 475 0044 FFF7FEFF 		bl	memp_free
 476              	.LVL52:
 270:ThirdPackage/lwip220/api/tcpip.c ****   }
 477              		.loc 1 270 5 view .LVU126
 270:ThirdPackage/lwip220/api/tcpip.c ****   }
 478              		.loc 1 270 12 is_stmt 0 view .LVU127
 479 0048 4FF0FF30 		mov	r0, #-1
 480 004c EFE7     		b	.L35
 481              	.LVL53:
 482              	.L36:
 261:ThirdPackage/lwip220/api/tcpip.c ****   }
 483              		.loc 1 261 12 view .LVU128
 484 004e 4FF0FF30 		mov	r0, #-1
 485              	.LVL54:
 261:ThirdPackage/lwip220/api/tcpip.c ****   }
 486              		.loc 1 261 12 view .LVU129
 487 0052 ECE7     		b	.L35
 488              	.L41:
 489              		.align	2
 490              	.L40:
 491 0054 00000000 		.word	.LANCHOR3
 492 0058 00000000 		.word	.LC0
 493 005c 00000000 		.word	.LC3
 494 0060 44000000 		.word	.LC2
 495              		.cfi_endproc
 496              	.LFE163:
 498              		.section	.text.tcpip_input,"ax",%progbits
 499              		.align	1
 500              		.global	tcpip_input
 501              		.syntax unified
 502              		.thumb
 503              		.thumb_func
 505              	tcpip_input:
 506              	.LVL55:
 507              	.LFB164:
 289:ThirdPackage/lwip220/api/tcpip.c **** #if LWIP_ETHERNET
 508              		.loc 1 289 1 is_stmt 1 view -0
 509              		.cfi_startproc
 510              		@ args = 0, pretend = 0, frame = 0
 511              		@ frame_needed = 0, uses_anonymous_args = 0
 289:ThirdPackage/lwip220/api/tcpip.c **** #if LWIP_ETHERNET
 512              		.loc 1 289 1 is_stmt 0 view .LVU131
 513 0000 08B5     		push	{r3, lr}
 514              	.LCFI6:
 515              		.cfi_def_cfa_offset 8
 516              		.cfi_offset 3, -8
 517              		.cfi_offset 14, -4
 291:ThirdPackage/lwip220/api/tcpip.c ****     return tcpip_inpkt(p, inp, ethernet_input);
 518              		.loc 1 291 3 is_stmt 1 view .LVU132
 291:ThirdPackage/lwip220/api/tcpip.c ****     return tcpip_inpkt(p, inp, ethernet_input);
 519              		.loc 1 291 10 is_stmt 0 view .LVU133
 520 0002 91F82D30 		ldrb	r3, [r1, #45]	@ zero_extendqisi2
 291:ThirdPackage/lwip220/api/tcpip.c ****     return tcpip_inpkt(p, inp, ethernet_input);
 521              		.loc 1 291 6 view .LVU134
 522 0006 13F0180F 		tst	r3, #24
ARM GAS  C:\Users\86188\AppData\Local\Temp\ccscIxHT.s 			page 24


 523 000a 03D0     		beq	.L43
 292:ThirdPackage/lwip220/api/tcpip.c ****   } else
 524              		.loc 1 292 5 is_stmt 1 view .LVU135
 292:ThirdPackage/lwip220/api/tcpip.c ****   } else
 525              		.loc 1 292 12 is_stmt 0 view .LVU136
 526 000c 034A     		ldr	r2, .L46
 527 000e FFF7FEFF 		bl	tcpip_inpkt
 528              	.LVL56:
 529              	.L44:
 296:ThirdPackage/lwip220/api/tcpip.c **** 
 530              		.loc 1 296 1 view .LVU137
 531 0012 08BD     		pop	{r3, pc}
 532              	.LVL57:
 533              	.L43:
 295:ThirdPackage/lwip220/api/tcpip.c **** }
 534              		.loc 1 295 5 is_stmt 1 view .LVU138
 295:ThirdPackage/lwip220/api/tcpip.c **** }
 535              		.loc 1 295 12 is_stmt 0 view .LVU139
 536 0014 024A     		ldr	r2, .L46+4
 537 0016 FFF7FEFF 		bl	tcpip_inpkt
 538              	.LVL58:
 295:ThirdPackage/lwip220/api/tcpip.c **** }
 539              		.loc 1 295 12 view .LVU140
 540 001a FAE7     		b	.L44
 541              	.L47:
 542              		.align	2
 543              	.L46:
 544 001c 00000000 		.word	ethernet_input
 545 0020 00000000 		.word	ip4_input
 546              		.cfi_endproc
 547              	.LFE164:
 549              		.section	.text.tcpip_callback,"ax",%progbits
 550              		.align	1
 551              		.global	tcpip_callback
 552              		.syntax unified
 553              		.thumb
 554              		.thumb_func
 556              	tcpip_callback:
 557              	.LVL59:
 558              	.LFB165:
 315:ThirdPackage/lwip220/api/tcpip.c ****   struct tcpip_msg *msg;
 559              		.loc 1 315 1 is_stmt 1 view -0
 560              		.cfi_startproc
 561              		@ args = 0, pretend = 0, frame = 0
 562              		@ frame_needed = 0, uses_anonymous_args = 0
 315:ThirdPackage/lwip220/api/tcpip.c ****   struct tcpip_msg *msg;
 563              		.loc 1 315 1 is_stmt 0 view .LVU142
 564 0000 38B5     		push	{r3, r4, r5, lr}
 565              	.LCFI7:
 566              		.cfi_def_cfa_offset 16
 567              		.cfi_offset 3, -16
 568              		.cfi_offset 4, -12
 569              		.cfi_offset 5, -8
 570              		.cfi_offset 14, -4
 571 0002 0546     		mov	r5, r0
 572 0004 0C46     		mov	r4, r1
 316:ThirdPackage/lwip220/api/tcpip.c **** 
ARM GAS  C:\Users\86188\AppData\Local\Temp\ccscIxHT.s 			page 25


 573              		.loc 1 316 3 is_stmt 1 view .LVU143
 318:ThirdPackage/lwip220/api/tcpip.c **** 
 574              		.loc 1 318 3 view .LVU144
 318:ThirdPackage/lwip220/api/tcpip.c **** 
 575              		.loc 1 318 3 view .LVU145
 576 0006 0E48     		ldr	r0, .L54
 577              	.LVL60:
 318:ThirdPackage/lwip220/api/tcpip.c **** 
 578              		.loc 1 318 3 is_stmt 0 view .LVU146
 579 0008 FFF7FEFF 		bl	sys_mbox_valid
 580              	.LVL61:
 318:ThirdPackage/lwip220/api/tcpip.c **** 
 581              		.loc 1 318 3 view .LVU147
 582 000c 68B1     		cbz	r0, .L53
 583              	.L49:
 318:ThirdPackage/lwip220/api/tcpip.c **** 
 584              		.loc 1 318 3 is_stmt 1 discriminator 3 view .LVU148
 318:ThirdPackage/lwip220/api/tcpip.c **** 
 585              		.loc 1 318 3 discriminator 3 view .LVU149
 320:ThirdPackage/lwip220/api/tcpip.c ****   if (msg == NULL) {
 586              		.loc 1 320 3 discriminator 3 view .LVU150
 320:ThirdPackage/lwip220/api/tcpip.c ****   if (msg == NULL) {
 587              		.loc 1 320 29 is_stmt 0 discriminator 3 view .LVU151
 588 000e 0820     		movs	r0, #8
 589 0010 FFF7FEFF 		bl	memp_malloc
 590              	.LVL62:
 321:ThirdPackage/lwip220/api/tcpip.c ****     return ERR_MEM;
 591              		.loc 1 321 3 is_stmt 1 discriminator 3 view .LVU152
 321:ThirdPackage/lwip220/api/tcpip.c ****     return ERR_MEM;
 592              		.loc 1 321 6 is_stmt 0 discriminator 3 view .LVU153
 593 0014 0146     		mov	r1, r0
 594 0016 80B1     		cbz	r0, .L51
 325:ThirdPackage/lwip220/api/tcpip.c ****   msg->msg.cb.function = function;
 595              		.loc 1 325 3 is_stmt 1 view .LVU154
 325:ThirdPackage/lwip220/api/tcpip.c ****   msg->msg.cb.function = function;
 596              		.loc 1 325 13 is_stmt 0 view .LVU155
 597 0018 0123     		movs	r3, #1
 598 001a 0370     		strb	r3, [r0]
 326:ThirdPackage/lwip220/api/tcpip.c ****   msg->msg.cb.ctx = ctx;
 599              		.loc 1 326 3 is_stmt 1 view .LVU156
 326:ThirdPackage/lwip220/api/tcpip.c ****   msg->msg.cb.ctx = ctx;
 600              		.loc 1 326 24 is_stmt 0 view .LVU157
 601 001c 4560     		str	r5, [r0, #4]
 327:ThirdPackage/lwip220/api/tcpip.c **** 
 602              		.loc 1 327 3 is_stmt 1 view .LVU158
 327:ThirdPackage/lwip220/api/tcpip.c **** 
 603              		.loc 1 327 19 is_stmt 0 view .LVU159
 604 001e 8460     		str	r4, [r0, #8]
 329:ThirdPackage/lwip220/api/tcpip.c ****   return ERR_OK;
 605              		.loc 1 329 3 is_stmt 1 view .LVU160
 606 0020 0748     		ldr	r0, .L54
 607              	.LVL63:
 329:ThirdPackage/lwip220/api/tcpip.c ****   return ERR_OK;
 608              		.loc 1 329 3 is_stmt 0 view .LVU161
 609 0022 FFF7FEFF 		bl	sys_mbox_post
 610              	.LVL64:
 330:ThirdPackage/lwip220/api/tcpip.c **** }
ARM GAS  C:\Users\86188\AppData\Local\Temp\ccscIxHT.s 			page 26


 611              		.loc 1 330 3 is_stmt 1 view .LVU162
 330:ThirdPackage/lwip220/api/tcpip.c **** }
 612              		.loc 1 330 10 is_stmt 0 view .LVU163
 613 0026 0020     		movs	r0, #0
 614              	.L50:
 331:ThirdPackage/lwip220/api/tcpip.c **** 
 615              		.loc 1 331 1 view .LVU164
 616 0028 38BD     		pop	{r3, r4, r5, pc}
 617              	.LVL65:
 618              	.L53:
 318:ThirdPackage/lwip220/api/tcpip.c **** 
 619              		.loc 1 318 3 is_stmt 1 discriminator 1 view .LVU165
 318:ThirdPackage/lwip220/api/tcpip.c **** 
 620              		.loc 1 318 3 discriminator 1 view .LVU166
 621 002a 064B     		ldr	r3, .L54+4
 622 002c 4FF49F72 		mov	r2, #318
 623 0030 0549     		ldr	r1, .L54+8
 624 0032 0648     		ldr	r0, .L54+12
 625 0034 FFF7FEFF 		bl	printf
 626              	.LVL66:
 627 0038 E9E7     		b	.L49
 628              	.LVL67:
 629              	.L51:
 322:ThirdPackage/lwip220/api/tcpip.c ****   }
 630              		.loc 1 322 12 is_stmt 0 view .LVU167
 631 003a 4FF0FF30 		mov	r0, #-1
 632              	.LVL68:
 322:ThirdPackage/lwip220/api/tcpip.c ****   }
 633              		.loc 1 322 12 view .LVU168
 634 003e F3E7     		b	.L50
 635              	.L55:
 636              		.align	2
 637              	.L54:
 638 0040 00000000 		.word	.LANCHOR3
 639 0044 00000000 		.word	.LC0
 640 0048 00000000 		.word	.LC3
 641 004c 44000000 		.word	.LC2
 642              		.cfi_endproc
 643              	.LFE165:
 645              		.section	.text.tcpip_try_callback,"ax",%progbits
 646              		.align	1
 647              		.global	tcpip_try_callback
 648              		.syntax unified
 649              		.thumb
 650              		.thumb_func
 652              	tcpip_try_callback:
 653              	.LVL69:
 654              	.LFB166:
 351:ThirdPackage/lwip220/api/tcpip.c ****   struct tcpip_msg *msg;
 655              		.loc 1 351 1 is_stmt 1 view -0
 656              		.cfi_startproc
 657              		@ args = 0, pretend = 0, frame = 0
 658              		@ frame_needed = 0, uses_anonymous_args = 0
 351:ThirdPackage/lwip220/api/tcpip.c ****   struct tcpip_msg *msg;
 659              		.loc 1 351 1 is_stmt 0 view .LVU170
 660 0000 70B5     		push	{r4, r5, r6, lr}
 661              	.LCFI8:
ARM GAS  C:\Users\86188\AppData\Local\Temp\ccscIxHT.s 			page 27


 662              		.cfi_def_cfa_offset 16
 663              		.cfi_offset 4, -16
 664              		.cfi_offset 5, -12
 665              		.cfi_offset 6, -8
 666              		.cfi_offset 14, -4
 667 0002 0646     		mov	r6, r0
 668 0004 0D46     		mov	r5, r1
 352:ThirdPackage/lwip220/api/tcpip.c **** 
 669              		.loc 1 352 3 is_stmt 1 view .LVU171
 354:ThirdPackage/lwip220/api/tcpip.c **** 
 670              		.loc 1 354 3 view .LVU172
 354:ThirdPackage/lwip220/api/tcpip.c **** 
 671              		.loc 1 354 3 view .LVU173
 672 0006 1248     		ldr	r0, .L63
 673              	.LVL70:
 354:ThirdPackage/lwip220/api/tcpip.c **** 
 674              		.loc 1 354 3 is_stmt 0 view .LVU174
 675 0008 FFF7FEFF 		bl	sys_mbox_valid
 676              	.LVL71:
 354:ThirdPackage/lwip220/api/tcpip.c **** 
 677              		.loc 1 354 3 view .LVU175
 678 000c 70B1     		cbz	r0, .L61
 679              	.L57:
 354:ThirdPackage/lwip220/api/tcpip.c **** 
 680              		.loc 1 354 3 is_stmt 1 discriminator 3 view .LVU176
 354:ThirdPackage/lwip220/api/tcpip.c **** 
 681              		.loc 1 354 3 discriminator 3 view .LVU177
 356:ThirdPackage/lwip220/api/tcpip.c ****   if (msg == NULL) {
 682              		.loc 1 356 3 discriminator 3 view .LVU178
 356:ThirdPackage/lwip220/api/tcpip.c ****   if (msg == NULL) {
 683              		.loc 1 356 29 is_stmt 0 discriminator 3 view .LVU179
 684 000e 0820     		movs	r0, #8
 685 0010 FFF7FEFF 		bl	memp_malloc
 686              	.LVL72:
 357:ThirdPackage/lwip220/api/tcpip.c ****     return ERR_MEM;
 687              		.loc 1 357 3 is_stmt 1 discriminator 3 view .LVU180
 357:ThirdPackage/lwip220/api/tcpip.c ****     return ERR_MEM;
 688              		.loc 1 357 6 is_stmt 0 discriminator 3 view .LVU181
 689 0014 0446     		mov	r4, r0
 690 0016 C0B1     		cbz	r0, .L59
 361:ThirdPackage/lwip220/api/tcpip.c ****   msg->msg.cb.function = function;
 691              		.loc 1 361 3 is_stmt 1 view .LVU182
 361:ThirdPackage/lwip220/api/tcpip.c ****   msg->msg.cb.function = function;
 692              		.loc 1 361 13 is_stmt 0 view .LVU183
 693 0018 0123     		movs	r3, #1
 694 001a 0370     		strb	r3, [r0]
 362:ThirdPackage/lwip220/api/tcpip.c ****   msg->msg.cb.ctx = ctx;
 695              		.loc 1 362 3 is_stmt 1 view .LVU184
 362:ThirdPackage/lwip220/api/tcpip.c ****   msg->msg.cb.ctx = ctx;
 696              		.loc 1 362 24 is_stmt 0 view .LVU185
 697 001c 4660     		str	r6, [r0, #4]
 363:ThirdPackage/lwip220/api/tcpip.c **** 
 698              		.loc 1 363 3 is_stmt 1 view .LVU186
 363:ThirdPackage/lwip220/api/tcpip.c **** 
 699              		.loc 1 363 19 is_stmt 0 view .LVU187
 700 001e 8560     		str	r5, [r0, #8]
 365:ThirdPackage/lwip220/api/tcpip.c ****     memp_free(MEMP_TCPIP_MSG_API, msg);
ARM GAS  C:\Users\86188\AppData\Local\Temp\ccscIxHT.s 			page 28


 701              		.loc 1 365 3 is_stmt 1 view .LVU188
 365:ThirdPackage/lwip220/api/tcpip.c ****     memp_free(MEMP_TCPIP_MSG_API, msg);
 702              		.loc 1 365 7 is_stmt 0 view .LVU189
 703 0020 0146     		mov	r1, r0
 704 0022 0B48     		ldr	r0, .L63
 705              	.LVL73:
 365:ThirdPackage/lwip220/api/tcpip.c ****     memp_free(MEMP_TCPIP_MSG_API, msg);
 706              		.loc 1 365 7 view .LVU190
 707 0024 FFF7FEFF 		bl	sys_mbox_trypost
 708              	.LVL74:
 365:ThirdPackage/lwip220/api/tcpip.c ****     memp_free(MEMP_TCPIP_MSG_API, msg);
 709              		.loc 1 365 6 view .LVU191
 710 0028 40B9     		cbnz	r0, .L62
 711              	.L58:
 370:ThirdPackage/lwip220/api/tcpip.c **** 
 712              		.loc 1 370 1 view .LVU192
 713 002a 70BD     		pop	{r4, r5, r6, pc}
 714              	.LVL75:
 715              	.L61:
 354:ThirdPackage/lwip220/api/tcpip.c **** 
 716              		.loc 1 354 3 is_stmt 1 discriminator 1 view .LVU193
 354:ThirdPackage/lwip220/api/tcpip.c **** 
 717              		.loc 1 354 3 discriminator 1 view .LVU194
 718 002c 094B     		ldr	r3, .L63+4
 719 002e 4FF4B172 		mov	r2, #354
 720 0032 0949     		ldr	r1, .L63+8
 721 0034 0948     		ldr	r0, .L63+12
 722 0036 FFF7FEFF 		bl	printf
 723              	.LVL76:
 724 003a E8E7     		b	.L57
 725              	.LVL77:
 726              	.L62:
 366:ThirdPackage/lwip220/api/tcpip.c ****     return ERR_MEM;
 727              		.loc 1 366 5 view .LVU195
 728 003c 2146     		mov	r1, r4
 729 003e 0820     		movs	r0, #8
 730 0040 FFF7FEFF 		bl	memp_free
 731              	.LVL78:
 367:ThirdPackage/lwip220/api/tcpip.c ****   }
 732              		.loc 1 367 5 view .LVU196
 367:ThirdPackage/lwip220/api/tcpip.c ****   }
 733              		.loc 1 367 12 is_stmt 0 view .LVU197
 734 0044 4FF0FF30 		mov	r0, #-1
 735 0048 EFE7     		b	.L58
 736              	.LVL79:
 737              	.L59:
 358:ThirdPackage/lwip220/api/tcpip.c ****   }
 738              		.loc 1 358 12 view .LVU198
 739 004a 4FF0FF30 		mov	r0, #-1
 740              	.LVL80:
 358:ThirdPackage/lwip220/api/tcpip.c ****   }
 741              		.loc 1 358 12 view .LVU199
 742 004e ECE7     		b	.L58
 743              	.L64:
 744              		.align	2
 745              	.L63:
 746 0050 00000000 		.word	.LANCHOR3
ARM GAS  C:\Users\86188\AppData\Local\Temp\ccscIxHT.s 			page 29


 747 0054 00000000 		.word	.LC0
 748 0058 00000000 		.word	.LC3
 749 005c 44000000 		.word	.LC2
 750              		.cfi_endproc
 751              	.LFE166:
 753              		.section	.text.tcpip_send_msg_wait_sem,"ax",%progbits
 754              		.align	1
 755              		.global	tcpip_send_msg_wait_sem
 756              		.syntax unified
 757              		.thumb
 758              		.thumb_func
 760              	tcpip_send_msg_wait_sem:
 761              	.LVL81:
 762              	.LFB167:
 443:ThirdPackage/lwip220/api/tcpip.c **** #if LWIP_TCPIP_CORE_LOCKING
 763              		.loc 1 443 1 is_stmt 1 view -0
 764              		.cfi_startproc
 765              		@ args = 0, pretend = 0, frame = 0
 766              		@ frame_needed = 0, uses_anonymous_args = 0
 443:ThirdPackage/lwip220/api/tcpip.c **** #if LWIP_TCPIP_CORE_LOCKING
 767              		.loc 1 443 1 is_stmt 0 view .LVU201
 768 0000 70B5     		push	{r4, r5, r6, lr}
 769              	.LCFI9:
 770              		.cfi_def_cfa_offset 16
 771              		.cfi_offset 4, -16
 772              		.cfi_offset 5, -12
 773              		.cfi_offset 6, -8
 774              		.cfi_offset 14, -4
 775 0002 0446     		mov	r4, r0
 776 0004 0D46     		mov	r5, r1
 445:ThirdPackage/lwip220/api/tcpip.c ****   LOCK_TCPIP_CORE();
 777              		.loc 1 445 3 is_stmt 1 view .LVU202
 446:ThirdPackage/lwip220/api/tcpip.c ****   fn(apimsg);
 778              		.loc 1 446 3 view .LVU203
 779 0006 054E     		ldr	r6, .L67
 780 0008 3046     		mov	r0, r6
 781              	.LVL82:
 446:ThirdPackage/lwip220/api/tcpip.c ****   fn(apimsg);
 782              		.loc 1 446 3 is_stmt 0 view .LVU204
 783 000a FFF7FEFF 		bl	sys_mutex_lock
 784              	.LVL83:
 447:ThirdPackage/lwip220/api/tcpip.c ****   UNLOCK_TCPIP_CORE();
 785              		.loc 1 447 3 is_stmt 1 view .LVU205
 786 000e 2846     		mov	r0, r5
 787 0010 A047     		blx	r4
 788              	.LVL84:
 448:ThirdPackage/lwip220/api/tcpip.c ****   return ERR_OK;
 789              		.loc 1 448 3 view .LVU206
 790 0012 3046     		mov	r0, r6
 791 0014 FFF7FEFF 		bl	sys_mutex_unlock
 792              	.LVL85:
 449:ThirdPackage/lwip220/api/tcpip.c **** #else /* LWIP_TCPIP_CORE_LOCKING */
 793              		.loc 1 449 3 view .LVU207
 465:ThirdPackage/lwip220/api/tcpip.c **** 
 794              		.loc 1 465 1 is_stmt 0 view .LVU208
 795 0018 0020     		movs	r0, #0
 796 001a 70BD     		pop	{r4, r5, r6, pc}
ARM GAS  C:\Users\86188\AppData\Local\Temp\ccscIxHT.s 			page 30


 797              	.LVL86:
 798              	.L68:
 465:ThirdPackage/lwip220/api/tcpip.c **** 
 799              		.loc 1 465 1 view .LVU209
 800              		.align	2
 801              	.L67:
 802 001c 00000000 		.word	.LANCHOR0
 803              		.cfi_endproc
 804              	.LFE167:
 806              		.section	.text.tcpip_api_call,"ax",%progbits
 807              		.align	1
 808              		.global	tcpip_api_call
 809              		.syntax unified
 810              		.thumb
 811              		.thumb_func
 813              	tcpip_api_call:
 814              	.LVL87:
 815              	.LFB168:
 479:ThirdPackage/lwip220/api/tcpip.c **** #if LWIP_TCPIP_CORE_LOCKING
 816              		.loc 1 479 1 is_stmt 1 view -0
 817              		.cfi_startproc
 818              		@ args = 0, pretend = 0, frame = 0
 819              		@ frame_needed = 0, uses_anonymous_args = 0
 479:ThirdPackage/lwip220/api/tcpip.c **** #if LWIP_TCPIP_CORE_LOCKING
 820              		.loc 1 479 1 is_stmt 0 view .LVU211
 821 0000 70B5     		push	{r4, r5, r6, lr}
 822              	.LCFI10:
 823              		.cfi_def_cfa_offset 16
 824              		.cfi_offset 4, -16
 825              		.cfi_offset 5, -12
 826              		.cfi_offset 6, -8
 827              		.cfi_offset 14, -4
 828 0002 0446     		mov	r4, r0
 829 0004 0D46     		mov	r5, r1
 481:ThirdPackage/lwip220/api/tcpip.c ****   LOCK_TCPIP_CORE();
 830              		.loc 1 481 3 is_stmt 1 view .LVU212
 482:ThirdPackage/lwip220/api/tcpip.c ****   err = fn(call);
 831              		.loc 1 482 3 view .LVU213
 832 0006 064E     		ldr	r6, .L71
 833 0008 3046     		mov	r0, r6
 834              	.LVL88:
 482:ThirdPackage/lwip220/api/tcpip.c ****   err = fn(call);
 835              		.loc 1 482 3 is_stmt 0 view .LVU214
 836 000a FFF7FEFF 		bl	sys_mutex_lock
 837              	.LVL89:
 483:ThirdPackage/lwip220/api/tcpip.c ****   UNLOCK_TCPIP_CORE();
 838              		.loc 1 483 3 is_stmt 1 view .LVU215
 483:ThirdPackage/lwip220/api/tcpip.c ****   UNLOCK_TCPIP_CORE();
 839              		.loc 1 483 9 is_stmt 0 view .LVU216
 840 000e 2846     		mov	r0, r5
 841 0010 A047     		blx	r4
 842              	.LVL90:
 843 0012 0446     		mov	r4, r0
 844              	.LVL91:
 484:ThirdPackage/lwip220/api/tcpip.c ****   return err;
 845              		.loc 1 484 3 is_stmt 1 view .LVU217
 846 0014 3046     		mov	r0, r6
ARM GAS  C:\Users\86188\AppData\Local\Temp\ccscIxHT.s 			page 31


 847 0016 FFF7FEFF 		bl	sys_mutex_unlock
 848              	.LVL92:
 485:ThirdPackage/lwip220/api/tcpip.c **** #else /* LWIP_TCPIP_CORE_LOCKING */
 849              		.loc 1 485 3 view .LVU218
 517:ThirdPackage/lwip220/api/tcpip.c **** 
 850              		.loc 1 517 1 is_stmt 0 view .LVU219
 851 001a 2046     		mov	r0, r4
 852 001c 70BD     		pop	{r4, r5, r6, pc}
 853              	.LVL93:
 854              	.L72:
 517:ThirdPackage/lwip220/api/tcpip.c **** 
 855              		.loc 1 517 1 view .LVU220
 856 001e 00BF     		.align	2
 857              	.L71:
 858 0020 00000000 		.word	.LANCHOR0
 859              		.cfi_endproc
 860              	.LFE168:
 862              		.section	.text.tcpip_callbackmsg_new,"ax",%progbits
 863              		.align	1
 864              		.global	tcpip_callbackmsg_new
 865              		.syntax unified
 866              		.thumb
 867              		.thumb_func
 869              	tcpip_callbackmsg_new:
 870              	.LVL94:
 871              	.LFB169:
 537:ThirdPackage/lwip220/api/tcpip.c ****   struct tcpip_msg *msg = (struct tcpip_msg *)memp_malloc(MEMP_TCPIP_MSG_API);
 872              		.loc 1 537 1 is_stmt 1 view -0
 873              		.cfi_startproc
 874              		@ args = 0, pretend = 0, frame = 0
 875              		@ frame_needed = 0, uses_anonymous_args = 0
 537:ThirdPackage/lwip220/api/tcpip.c ****   struct tcpip_msg *msg = (struct tcpip_msg *)memp_malloc(MEMP_TCPIP_MSG_API);
 876              		.loc 1 537 1 is_stmt 0 view .LVU222
 877 0000 38B5     		push	{r3, r4, r5, lr}
 878              	.LCFI11:
 879              		.cfi_def_cfa_offset 16
 880              		.cfi_offset 3, -16
 881              		.cfi_offset 4, -12
 882              		.cfi_offset 5, -8
 883              		.cfi_offset 14, -4
 884 0002 0546     		mov	r5, r0
 885 0004 0C46     		mov	r4, r1
 538:ThirdPackage/lwip220/api/tcpip.c ****   if (msg == NULL) {
 886              		.loc 1 538 3 is_stmt 1 view .LVU223
 538:ThirdPackage/lwip220/api/tcpip.c ****   if (msg == NULL) {
 887              		.loc 1 538 47 is_stmt 0 view .LVU224
 888 0006 0820     		movs	r0, #8
 889              	.LVL95:
 538:ThirdPackage/lwip220/api/tcpip.c ****   if (msg == NULL) {
 890              		.loc 1 538 47 view .LVU225
 891 0008 FFF7FEFF 		bl	memp_malloc
 892              	.LVL96:
 539:ThirdPackage/lwip220/api/tcpip.c ****     return NULL;
 893              		.loc 1 539 3 is_stmt 1 view .LVU226
 539:ThirdPackage/lwip220/api/tcpip.c ****     return NULL;
 894              		.loc 1 539 6 is_stmt 0 view .LVU227
 895 000c 0346     		mov	r3, r0
ARM GAS  C:\Users\86188\AppData\Local\Temp\ccscIxHT.s 			page 32


 896 000e 18B1     		cbz	r0, .L73
 542:ThirdPackage/lwip220/api/tcpip.c ****   msg->msg.cb.function = function;
 897              		.loc 1 542 3 is_stmt 1 view .LVU228
 542:ThirdPackage/lwip220/api/tcpip.c ****   msg->msg.cb.function = function;
 898              		.loc 1 542 13 is_stmt 0 view .LVU229
 899 0010 0222     		movs	r2, #2
 900 0012 0270     		strb	r2, [r0]
 543:ThirdPackage/lwip220/api/tcpip.c ****   msg->msg.cb.ctx = ctx;
 901              		.loc 1 543 3 is_stmt 1 view .LVU230
 543:ThirdPackage/lwip220/api/tcpip.c ****   msg->msg.cb.ctx = ctx;
 902              		.loc 1 543 24 is_stmt 0 view .LVU231
 903 0014 4560     		str	r5, [r0, #4]
 544:ThirdPackage/lwip220/api/tcpip.c ****   return (struct tcpip_callback_msg *)msg;
 904              		.loc 1 544 3 is_stmt 1 view .LVU232
 544:ThirdPackage/lwip220/api/tcpip.c ****   return (struct tcpip_callback_msg *)msg;
 905              		.loc 1 544 19 is_stmt 0 view .LVU233
 906 0016 8460     		str	r4, [r0, #8]
 545:ThirdPackage/lwip220/api/tcpip.c **** }
 907              		.loc 1 545 3 is_stmt 1 view .LVU234
 908              	.L73:
 546:ThirdPackage/lwip220/api/tcpip.c **** 
 909              		.loc 1 546 1 is_stmt 0 view .LVU235
 910 0018 1846     		mov	r0, r3
 911              	.LVL97:
 546:ThirdPackage/lwip220/api/tcpip.c **** 
 912              		.loc 1 546 1 view .LVU236
 913 001a 38BD     		pop	{r3, r4, r5, pc}
 546:ThirdPackage/lwip220/api/tcpip.c **** 
 914              		.loc 1 546 1 view .LVU237
 915              		.cfi_endproc
 916              	.LFE169:
 918              		.section	.text.tcpip_callbackmsg_delete,"ax",%progbits
 919              		.align	1
 920              		.global	tcpip_callbackmsg_delete
 921              		.syntax unified
 922              		.thumb
 923              		.thumb_func
 925              	tcpip_callbackmsg_delete:
 926              	.LVL98:
 927              	.LFB170:
 558:ThirdPackage/lwip220/api/tcpip.c ****   memp_free(MEMP_TCPIP_MSG_API, msg);
 928              		.loc 1 558 1 is_stmt 1 view -0
 929              		.cfi_startproc
 930              		@ args = 0, pretend = 0, frame = 0
 931              		@ frame_needed = 0, uses_anonymous_args = 0
 558:ThirdPackage/lwip220/api/tcpip.c ****   memp_free(MEMP_TCPIP_MSG_API, msg);
 932              		.loc 1 558 1 is_stmt 0 view .LVU239
 933 0000 08B5     		push	{r3, lr}
 934              	.LCFI12:
 935              		.cfi_def_cfa_offset 8
 936              		.cfi_offset 3, -8
 937              		.cfi_offset 14, -4
 938 0002 0146     		mov	r1, r0
 559:ThirdPackage/lwip220/api/tcpip.c **** }
 939              		.loc 1 559 3 is_stmt 1 view .LVU240
 940 0004 0820     		movs	r0, #8
 941              	.LVL99:
ARM GAS  C:\Users\86188\AppData\Local\Temp\ccscIxHT.s 			page 33


 559:ThirdPackage/lwip220/api/tcpip.c **** }
 942              		.loc 1 559 3 is_stmt 0 view .LVU241
 943 0006 FFF7FEFF 		bl	memp_free
 944              	.LVL100:
 560:ThirdPackage/lwip220/api/tcpip.c **** 
 945              		.loc 1 560 1 view .LVU242
 946 000a 08BD     		pop	{r3, pc}
 947              		.cfi_endproc
 948              	.LFE170:
 950              		.section	.text.tcpip_callbackmsg_trycallback,"ax",%progbits
 951              		.align	1
 952              		.global	tcpip_callbackmsg_trycallback
 953              		.syntax unified
 954              		.thumb
 955              		.thumb_func
 957              	tcpip_callbackmsg_trycallback:
 958              	.LVL101:
 959              	.LFB171:
 573:ThirdPackage/lwip220/api/tcpip.c ****   LWIP_ASSERT("Invalid mbox", sys_mbox_valid_val(tcpip_mbox));
 960              		.loc 1 573 1 is_stmt 1 view -0
 961              		.cfi_startproc
 962              		@ args = 0, pretend = 0, frame = 0
 963              		@ frame_needed = 0, uses_anonymous_args = 0
 573:ThirdPackage/lwip220/api/tcpip.c ****   LWIP_ASSERT("Invalid mbox", sys_mbox_valid_val(tcpip_mbox));
 964              		.loc 1 573 1 is_stmt 0 view .LVU244
 965 0000 10B5     		push	{r4, lr}
 966              	.LCFI13:
 967              		.cfi_def_cfa_offset 8
 968              		.cfi_offset 4, -8
 969              		.cfi_offset 14, -4
 970 0002 0446     		mov	r4, r0
 574:ThirdPackage/lwip220/api/tcpip.c ****   return sys_mbox_trypost(&tcpip_mbox, msg);
 971              		.loc 1 574 3 is_stmt 1 view .LVU245
 574:ThirdPackage/lwip220/api/tcpip.c ****   return sys_mbox_trypost(&tcpip_mbox, msg);
 972              		.loc 1 574 3 view .LVU246
 973 0004 0848     		ldr	r0, .L82
 974              	.LVL102:
 574:ThirdPackage/lwip220/api/tcpip.c ****   return sys_mbox_trypost(&tcpip_mbox, msg);
 975              		.loc 1 574 3 is_stmt 0 view .LVU247
 976 0006 FFF7FEFF 		bl	sys_mbox_valid
 977              	.LVL103:
 978 000a 20B1     		cbz	r0, .L81
 979              	.L79:
 574:ThirdPackage/lwip220/api/tcpip.c ****   return sys_mbox_trypost(&tcpip_mbox, msg);
 980              		.loc 1 574 3 is_stmt 1 discriminator 3 view .LVU248
 574:ThirdPackage/lwip220/api/tcpip.c ****   return sys_mbox_trypost(&tcpip_mbox, msg);
 981              		.loc 1 574 3 discriminator 3 view .LVU249
 575:ThirdPackage/lwip220/api/tcpip.c **** }
 982              		.loc 1 575 3 discriminator 3 view .LVU250
 575:ThirdPackage/lwip220/api/tcpip.c **** }
 983              		.loc 1 575 10 is_stmt 0 discriminator 3 view .LVU251
 984 000c 2146     		mov	r1, r4
 985 000e 0648     		ldr	r0, .L82
 986 0010 FFF7FEFF 		bl	sys_mbox_trypost
 987              	.LVL104:
 576:ThirdPackage/lwip220/api/tcpip.c **** 
 988              		.loc 1 576 1 discriminator 3 view .LVU252
ARM GAS  C:\Users\86188\AppData\Local\Temp\ccscIxHT.s 			page 34


 989 0014 10BD     		pop	{r4, pc}
 990              	.LVL105:
 991              	.L81:
 574:ThirdPackage/lwip220/api/tcpip.c ****   return sys_mbox_trypost(&tcpip_mbox, msg);
 992              		.loc 1 574 3 is_stmt 1 discriminator 1 view .LVU253
 574:ThirdPackage/lwip220/api/tcpip.c ****   return sys_mbox_trypost(&tcpip_mbox, msg);
 993              		.loc 1 574 3 discriminator 1 view .LVU254
 994 0016 054B     		ldr	r3, .L82+4
 995 0018 40F23E22 		movw	r2, #574
 996 001c 0449     		ldr	r1, .L82+8
 997 001e 0548     		ldr	r0, .L82+12
 998 0020 FFF7FEFF 		bl	printf
 999              	.LVL106:
 1000 0024 F2E7     		b	.L79
 1001              	.L83:
 1002 0026 00BF     		.align	2
 1003              	.L82:
 1004 0028 00000000 		.word	.LANCHOR3
 1005 002c 00000000 		.word	.LC0
 1006 0030 00000000 		.word	.LC3
 1007 0034 44000000 		.word	.LC2
 1008              		.cfi_endproc
 1009              	.LFE171:
 1011              		.section	.text.tcpip_callbackmsg_trycallback_fromisr,"ax",%progbits
 1012              		.align	1
 1013              		.global	tcpip_callbackmsg_trycallback_fromisr
 1014              		.syntax unified
 1015              		.thumb
 1016              		.thumb_func
 1018              	tcpip_callbackmsg_trycallback_fromisr:
 1019              	.LVL107:
 1020              	.LFB172:
 592:ThirdPackage/lwip220/api/tcpip.c ****   LWIP_ASSERT("Invalid mbox", sys_mbox_valid_val(tcpip_mbox));
 1021              		.loc 1 592 1 view -0
 1022              		.cfi_startproc
 1023              		@ args = 0, pretend = 0, frame = 0
 1024              		@ frame_needed = 0, uses_anonymous_args = 0
 592:ThirdPackage/lwip220/api/tcpip.c ****   LWIP_ASSERT("Invalid mbox", sys_mbox_valid_val(tcpip_mbox));
 1025              		.loc 1 592 1 is_stmt 0 view .LVU256
 1026 0000 10B5     		push	{r4, lr}
 1027              	.LCFI14:
 1028              		.cfi_def_cfa_offset 8
 1029              		.cfi_offset 4, -8
 1030              		.cfi_offset 14, -4
 1031 0002 0446     		mov	r4, r0
 593:ThirdPackage/lwip220/api/tcpip.c ****   return sys_mbox_trypost_fromisr(&tcpip_mbox, msg);
 1032              		.loc 1 593 3 is_stmt 1 view .LVU257
 593:ThirdPackage/lwip220/api/tcpip.c ****   return sys_mbox_trypost_fromisr(&tcpip_mbox, msg);
 1033              		.loc 1 593 3 view .LVU258
 1034 0004 0848     		ldr	r0, .L88
 1035              	.LVL108:
 593:ThirdPackage/lwip220/api/tcpip.c ****   return sys_mbox_trypost_fromisr(&tcpip_mbox, msg);
 1036              		.loc 1 593 3 is_stmt 0 view .LVU259
 1037 0006 FFF7FEFF 		bl	sys_mbox_valid
 1038              	.LVL109:
 1039 000a 20B1     		cbz	r0, .L87
 1040              	.L85:
ARM GAS  C:\Users\86188\AppData\Local\Temp\ccscIxHT.s 			page 35


 593:ThirdPackage/lwip220/api/tcpip.c ****   return sys_mbox_trypost_fromisr(&tcpip_mbox, msg);
 1041              		.loc 1 593 3 is_stmt 1 discriminator 3 view .LVU260
 593:ThirdPackage/lwip220/api/tcpip.c ****   return sys_mbox_trypost_fromisr(&tcpip_mbox, msg);
 1042              		.loc 1 593 3 discriminator 3 view .LVU261
 594:ThirdPackage/lwip220/api/tcpip.c **** }
 1043              		.loc 1 594 3 discriminator 3 view .LVU262
 594:ThirdPackage/lwip220/api/tcpip.c **** }
 1044              		.loc 1 594 10 is_stmt 0 discriminator 3 view .LVU263
 1045 000c 2146     		mov	r1, r4
 1046 000e 0648     		ldr	r0, .L88
 1047 0010 FFF7FEFF 		bl	sys_mbox_trypost_fromisr
 1048              	.LVL110:
 595:ThirdPackage/lwip220/api/tcpip.c **** 
 1049              		.loc 1 595 1 discriminator 3 view .LVU264
 1050 0014 10BD     		pop	{r4, pc}
 1051              	.LVL111:
 1052              	.L87:
 593:ThirdPackage/lwip220/api/tcpip.c ****   return sys_mbox_trypost_fromisr(&tcpip_mbox, msg);
 1053              		.loc 1 593 3 is_stmt 1 discriminator 1 view .LVU265
 593:ThirdPackage/lwip220/api/tcpip.c ****   return sys_mbox_trypost_fromisr(&tcpip_mbox, msg);
 1054              		.loc 1 593 3 discriminator 1 view .LVU266
 1055 0016 054B     		ldr	r3, .L88+4
 1056 0018 40F25122 		movw	r2, #593
 1057 001c 0449     		ldr	r1, .L88+8
 1058 001e 0548     		ldr	r0, .L88+12
 1059 0020 FFF7FEFF 		bl	printf
 1060              	.LVL112:
 1061 0024 F2E7     		b	.L85
 1062              	.L89:
 1063 0026 00BF     		.align	2
 1064              	.L88:
 1065 0028 00000000 		.word	.LANCHOR3
 1066 002c 00000000 		.word	.LC0
 1067 0030 00000000 		.word	.LC3
 1068 0034 44000000 		.word	.LC2
 1069              		.cfi_endproc
 1070              	.LFE172:
 1072              		.section	.text.tcpip_callback_wait,"ax",%progbits
 1073              		.align	1
 1074              		.global	tcpip_callback_wait
 1075              		.syntax unified
 1076              		.thumb
 1077              		.thumb_func
 1079              	tcpip_callback_wait:
 1080              	.LVL113:
 1081              	.LFB173:
 611:ThirdPackage/lwip220/api/tcpip.c **** #if LWIP_TCPIP_CORE_LOCKING
 1082              		.loc 1 611 1 view -0
 1083              		.cfi_startproc
 1084              		@ args = 0, pretend = 0, frame = 0
 1085              		@ frame_needed = 0, uses_anonymous_args = 0
 611:ThirdPackage/lwip220/api/tcpip.c **** #if LWIP_TCPIP_CORE_LOCKING
 1086              		.loc 1 611 1 is_stmt 0 view .LVU268
 1087 0000 70B5     		push	{r4, r5, r6, lr}
 1088              	.LCFI15:
 1089              		.cfi_def_cfa_offset 16
 1090              		.cfi_offset 4, -16
ARM GAS  C:\Users\86188\AppData\Local\Temp\ccscIxHT.s 			page 36


 1091              		.cfi_offset 5, -12
 1092              		.cfi_offset 6, -8
 1093              		.cfi_offset 14, -4
 1094 0002 0446     		mov	r4, r0
 1095 0004 0D46     		mov	r5, r1
 613:ThirdPackage/lwip220/api/tcpip.c ****   function(ctx);
 1096              		.loc 1 613 3 is_stmt 1 view .LVU269
 1097 0006 054E     		ldr	r6, .L92
 1098 0008 3046     		mov	r0, r6
 1099              	.LVL114:
 613:ThirdPackage/lwip220/api/tcpip.c ****   function(ctx);
 1100              		.loc 1 613 3 is_stmt 0 view .LVU270
 1101 000a FFF7FEFF 		bl	sys_mutex_lock
 1102              	.LVL115:
 614:ThirdPackage/lwip220/api/tcpip.c ****   UNLOCK_TCPIP_CORE();
 1103              		.loc 1 614 3 is_stmt 1 view .LVU271
 1104 000e 2846     		mov	r0, r5
 1105 0010 A047     		blx	r4
 1106              	.LVL116:
 615:ThirdPackage/lwip220/api/tcpip.c ****   return ERR_OK;
 1107              		.loc 1 615 3 view .LVU272
 1108 0012 3046     		mov	r0, r6
 1109 0014 FFF7FEFF 		bl	sys_mutex_unlock
 1110              	.LVL117:
 616:ThirdPackage/lwip220/api/tcpip.c **** #else /* LWIP_TCPIP_CORE_LOCKING */
 1111              		.loc 1 616 3 view .LVU273
 638:ThirdPackage/lwip220/api/tcpip.c **** 
 1112              		.loc 1 638 1 is_stmt 0 view .LVU274
 1113 0018 0020     		movs	r0, #0
 1114 001a 70BD     		pop	{r4, r5, r6, pc}
 1115              	.LVL118:
 1116              	.L93:
 638:ThirdPackage/lwip220/api/tcpip.c **** 
 1117              		.loc 1 638 1 view .LVU275
 1118              		.align	2
 1119              	.L92:
 1120 001c 00000000 		.word	.LANCHOR0
 1121              		.cfi_endproc
 1122              	.LFE173:
 1124              		.section	.rodata.tcpip_init.str1.4,"aMS",%progbits,1
 1125              		.align	2
 1126              	.LC4:
 1127 0000 6661696C 		.ascii	"failed to create tcpip_thread mbox\000"
 1127      65642074 
 1127      6F206372 
 1127      65617465 
 1127      20746370 
 1128 0023 00       		.align	2
 1129              	.LC5:
 1130 0024 6661696C 		.ascii	"failed to create lock_tcpip_core\000"
 1130      65642074 
 1130      6F206372 
 1130      65617465 
 1130      206C6F63 
 1131 0045 000000   		.align	2
 1132              	.LC6:
 1133 0048 74637069 		.ascii	"tcpip_thread\000"
ARM GAS  C:\Users\86188\AppData\Local\Temp\ccscIxHT.s 			page 37


 1133      705F7468 
 1133      72656164 
 1133      00
 1134              		.section	.text.tcpip_init,"ax",%progbits
 1135              		.align	1
 1136              		.global	tcpip_init
 1137              		.syntax unified
 1138              		.thumb
 1139              		.thumb_func
 1141              	tcpip_init:
 1142              	.LVL119:
 1143              	.LFB174:
 651:ThirdPackage/lwip220/api/tcpip.c ****   lwip_init();
 1144              		.loc 1 651 1 is_stmt 1 view -0
 1145              		.cfi_startproc
 1146              		@ args = 0, pretend = 0, frame = 0
 1147              		@ frame_needed = 0, uses_anonymous_args = 0
 651:ThirdPackage/lwip220/api/tcpip.c ****   lwip_init();
 1148              		.loc 1 651 1 is_stmt 0 view .LVU277
 1149 0000 30B5     		push	{r4, r5, lr}
 1150              	.LCFI16:
 1151              		.cfi_def_cfa_offset 12
 1152              		.cfi_offset 4, -12
 1153              		.cfi_offset 5, -8
 1154              		.cfi_offset 14, -4
 1155 0002 83B0     		sub	sp, sp, #12
 1156              	.LCFI17:
 1157              		.cfi_def_cfa_offset 24
 1158 0004 0546     		mov	r5, r0
 1159 0006 0C46     		mov	r4, r1
 652:ThirdPackage/lwip220/api/tcpip.c **** 
 1160              		.loc 1 652 3 is_stmt 1 view .LVU278
 1161 0008 FFF7FEFF 		bl	lwip_init
 1162              	.LVL120:
 654:ThirdPackage/lwip220/api/tcpip.c ****   tcpip_init_done_arg = arg;
 1163              		.loc 1 654 3 view .LVU279
 654:ThirdPackage/lwip220/api/tcpip.c ****   tcpip_init_done_arg = arg;
 1164              		.loc 1 654 19 is_stmt 0 view .LVU280
 1165 000c 134B     		ldr	r3, .L100
 1166 000e 1D60     		str	r5, [r3]
 655:ThirdPackage/lwip220/api/tcpip.c ****   if (sys_mbox_new(&tcpip_mbox, TCPIP_MBOX_SIZE) != ERR_OK) {
 1167              		.loc 1 655 3 is_stmt 1 view .LVU281
 655:ThirdPackage/lwip220/api/tcpip.c ****   if (sys_mbox_new(&tcpip_mbox, TCPIP_MBOX_SIZE) != ERR_OK) {
 1168              		.loc 1 655 23 is_stmt 0 view .LVU282
 1169 0010 134B     		ldr	r3, .L100+4
 1170 0012 1C60     		str	r4, [r3]
 656:ThirdPackage/lwip220/api/tcpip.c ****     LWIP_ASSERT("failed to create tcpip_thread mbox", 0);
 1171              		.loc 1 656 3 is_stmt 1 view .LVU283
 656:ThirdPackage/lwip220/api/tcpip.c ****     LWIP_ASSERT("failed to create tcpip_thread mbox", 0);
 1172              		.loc 1 656 7 is_stmt 0 view .LVU284
 1173 0014 0621     		movs	r1, #6
 1174 0016 1348     		ldr	r0, .L100+8
 1175 0018 FFF7FEFF 		bl	sys_mbox_new
 1176              	.LVL121:
 656:ThirdPackage/lwip220/api/tcpip.c ****     LWIP_ASSERT("failed to create tcpip_thread mbox", 0);
 1177              		.loc 1 656 6 view .LVU285
 1178 001c 70B9     		cbnz	r0, .L98
ARM GAS  C:\Users\86188\AppData\Local\Temp\ccscIxHT.s 			page 38


 1179              	.L95:
 657:ThirdPackage/lwip220/api/tcpip.c ****   }
 1180              		.loc 1 657 5 is_stmt 1 discriminator 3 view .LVU286
 657:ThirdPackage/lwip220/api/tcpip.c ****   }
 1181              		.loc 1 657 5 discriminator 3 view .LVU287
 660:ThirdPackage/lwip220/api/tcpip.c ****     LWIP_ASSERT("failed to create lock_tcpip_core", 0);
 1182              		.loc 1 660 3 discriminator 3 view .LVU288
 660:ThirdPackage/lwip220/api/tcpip.c ****     LWIP_ASSERT("failed to create lock_tcpip_core", 0);
 1183              		.loc 1 660 7 is_stmt 0 discriminator 3 view .LVU289
 1184 001e 1248     		ldr	r0, .L100+12
 1185 0020 FFF7FEFF 		bl	sys_mutex_new
 1186              	.LVL122:
 660:ThirdPackage/lwip220/api/tcpip.c ****     LWIP_ASSERT("failed to create lock_tcpip_core", 0);
 1187              		.loc 1 660 6 discriminator 3 view .LVU290
 1188 0024 90B9     		cbnz	r0, .L99
 1189              	.L96:
 661:ThirdPackage/lwip220/api/tcpip.c ****   }
 1190              		.loc 1 661 5 is_stmt 1 discriminator 3 view .LVU291
 661:ThirdPackage/lwip220/api/tcpip.c ****   }
 1191              		.loc 1 661 5 discriminator 3 view .LVU292
 665:ThirdPackage/lwip220/api/tcpip.c **** }
 1192              		.loc 1 665 3 discriminator 3 view .LVU293
 1193 0026 0423     		movs	r3, #4
 1194 0028 0093     		str	r3, [sp]
 1195 002a 4FF48063 		mov	r3, #1024
 1196 002e 0022     		movs	r2, #0
 1197 0030 0E49     		ldr	r1, .L100+16
 1198 0032 0F48     		ldr	r0, .L100+20
 1199 0034 FFF7FEFF 		bl	sys_thread_new
 1200              	.LVL123:
 666:ThirdPackage/lwip220/api/tcpip.c **** 
 1201              		.loc 1 666 1 is_stmt 0 discriminator 3 view .LVU294
 1202 0038 03B0     		add	sp, sp, #12
 1203              	.LCFI18:
 1204              		.cfi_remember_state
 1205              		.cfi_def_cfa_offset 12
 1206              		@ sp needed
 1207 003a 30BD     		pop	{r4, r5, pc}
 1208              	.LVL124:
 1209              	.L98:
 1210              	.LCFI19:
 1211              		.cfi_restore_state
 657:ThirdPackage/lwip220/api/tcpip.c ****   }
 1212              		.loc 1 657 5 is_stmt 1 discriminator 1 view .LVU295
 657:ThirdPackage/lwip220/api/tcpip.c ****   }
 1213              		.loc 1 657 5 discriminator 1 view .LVU296
 657:ThirdPackage/lwip220/api/tcpip.c ****   }
 1214              		.loc 1 657 5 discriminator 1 view .LVU297
 657:ThirdPackage/lwip220/api/tcpip.c ****   }
 1215              		.loc 1 657 5 discriminator 1 view .LVU298
 1216 003c 0D4B     		ldr	r3, .L100+24
 1217 003e 40F29122 		movw	r2, #657
 1218 0042 0D49     		ldr	r1, .L100+28
 1219 0044 0D48     		ldr	r0, .L100+32
 1220 0046 FFF7FEFF 		bl	printf
 1221              	.LVL125:
 1222 004a E8E7     		b	.L95
ARM GAS  C:\Users\86188\AppData\Local\Temp\ccscIxHT.s 			page 39


 1223              	.L99:
 661:ThirdPackage/lwip220/api/tcpip.c ****   }
 1224              		.loc 1 661 5 discriminator 1 view .LVU299
 661:ThirdPackage/lwip220/api/tcpip.c ****   }
 1225              		.loc 1 661 5 discriminator 1 view .LVU300
 661:ThirdPackage/lwip220/api/tcpip.c ****   }
 1226              		.loc 1 661 5 discriminator 1 view .LVU301
 661:ThirdPackage/lwip220/api/tcpip.c ****   }
 1227              		.loc 1 661 5 discriminator 1 view .LVU302
 1228 004c 094B     		ldr	r3, .L100+24
 1229 004e 40F29522 		movw	r2, #661
 1230 0052 0B49     		ldr	r1, .L100+36
 1231 0054 0948     		ldr	r0, .L100+32
 1232 0056 FFF7FEFF 		bl	printf
 1233              	.LVL126:
 1234 005a E4E7     		b	.L96
 1235              	.L101:
 1236              		.align	2
 1237              	.L100:
 1238 005c 00000000 		.word	.LANCHOR1
 1239 0060 00000000 		.word	.LANCHOR2
 1240 0064 00000000 		.word	.LANCHOR3
 1241 0068 00000000 		.word	.LANCHOR0
 1242 006c 00000000 		.word	tcpip_thread
 1243 0070 48000000 		.word	.LC6
 1244 0074 00000000 		.word	.LC0
 1245 0078 00000000 		.word	.LC4
 1246 007c 44000000 		.word	.LC2
 1247 0080 24000000 		.word	.LC5
 1248              		.cfi_endproc
 1249              	.LFE174:
 1251              		.section	.text.pbuf_free_callback,"ax",%progbits
 1252              		.align	1
 1253              		.global	pbuf_free_callback
 1254              		.syntax unified
 1255              		.thumb
 1256              		.thumb_func
 1258              	pbuf_free_callback:
 1259              	.LVL127:
 1260              	.LFB176:
 680:ThirdPackage/lwip220/api/tcpip.c **** 
 681:ThirdPackage/lwip220/api/tcpip.c **** /**
 682:ThirdPackage/lwip220/api/tcpip.c ****  * A simple wrapper function that allows you to free a pbuf from interrupt context.
 683:ThirdPackage/lwip220/api/tcpip.c ****  *
 684:ThirdPackage/lwip220/api/tcpip.c ****  * @param p The pbuf (chain) to be dereferenced.
 685:ThirdPackage/lwip220/api/tcpip.c ****  * @return ERR_OK if callback could be enqueued, an err_t if not
 686:ThirdPackage/lwip220/api/tcpip.c ****  */
 687:ThirdPackage/lwip220/api/tcpip.c **** err_t
 688:ThirdPackage/lwip220/api/tcpip.c **** pbuf_free_callback(struct pbuf *p)
 689:ThirdPackage/lwip220/api/tcpip.c **** {
 1261              		.loc 1 689 1 view -0
 1262              		.cfi_startproc
 1263              		@ args = 0, pretend = 0, frame = 0
 1264              		@ frame_needed = 0, uses_anonymous_args = 0
 1265              		.loc 1 689 1 is_stmt 0 view .LVU304
 1266 0000 08B5     		push	{r3, lr}
 1267              	.LCFI20:
ARM GAS  C:\Users\86188\AppData\Local\Temp\ccscIxHT.s 			page 40


 1268              		.cfi_def_cfa_offset 8
 1269              		.cfi_offset 3, -8
 1270              		.cfi_offset 14, -4
 1271 0002 0146     		mov	r1, r0
 690:ThirdPackage/lwip220/api/tcpip.c ****   return tcpip_try_callback(pbuf_free_int, p);
 1272              		.loc 1 690 3 is_stmt 1 view .LVU305
 1273              		.loc 1 690 10 is_stmt 0 view .LVU306
 1274 0004 0148     		ldr	r0, .L104
 1275              	.LVL128:
 1276              		.loc 1 690 10 view .LVU307
 1277 0006 FFF7FEFF 		bl	tcpip_try_callback
 1278              	.LVL129:
 691:ThirdPackage/lwip220/api/tcpip.c **** }
 1279              		.loc 1 691 1 view .LVU308
 1280 000a 08BD     		pop	{r3, pc}
 1281              	.L105:
 1282              		.align	2
 1283              	.L104:
 1284 000c 00000000 		.word	pbuf_free_int
 1285              		.cfi_endproc
 1286              	.LFE176:
 1288              		.section	.text.mem_free_callback,"ax",%progbits
 1289              		.align	1
 1290              		.global	mem_free_callback
 1291              		.syntax unified
 1292              		.thumb
 1293              		.thumb_func
 1295              	mem_free_callback:
 1296              	.LVL130:
 1297              	.LFB177:
 692:ThirdPackage/lwip220/api/tcpip.c **** 
 693:ThirdPackage/lwip220/api/tcpip.c **** /**
 694:ThirdPackage/lwip220/api/tcpip.c ****  * A simple wrapper function that allows you to free heap memory from
 695:ThirdPackage/lwip220/api/tcpip.c ****  * interrupt context.
 696:ThirdPackage/lwip220/api/tcpip.c ****  *
 697:ThirdPackage/lwip220/api/tcpip.c ****  * @param m the heap memory to free
 698:ThirdPackage/lwip220/api/tcpip.c ****  * @return ERR_OK if callback could be enqueued, an err_t if not
 699:ThirdPackage/lwip220/api/tcpip.c ****  */
 700:ThirdPackage/lwip220/api/tcpip.c **** err_t
 701:ThirdPackage/lwip220/api/tcpip.c **** mem_free_callback(void *m)
 702:ThirdPackage/lwip220/api/tcpip.c **** {
 1298              		.loc 1 702 1 is_stmt 1 view -0
 1299              		.cfi_startproc
 1300              		@ args = 0, pretend = 0, frame = 0
 1301              		@ frame_needed = 0, uses_anonymous_args = 0
 1302              		.loc 1 702 1 is_stmt 0 view .LVU310
 1303 0000 08B5     		push	{r3, lr}
 1304              	.LCFI21:
 1305              		.cfi_def_cfa_offset 8
 1306              		.cfi_offset 3, -8
 1307              		.cfi_offset 14, -4
 1308 0002 0146     		mov	r1, r0
 703:ThirdPackage/lwip220/api/tcpip.c ****   return tcpip_try_callback(mem_free, m);
 1309              		.loc 1 703 3 is_stmt 1 view .LVU311
 1310              		.loc 1 703 10 is_stmt 0 view .LVU312
 1311 0004 0148     		ldr	r0, .L108
 1312              	.LVL131:
ARM GAS  C:\Users\86188\AppData\Local\Temp\ccscIxHT.s 			page 41


 1313              		.loc 1 703 10 view .LVU313
 1314 0006 FFF7FEFF 		bl	tcpip_try_callback
 1315              	.LVL132:
 704:ThirdPackage/lwip220/api/tcpip.c **** }
 1316              		.loc 1 704 1 view .LVU314
 1317 000a 08BD     		pop	{r3, pc}
 1318              	.L109:
 1319              		.align	2
 1320              	.L108:
 1321 000c 00000000 		.word	mem_free
 1322              		.cfi_endproc
 1323              	.LFE177:
 1325              		.global	lock_tcpip_core
 1326              		.section	.bss.lock_tcpip_core,"aw",%nobits
 1327              		.align	2
 1328              		.set	.LANCHOR0,. + 0
 1331              	lock_tcpip_core:
 1332 0000 00000000 		.space	4
 1333              		.section	.bss.tcpip_init_done,"aw",%nobits
 1334              		.align	2
 1335              		.set	.LANCHOR1,. + 0
 1338              	tcpip_init_done:
 1339 0000 00000000 		.space	4
 1340              		.section	.bss.tcpip_init_done_arg,"aw",%nobits
 1341              		.align	2
 1342              		.set	.LANCHOR2,. + 0
 1345              	tcpip_init_done_arg:
 1346 0000 00000000 		.space	4
 1347              		.section	.bss.tcpip_mbox,"aw",%nobits
 1348              		.align	2
 1349              		.set	.LANCHOR3,. + 0
 1352              	tcpip_mbox:
 1353 0000 00000000 		.space	4
 1354              		.text
 1355              	.Letext0:
 1356              		.file 2 "k:\\program files (x86)\\gnu arm embedded toolchain\\10 2021.10\\arm-none-eabi\\include\\
 1357              		.file 3 "k:\\program files (x86)\\gnu arm embedded toolchain\\10 2021.10\\arm-none-eabi\\include\\
 1358              		.file 4 "ThirdPackage/freertos/include/queue.h"
 1359              		.file 5 "ThirdPackage/lwip220/include/lwip/arch.h"
 1360              		.file 6 "ThirdPackage/lwip220/include/lwip/err.h"
 1361              		.file 7 "ThirdPackage/freertos/include/semphr.h"
 1362              		.file 8 "ThirdPackage/lwip220/include/arch/sys_arch.h"
 1363              		.file 9 "ThirdPackage/lwip220/include/lwip/ip4_addr.h"
 1364              		.file 10 "ThirdPackage/lwip220/include/lwip/ip_addr.h"
 1365              		.file 11 "ThirdPackage/lwip220/include/lwip/pbuf.h"
 1366              		.file 12 "ThirdPackage/lwip220/include/lwip/memp.h"
 1367              		.file 13 "ThirdPackage/lwip220/include/lwip/netif.h"
 1368              		.file 14 "ThirdPackage/lwip220/include/lwip/tcpip.h"
 1369              		.file 15 "ThirdPackage/lwip220/include/lwip/priv/tcpip_priv.h"
 1370              		.file 16 "ThirdPackage/lwip220/include/lwip/init.h"
 1371              		.file 17 "ThirdPackage/lwip220/include/lwip/sys.h"
 1372              		.file 18 "k:\\program files (x86)\\gnu arm embedded toolchain\\10 2021.10\\arm-none-eabi\\include\
 1373              		.file 19 "ThirdPackage/lwip220/include/lwip/timeouts.h"
ARM GAS  C:\Users\86188\AppData\Local\Temp\ccscIxHT.s 			page 42

