ARM GAS  C:\Users\86188\AppData\Local\Temp\ccxMyyYF.s 			page 1


   1              		.cpu cortex-m4
   2              		.arch armv7e-m
   3              		.fpu fpv4-sp-d16
   4              		.eabi_attribute 27, 1
   5              		.eabi_attribute 28, 1
   6              		.eabi_attribute 20, 1
   7              		.eabi_attribute 21, 1
   8              		.eabi_attribute 23, 3
   9              		.eabi_attribute 24, 1
  10              		.eabi_attribute 25, 1
  11              		.eabi_attribute 26, 1
  12              		.eabi_attribute 30, 1
  13              		.eabi_attribute 34, 1
  14              		.eabi_attribute 18, 4
  15              		.file	"udp.c"
  16              		.text
  17              	.Ltext0:
  18              		.cfi_sections	.debug_frame
  19              		.section	.text.udp_new_port,"ax",%progbits
  20              		.align	1
  21              		.syntax unified
  22              		.thumb
  23              		.thumb_func
  25              	udp_new_port:
  26              	.LFB161:
  27              		.file 1 "ThirdPackage/lwip220/core/udp.c"
   1:ThirdPackage/lwip220/core/udp.c **** /**
   2:ThirdPackage/lwip220/core/udp.c ****  * @file
   3:ThirdPackage/lwip220/core/udp.c ****  * User Datagram Protocol module<br>
   4:ThirdPackage/lwip220/core/udp.c ****  * The code for the User Datagram Protocol UDP & UDPLite (RFC 3828).<br>
   5:ThirdPackage/lwip220/core/udp.c ****  * See also @ref udp_raw
   6:ThirdPackage/lwip220/core/udp.c ****  *
   7:ThirdPackage/lwip220/core/udp.c ****  * @defgroup udp_raw UDP
   8:ThirdPackage/lwip220/core/udp.c ****  * @ingroup callbackstyle_api
   9:ThirdPackage/lwip220/core/udp.c ****  * User Datagram Protocol module<br>
  10:ThirdPackage/lwip220/core/udp.c ****  * @see @ref api
  11:ThirdPackage/lwip220/core/udp.c ****  */
  12:ThirdPackage/lwip220/core/udp.c **** 
  13:ThirdPackage/lwip220/core/udp.c **** /*
  14:ThirdPackage/lwip220/core/udp.c ****  * Copyright (c) 2001-2004 Swedish Institute of Computer Science.
  15:ThirdPackage/lwip220/core/udp.c ****  * All rights reserved.
  16:ThirdPackage/lwip220/core/udp.c ****  *
  17:ThirdPackage/lwip220/core/udp.c ****  * Redistribution and use in source and binary forms, with or without modification,
  18:ThirdPackage/lwip220/core/udp.c ****  * are permitted provided that the following conditions are met:
  19:ThirdPackage/lwip220/core/udp.c ****  *
  20:ThirdPackage/lwip220/core/udp.c ****  * 1. Redistributions of source code must retain the above copyright notice,
  21:ThirdPackage/lwip220/core/udp.c ****  *    this list of conditions and the following disclaimer.
  22:ThirdPackage/lwip220/core/udp.c ****  * 2. Redistributions in binary form must reproduce the above copyright notice,
  23:ThirdPackage/lwip220/core/udp.c ****  *    this list of conditions and the following disclaimer in the documentation
  24:ThirdPackage/lwip220/core/udp.c ****  *    and/or other materials provided with the distribution.
  25:ThirdPackage/lwip220/core/udp.c ****  * 3. The name of the author may not be used to endorse or promote products
  26:ThirdPackage/lwip220/core/udp.c ****  *    derived from this software without specific prior written permission.
  27:ThirdPackage/lwip220/core/udp.c ****  *
  28:ThirdPackage/lwip220/core/udp.c ****  * THIS SOFTWARE IS PROVIDED BY THE AUTHOR ``AS IS'' AND ANY EXPRESS OR IMPLIED
  29:ThirdPackage/lwip220/core/udp.c ****  * WARRANTIES, INCLUDING, BUT NOT LIMITED TO, THE IMPLIED WARRANTIES OF
  30:ThirdPackage/lwip220/core/udp.c ****  * MERCHANTABILITY AND FITNESS FOR A PARTICULAR PURPOSE ARE DISCLAIMED. IN NO EVENT
  31:ThirdPackage/lwip220/core/udp.c ****  * SHALL THE AUTHOR BE LIABLE FOR ANY DIRECT, INDIRECT, INCIDENTAL, SPECIAL,
ARM GAS  C:\Users\86188\AppData\Local\Temp\ccxMyyYF.s 			page 2


  32:ThirdPackage/lwip220/core/udp.c ****  * EXEMPLARY, OR CONSEQUENTIAL DAMAGES (INCLUDING, BUT NOT LIMITED TO, PROCUREMENT
  33:ThirdPackage/lwip220/core/udp.c ****  * OF SUBSTITUTE GOODS OR SERVICES; LOSS OF USE, DATA, OR PROFITS; OR BUSINESS
  34:ThirdPackage/lwip220/core/udp.c ****  * INTERRUPTION) HOWEVER CAUSED AND ON ANY THEORY OF LIABILITY, WHETHER IN
  35:ThirdPackage/lwip220/core/udp.c ****  * CONTRACT, STRICT LIABILITY, OR TORT (INCLUDING NEGLIGENCE OR OTHERWISE) ARISING
  36:ThirdPackage/lwip220/core/udp.c ****  * IN ANY WAY OUT OF THE USE OF THIS SOFTWARE, EVEN IF ADVISED OF THE POSSIBILITY
  37:ThirdPackage/lwip220/core/udp.c ****  * OF SUCH DAMAGE.
  38:ThirdPackage/lwip220/core/udp.c ****  *
  39:ThirdPackage/lwip220/core/udp.c ****  * This file is part of the lwIP TCP/IP stack.
  40:ThirdPackage/lwip220/core/udp.c ****  *
  41:ThirdPackage/lwip220/core/udp.c ****  * Author: Adam Dunkels <adam@sics.se>
  42:ThirdPackage/lwip220/core/udp.c ****  *
  43:ThirdPackage/lwip220/core/udp.c ****  */
  44:ThirdPackage/lwip220/core/udp.c **** 
  45:ThirdPackage/lwip220/core/udp.c **** /* @todo Check the use of '(struct udp_pcb).chksum_len_rx'!
  46:ThirdPackage/lwip220/core/udp.c ****  */
  47:ThirdPackage/lwip220/core/udp.c **** 
  48:ThirdPackage/lwip220/core/udp.c **** #include "lwip/opt.h"
  49:ThirdPackage/lwip220/core/udp.c **** 
  50:ThirdPackage/lwip220/core/udp.c **** #if LWIP_UDP /* don't build if not configured for use in lwipopts.h */
  51:ThirdPackage/lwip220/core/udp.c **** 
  52:ThirdPackage/lwip220/core/udp.c **** #include "lwip/udp.h"
  53:ThirdPackage/lwip220/core/udp.c **** #include "lwip/def.h"
  54:ThirdPackage/lwip220/core/udp.c **** #include "lwip/memp.h"
  55:ThirdPackage/lwip220/core/udp.c **** #include "lwip/inet_chksum.h"
  56:ThirdPackage/lwip220/core/udp.c **** #include "lwip/ip_addr.h"
  57:ThirdPackage/lwip220/core/udp.c **** #include "lwip/ip6.h"
  58:ThirdPackage/lwip220/core/udp.c **** #include "lwip/ip6_addr.h"
  59:ThirdPackage/lwip220/core/udp.c **** #include "lwip/netif.h"
  60:ThirdPackage/lwip220/core/udp.c **** #include "lwip/icmp.h"
  61:ThirdPackage/lwip220/core/udp.c **** #include "lwip/icmp6.h"
  62:ThirdPackage/lwip220/core/udp.c **** #include "lwip/stats.h"
  63:ThirdPackage/lwip220/core/udp.c **** #include "lwip/snmp.h"
  64:ThirdPackage/lwip220/core/udp.c **** #include "lwip/dhcp.h"
  65:ThirdPackage/lwip220/core/udp.c **** 
  66:ThirdPackage/lwip220/core/udp.c **** #include <string.h>
  67:ThirdPackage/lwip220/core/udp.c **** 
  68:ThirdPackage/lwip220/core/udp.c **** #ifndef UDP_LOCAL_PORT_RANGE_START
  69:ThirdPackage/lwip220/core/udp.c **** /* From http://www.iana.org/assignments/port-numbers:
  70:ThirdPackage/lwip220/core/udp.c ****    "The Dynamic and/or Private Ports are those from 49152 through 65535" */
  71:ThirdPackage/lwip220/core/udp.c **** #define UDP_LOCAL_PORT_RANGE_START  0xc000
  72:ThirdPackage/lwip220/core/udp.c **** #define UDP_LOCAL_PORT_RANGE_END    0xffff
  73:ThirdPackage/lwip220/core/udp.c **** #define UDP_ENSURE_LOCAL_PORT_RANGE(port) ((u16_t)(((port) & (u16_t)~UDP_LOCAL_PORT_RANGE_START) + 
  74:ThirdPackage/lwip220/core/udp.c **** #endif
  75:ThirdPackage/lwip220/core/udp.c **** 
  76:ThirdPackage/lwip220/core/udp.c **** /* last local UDP port */
  77:ThirdPackage/lwip220/core/udp.c **** static u16_t udp_port = UDP_LOCAL_PORT_RANGE_START;
  78:ThirdPackage/lwip220/core/udp.c **** 
  79:ThirdPackage/lwip220/core/udp.c **** /* The list of UDP PCBs */
  80:ThirdPackage/lwip220/core/udp.c **** /* exported in udp.h (was static) */
  81:ThirdPackage/lwip220/core/udp.c **** struct udp_pcb *udp_pcbs;
  82:ThirdPackage/lwip220/core/udp.c **** 
  83:ThirdPackage/lwip220/core/udp.c **** /**
  84:ThirdPackage/lwip220/core/udp.c ****  * Initialize this module.
  85:ThirdPackage/lwip220/core/udp.c ****  */
  86:ThirdPackage/lwip220/core/udp.c **** void
  87:ThirdPackage/lwip220/core/udp.c **** udp_init(void)
  88:ThirdPackage/lwip220/core/udp.c **** {
ARM GAS  C:\Users\86188\AppData\Local\Temp\ccxMyyYF.s 			page 3


  89:ThirdPackage/lwip220/core/udp.c **** #ifdef LWIP_RAND
  90:ThirdPackage/lwip220/core/udp.c ****   udp_port = UDP_ENSURE_LOCAL_PORT_RANGE(LWIP_RAND());
  91:ThirdPackage/lwip220/core/udp.c **** #endif /* LWIP_RAND */
  92:ThirdPackage/lwip220/core/udp.c **** }
  93:ThirdPackage/lwip220/core/udp.c **** 
  94:ThirdPackage/lwip220/core/udp.c **** /**
  95:ThirdPackage/lwip220/core/udp.c ****  * Allocate a new local UDP port.
  96:ThirdPackage/lwip220/core/udp.c ****  *
  97:ThirdPackage/lwip220/core/udp.c ****  * @return a new (free) local UDP port number
  98:ThirdPackage/lwip220/core/udp.c ****  */
  99:ThirdPackage/lwip220/core/udp.c **** static u16_t
 100:ThirdPackage/lwip220/core/udp.c **** udp_new_port(void)
 101:ThirdPackage/lwip220/core/udp.c **** {
  28              		.loc 1 101 1 view -0
  29              		.cfi_startproc
  30              		@ args = 0, pretend = 0, frame = 0
  31              		@ frame_needed = 0, uses_anonymous_args = 0
  32              		@ link register save eliminated.
 102:ThirdPackage/lwip220/core/udp.c ****   u16_t n = 0;
  33              		.loc 1 102 3 view .LVU1
  34              	.LVL0:
  35              		.loc 1 102 9 is_stmt 0 view .LVU2
  36 0000 0020     		movs	r0, #0
  37              	.LVL1:
  38              	.L2:
 103:ThirdPackage/lwip220/core/udp.c ****   struct udp_pcb *pcb;
  39              		.loc 1 103 3 is_stmt 1 view .LVU3
 104:ThirdPackage/lwip220/core/udp.c **** 
 105:ThirdPackage/lwip220/core/udp.c **** again:
 106:ThirdPackage/lwip220/core/udp.c ****   if (udp_port++ == UDP_LOCAL_PORT_RANGE_END) {
  40              		.loc 1 106 3 view .LVU4
  41              		.loc 1 106 15 is_stmt 0 view .LVU5
  42 0002 104A     		ldr	r2, .L12
  43 0004 1388     		ldrh	r3, [r2]
  44 0006 591C     		adds	r1, r3, #1
  45 0008 1180     		strh	r1, [r2]	@ movhi
  46              		.loc 1 106 6 view .LVU6
  47 000a 4FF6FF72 		movw	r2, #65535
  48 000e 9342     		cmp	r3, r2
  49 0010 09D0     		beq	.L9
  50              	.L3:
 107:ThirdPackage/lwip220/core/udp.c ****     udp_port = UDP_LOCAL_PORT_RANGE_START;
 108:ThirdPackage/lwip220/core/udp.c ****   }
 109:ThirdPackage/lwip220/core/udp.c ****   /* Check all PCBs. */
 110:ThirdPackage/lwip220/core/udp.c ****   for (pcb = udp_pcbs; pcb != NULL; pcb = pcb->next) {
  51              		.loc 1 110 3 is_stmt 1 view .LVU7
  52              		.loc 1 110 12 is_stmt 0 view .LVU8
  53 0012 0D4B     		ldr	r3, .L12+4
  54 0014 1B68     		ldr	r3, [r3]
  55              	.LVL2:
  56              	.L4:
  57              		.loc 1 110 24 is_stmt 1 discriminator 1 view .LVU9
  58              		.loc 1 110 3 is_stmt 0 discriminator 1 view .LVU10
  59 0016 93B1     		cbz	r3, .L10
 111:ThirdPackage/lwip220/core/udp.c ****     if (pcb->local_port == udp_port) {
  60              		.loc 1 111 5 is_stmt 1 view .LVU11
  61              		.loc 1 111 12 is_stmt 0 view .LVU12
ARM GAS  C:\Users\86188\AppData\Local\Temp\ccxMyyYF.s 			page 4


  62 0018 598A     		ldrh	r1, [r3, #18]
  63              		.loc 1 111 25 view .LVU13
  64 001a 0A4A     		ldr	r2, .L12
  65 001c 1288     		ldrh	r2, [r2]
  66              		.loc 1 111 8 view .LVU14
  67 001e 9142     		cmp	r1, r2
  68 0020 06D0     		beq	.L11
 110:ThirdPackage/lwip220/core/udp.c ****     if (pcb->local_port == udp_port) {
  69              		.loc 1 110 37 is_stmt 1 discriminator 2 view .LVU15
 110:ThirdPackage/lwip220/core/udp.c ****     if (pcb->local_port == udp_port) {
  70              		.loc 1 110 41 is_stmt 0 discriminator 2 view .LVU16
  71 0022 DB68     		ldr	r3, [r3, #12]
  72              	.LVL3:
 110:ThirdPackage/lwip220/core/udp.c ****     if (pcb->local_port == udp_port) {
  73              		.loc 1 110 41 discriminator 2 view .LVU17
  74 0024 F7E7     		b	.L4
  75              	.LVL4:
  76              	.L9:
 107:ThirdPackage/lwip220/core/udp.c ****     udp_port = UDP_LOCAL_PORT_RANGE_START;
  77              		.loc 1 107 5 is_stmt 1 view .LVU18
 107:ThirdPackage/lwip220/core/udp.c ****     udp_port = UDP_LOCAL_PORT_RANGE_START;
  78              		.loc 1 107 14 is_stmt 0 view .LVU19
  79 0026 074B     		ldr	r3, .L12
  80 0028 4FF44042 		mov	r2, #49152
  81 002c 1A80     		strh	r2, [r3]	@ movhi
  82 002e F0E7     		b	.L3
  83              	.LVL5:
  84              	.L11:
 112:ThirdPackage/lwip220/core/udp.c ****       if (++n > (UDP_LOCAL_PORT_RANGE_END - UDP_LOCAL_PORT_RANGE_START)) {
  85              		.loc 1 112 7 is_stmt 1 view .LVU20
  86              		.loc 1 112 10 is_stmt 0 view .LVU21
  87 0030 0130     		adds	r0, r0, #1
  88              	.LVL6:
  89              		.loc 1 112 10 view .LVU22
  90 0032 80B2     		uxth	r0, r0
  91              	.LVL7:
  92              		.loc 1 112 10 view .LVU23
  93 0034 B0F5804F 		cmp	r0, #16384
  94 0038 E3D3     		bcc	.L2
 113:ThirdPackage/lwip220/core/udp.c ****         return 0;
  95              		.loc 1 113 16 view .LVU24
  96 003a 0020     		movs	r0, #0
  97              	.LVL8:
 114:ThirdPackage/lwip220/core/udp.c ****       }
 115:ThirdPackage/lwip220/core/udp.c ****       goto again;
 116:ThirdPackage/lwip220/core/udp.c ****     }
 117:ThirdPackage/lwip220/core/udp.c ****   }
 118:ThirdPackage/lwip220/core/udp.c ****   return udp_port;
 119:ThirdPackage/lwip220/core/udp.c **** }
  98              		.loc 1 119 1 view .LVU25
  99 003c 7047     		bx	lr
 100              	.LVL9:
 101              	.L10:
 118:ThirdPackage/lwip220/core/udp.c **** }
 102              		.loc 1 118 3 is_stmt 1 view .LVU26
 118:ThirdPackage/lwip220/core/udp.c **** }
 103              		.loc 1 118 10 is_stmt 0 view .LVU27
ARM GAS  C:\Users\86188\AppData\Local\Temp\ccxMyyYF.s 			page 5


 104 003e 014B     		ldr	r3, .L12
 105              	.LVL10:
 118:ThirdPackage/lwip220/core/udp.c **** }
 106              		.loc 1 118 10 view .LVU28
 107 0040 1888     		ldrh	r0, [r3]
 108              	.LVL11:
 118:ThirdPackage/lwip220/core/udp.c **** }
 109              		.loc 1 118 10 view .LVU29
 110 0042 7047     		bx	lr
 111              	.L13:
 112              		.align	2
 113              	.L12:
 114 0044 00000000 		.word	.LANCHOR0
 115 0048 00000000 		.word	.LANCHOR1
 116              		.cfi_endproc
 117              	.LFE161:
 119              		.section	.rodata.udp_input_local_match.str1.4,"aMS",%progbits,1
 120              		.align	2
 121              	.LC0:
 122 0000 54686972 		.ascii	"ThirdPackage/lwip220/core/udp.c\000"
 122      64506163 
 122      6B616765 
 122      2F6C7769 
 122      70323230 
 123              		.align	2
 124              	.LC1:
 125 0020 7564705F 		.ascii	"udp_input_local_match: invalid pcb\000"
 125      696E7075 
 125      745F6C6F 
 125      63616C5F 
 125      6D617463 
 126 0043 00       		.align	2
 127              	.LC2:
 128 0044 41737365 		.ascii	"Assertion \"%s\" failed at line %d in %s\012\000"
 128      7274696F 
 128      6E202225 
 128      73222066 
 128      61696C65 
 129              		.align	2
 130              	.LC3:
 131 006c 7564705F 		.ascii	"udp_input_local_match: invalid netif\000"
 131      696E7075 
 131      745F6C6F 
 131      63616C5F 
 131      6D617463 
 132              		.section	.text.udp_input_local_match,"ax",%progbits
 133              		.align	1
 134              		.syntax unified
 135              		.thumb
 136              		.thumb_func
 138              	udp_input_local_match:
 139              	.LVL12:
 140              	.LFB162:
 120:ThirdPackage/lwip220/core/udp.c **** 
 121:ThirdPackage/lwip220/core/udp.c **** /** Common code to see if the current input packet matches the pcb
 122:ThirdPackage/lwip220/core/udp.c ****  * (current input packet is accessed via ip(4/6)_current_* macros)
 123:ThirdPackage/lwip220/core/udp.c ****  *
ARM GAS  C:\Users\86188\AppData\Local\Temp\ccxMyyYF.s 			page 6


 124:ThirdPackage/lwip220/core/udp.c ****  * @param pcb pcb to check
 125:ThirdPackage/lwip220/core/udp.c ****  * @param inp network interface on which the datagram was received (only used for IPv4)
 126:ThirdPackage/lwip220/core/udp.c ****  * @param broadcast 1 if his is an IPv4 broadcast (global or subnet-only), 0 otherwise (only used f
 127:ThirdPackage/lwip220/core/udp.c ****  * @return 1 on match, 0 otherwise
 128:ThirdPackage/lwip220/core/udp.c ****  */
 129:ThirdPackage/lwip220/core/udp.c **** static u8_t
 130:ThirdPackage/lwip220/core/udp.c **** udp_input_local_match(struct udp_pcb *pcb, struct netif *inp, u8_t broadcast)
 131:ThirdPackage/lwip220/core/udp.c **** {
 141              		.loc 1 131 1 is_stmt 1 view -0
 142              		.cfi_startproc
 143              		@ args = 0, pretend = 0, frame = 0
 144              		@ frame_needed = 0, uses_anonymous_args = 0
 145              		.loc 1 131 1 is_stmt 0 view .LVU31
 146 0000 F8B5     		push	{r3, r4, r5, r6, r7, lr}
 147              	.LCFI0:
 148              		.cfi_def_cfa_offset 24
 149              		.cfi_offset 3, -24
 150              		.cfi_offset 4, -20
 151              		.cfi_offset 5, -16
 152              		.cfi_offset 6, -12
 153              		.cfi_offset 7, -8
 154              		.cfi_offset 14, -4
 155 0002 0E46     		mov	r6, r1
 156 0004 1546     		mov	r5, r2
 132:ThirdPackage/lwip220/core/udp.c ****   LWIP_UNUSED_ARG(inp);       /* in IPv6 only case */
 157              		.loc 1 132 3 is_stmt 1 view .LVU32
 133:ThirdPackage/lwip220/core/udp.c ****   LWIP_UNUSED_ARG(broadcast); /* in IPv6 only case */
 158              		.loc 1 133 3 view .LVU33
 134:ThirdPackage/lwip220/core/udp.c **** 
 135:ThirdPackage/lwip220/core/udp.c ****   LWIP_ASSERT("udp_input_local_match: invalid pcb", pcb != NULL);
 159              		.loc 1 135 3 view .LVU34
 160              		.loc 1 135 3 view .LVU35
 161 0006 0746     		mov	r7, r0
 162 0008 C8B1     		cbz	r0, .L29
 163              	.LVL13:
 164              	.L15:
 165              		.loc 1 135 3 discriminator 3 view .LVU36
 166              		.loc 1 135 3 discriminator 3 view .LVU37
 136:ThirdPackage/lwip220/core/udp.c ****   LWIP_ASSERT("udp_input_local_match: invalid netif", inp != NULL);
 167              		.loc 1 136 3 discriminator 3 view .LVU38
 168              		.loc 1 136 3 discriminator 3 view .LVU39
 169 000a FEB1     		cbz	r6, .L30
 170              	.L16:
 171              		.loc 1 136 3 discriminator 3 view .LVU40
 172              		.loc 1 136 3 discriminator 3 view .LVU41
 137:ThirdPackage/lwip220/core/udp.c **** 
 138:ThirdPackage/lwip220/core/udp.c ****   /* check if PCB is bound to specific netif */
 139:ThirdPackage/lwip220/core/udp.c ****   if ((pcb->netif_idx != NETIF_NO_INDEX) &&
 173              		.loc 1 139 3 discriminator 3 view .LVU42
 174              		.loc 1 139 11 is_stmt 0 discriminator 3 view .LVU43
 175 000c 3C7A     		ldrb	r4, [r7, #8]	@ zero_extendqisi2
 176              		.loc 1 139 6 discriminator 3 view .LVU44
 177 000e 3CB1     		cbz	r4, .L17
 140:ThirdPackage/lwip220/core/udp.c ****       (pcb->netif_idx != netif_get_index(ip_data.current_input_netif))) {
 178              		.loc 1 140 26 discriminator 1 view .LVU45
 179 0010 1E4B     		ldr	r3, .L31
 180 0012 5B68     		ldr	r3, [r3, #4]
ARM GAS  C:\Users\86188\AppData\Local\Temp\ccxMyyYF.s 			page 7


 181 0014 93F83030 		ldrb	r3, [r3, #48]	@ zero_extendqisi2
 182 0018 0133     		adds	r3, r3, #1
 183 001a DBB2     		uxtb	r3, r3
 139:ThirdPackage/lwip220/core/udp.c ****       (pcb->netif_idx != netif_get_index(ip_data.current_input_netif))) {
 184              		.loc 1 139 42 discriminator 1 view .LVU46
 185 001c 9C42     		cmp	r4, r3
 186 001e 25D1     		bne	.L20
 187              	.L17:
 141:ThirdPackage/lwip220/core/udp.c ****     return 0;
 142:ThirdPackage/lwip220/core/udp.c ****   }
 143:ThirdPackage/lwip220/core/udp.c **** 
 144:ThirdPackage/lwip220/core/udp.c ****   /* Dual-stack: PCBs listening to any IP type also listen to any IP address */
 145:ThirdPackage/lwip220/core/udp.c ****   if (IP_IS_ANY_TYPE_VAL(pcb->local_ip)) {
 188              		.loc 1 145 3 is_stmt 1 view .LVU47
 146:ThirdPackage/lwip220/core/udp.c **** #if LWIP_IPV4 && IP_SOF_BROADCAST_RECV
 147:ThirdPackage/lwip220/core/udp.c ****     if ((broadcast != 0) && !ip_get_option(pcb, SOF_BROADCAST)) {
 148:ThirdPackage/lwip220/core/udp.c ****       return 0;
 149:ThirdPackage/lwip220/core/udp.c ****     }
 150:ThirdPackage/lwip220/core/udp.c **** #endif /* LWIP_IPV4 && IP_SOF_BROADCAST_RECV */
 151:ThirdPackage/lwip220/core/udp.c ****     return 1;
 152:ThirdPackage/lwip220/core/udp.c ****   }
 153:ThirdPackage/lwip220/core/udp.c **** 
 154:ThirdPackage/lwip220/core/udp.c ****   /* Only need to check PCB if incoming IP version matches PCB IP version */
 155:ThirdPackage/lwip220/core/udp.c ****   if (IP_ADDR_PCB_VERSION_MATCH_EXACT(pcb, ip_current_dest_addr())) {
 189              		.loc 1 155 3 view .LVU48
 156:ThirdPackage/lwip220/core/udp.c **** #if LWIP_IPV4
 157:ThirdPackage/lwip220/core/udp.c ****     /* Special case: IPv4 broadcast: all or broadcasts in my subnet
 158:ThirdPackage/lwip220/core/udp.c ****      * Note: broadcast variable can only be 1 if it is an IPv4 broadcast */
 159:ThirdPackage/lwip220/core/udp.c ****     if (broadcast != 0) {
 190              		.loc 1 159 5 view .LVU49
 191              		.loc 1 159 8 is_stmt 0 view .LVU50
 192 0020 DDB1     		cbz	r5, .L19
 160:ThirdPackage/lwip220/core/udp.c **** #if IP_SOF_BROADCAST_RECV
 161:ThirdPackage/lwip220/core/udp.c ****       if (ip_get_option(pcb, SOF_BROADCAST))
 162:ThirdPackage/lwip220/core/udp.c **** #endif /* IP_SOF_BROADCAST_RECV */
 163:ThirdPackage/lwip220/core/udp.c ****       {
 164:ThirdPackage/lwip220/core/udp.c ****         if (ip4_addr_isany(ip_2_ip4(&pcb->local_ip)) ||
 193              		.loc 1 164 9 is_stmt 1 view .LVU51
 194              		.loc 1 164 12 is_stmt 0 view .LVU52
 195 0022 2FB3     		cbz	r7, .L21
 196              		.loc 1 164 13 discriminator 1 view .LVU53
 197 0024 3B68     		ldr	r3, [r7]
 198 0026 2BB3     		cbz	r3, .L22
 165:ThirdPackage/lwip220/core/udp.c ****             ((ip4_current_dest_addr()->addr == IPADDR_BROADCAST)) ||
 199              		.loc 1 165 38 discriminator 2 view .LVU54
 200 0028 184A     		ldr	r2, .L31
 201 002a 5269     		ldr	r2, [r2, #20]
 164:ThirdPackage/lwip220/core/udp.c ****             ((ip4_current_dest_addr()->addr == IPADDR_BROADCAST)) ||
 202              		.loc 1 164 54 discriminator 2 view .LVU55
 203 002c B2F1FF3F 		cmp	r2, #-1
 204 0030 22D0     		beq	.L23
 166:ThirdPackage/lwip220/core/udp.c ****             ip4_addr_net_eq(ip_2_ip4(&pcb->local_ip), ip4_current_dest_addr(), netif_ip4_netmask(in
 205              		.loc 1 166 13 view .LVU56
 206 0032 B168     		ldr	r1, [r6, #8]
 207 0034 5340     		eors	r3, r3, r2
 165:ThirdPackage/lwip220/core/udp.c ****             ((ip4_current_dest_addr()->addr == IPADDR_BROADCAST)) ||
 208              		.loc 1 165 67 view .LVU57
ARM GAS  C:\Users\86188\AppData\Local\Temp\ccxMyyYF.s 			page 8


 209 0036 0B42     		tst	r3, r1
 210 0038 20D0     		beq	.L24
 167:ThirdPackage/lwip220/core/udp.c ****           return 1;
 168:ThirdPackage/lwip220/core/udp.c ****         }
 169:ThirdPackage/lwip220/core/udp.c ****       }
 170:ThirdPackage/lwip220/core/udp.c ****     } else
 171:ThirdPackage/lwip220/core/udp.c **** #endif /* LWIP_IPV4 */
 172:ThirdPackage/lwip220/core/udp.c ****       /* Handle IPv4 and IPv6: all or exact match */
 173:ThirdPackage/lwip220/core/udp.c ****       if (ip_addr_isany(&pcb->local_ip) || ip_addr_eq(&pcb->local_ip, ip_current_dest_addr())) {
 174:ThirdPackage/lwip220/core/udp.c ****         return 1;
 175:ThirdPackage/lwip220/core/udp.c ****       }
 176:ThirdPackage/lwip220/core/udp.c ****   }
 177:ThirdPackage/lwip220/core/udp.c **** 
 178:ThirdPackage/lwip220/core/udp.c ****   return 0;
 211              		.loc 1 178 10 view .LVU58
 212 003a 0020     		movs	r0, #0
 213 003c 17E0     		b	.L18
 214              	.LVL14:
 215              	.L29:
 135:ThirdPackage/lwip220/core/udp.c ****   LWIP_ASSERT("udp_input_local_match: invalid netif", inp != NULL);
 216              		.loc 1 135 3 is_stmt 1 discriminator 1 view .LVU59
 135:ThirdPackage/lwip220/core/udp.c ****   LWIP_ASSERT("udp_input_local_match: invalid netif", inp != NULL);
 217              		.loc 1 135 3 discriminator 1 view .LVU60
 218 003e 144B     		ldr	r3, .L31+4
 219 0040 8722     		movs	r2, #135
 220              	.LVL15:
 135:ThirdPackage/lwip220/core/udp.c ****   LWIP_ASSERT("udp_input_local_match: invalid netif", inp != NULL);
 221              		.loc 1 135 3 is_stmt 0 discriminator 1 view .LVU61
 222 0042 1449     		ldr	r1, .L31+8
 223              	.LVL16:
 135:ThirdPackage/lwip220/core/udp.c ****   LWIP_ASSERT("udp_input_local_match: invalid netif", inp != NULL);
 224              		.loc 1 135 3 discriminator 1 view .LVU62
 225 0044 1448     		ldr	r0, .L31+12
 226              	.LVL17:
 135:ThirdPackage/lwip220/core/udp.c ****   LWIP_ASSERT("udp_input_local_match: invalid netif", inp != NULL);
 227              		.loc 1 135 3 discriminator 1 view .LVU63
 228 0046 FFF7FEFF 		bl	printf
 229              	.LVL18:
 230 004a DEE7     		b	.L15
 231              	.L30:
 136:ThirdPackage/lwip220/core/udp.c **** 
 232              		.loc 1 136 3 is_stmt 1 discriminator 1 view .LVU64
 136:ThirdPackage/lwip220/core/udp.c **** 
 233              		.loc 1 136 3 discriminator 1 view .LVU65
 234 004c 104B     		ldr	r3, .L31+4
 235 004e 8822     		movs	r2, #136
 236 0050 1249     		ldr	r1, .L31+16
 237 0052 1148     		ldr	r0, .L31+12
 238 0054 FFF7FEFF 		bl	printf
 239              	.LVL19:
 240 0058 D8E7     		b	.L16
 241              	.L19:
 173:ThirdPackage/lwip220/core/udp.c ****         return 1;
 242              		.loc 1 173 7 view .LVU66
 173:ThirdPackage/lwip220/core/udp.c ****         return 1;
 243              		.loc 1 173 10 is_stmt 0 view .LVU67
 244 005a 8FB1     		cbz	r7, .L25
ARM GAS  C:\Users\86188\AppData\Local\Temp\ccxMyyYF.s 			page 9


 173:ThirdPackage/lwip220/core/udp.c ****         return 1;
 245              		.loc 1 173 11 discriminator 1 view .LVU68
 246 005c 3B68     		ldr	r3, [r7]
 247 005e 8BB1     		cbz	r3, .L26
 173:ThirdPackage/lwip220/core/udp.c ****         return 1;
 248              		.loc 1 173 44 discriminator 2 view .LVU69
 249 0060 0A4A     		ldr	r2, .L31
 250 0062 5269     		ldr	r2, [r2, #20]
 173:ThirdPackage/lwip220/core/udp.c ****         return 1;
 251              		.loc 1 173 41 discriminator 2 view .LVU70
 252 0064 9342     		cmp	r3, r2
 253 0066 0FD0     		beq	.L27
 254              		.loc 1 178 10 view .LVU71
 255 0068 2846     		mov	r0, r5
 256 006a 00E0     		b	.L18
 257              	.L20:
 141:ThirdPackage/lwip220/core/udp.c ****   }
 258              		.loc 1 141 12 view .LVU72
 259 006c 0020     		movs	r0, #0
 260              	.L18:
 179:ThirdPackage/lwip220/core/udp.c **** }
 261              		.loc 1 179 1 view .LVU73
 262 006e F8BD     		pop	{r3, r4, r5, r6, r7, pc}
 263              	.LVL20:
 264              	.L21:
 167:ThirdPackage/lwip220/core/udp.c ****         }
 265              		.loc 1 167 18 view .LVU74
 266 0070 0120     		movs	r0, #1
 267 0072 FCE7     		b	.L18
 268              	.L22:
 167:ThirdPackage/lwip220/core/udp.c ****         }
 269              		.loc 1 167 18 view .LVU75
 270 0074 0120     		movs	r0, #1
 271 0076 FAE7     		b	.L18
 272              	.L23:
 273 0078 0120     		movs	r0, #1
 274 007a F8E7     		b	.L18
 275              	.L24:
 167:ThirdPackage/lwip220/core/udp.c ****         }
 276              		.loc 1 167 18 view .LVU76
 277 007c 0120     		movs	r0, #1
 278 007e F6E7     		b	.L18
 279              	.L25:
 174:ThirdPackage/lwip220/core/udp.c ****       }
 280              		.loc 1 174 16 view .LVU77
 281 0080 0120     		movs	r0, #1
 282 0082 F4E7     		b	.L18
 283              	.L26:
 174:ThirdPackage/lwip220/core/udp.c ****       }
 284              		.loc 1 174 16 view .LVU78
 285 0084 0120     		movs	r0, #1
 286 0086 F2E7     		b	.L18
 287              	.L27:
 288 0088 0120     		movs	r0, #1
 289 008a F0E7     		b	.L18
 290              	.L32:
 291              		.align	2
ARM GAS  C:\Users\86188\AppData\Local\Temp\ccxMyyYF.s 			page 10


 292              	.L31:
 293 008c 00000000 		.word	ip_data
 294 0090 00000000 		.word	.LC0
 295 0094 20000000 		.word	.LC1
 296 0098 44000000 		.word	.LC2
 297 009c 6C000000 		.word	.LC3
 298              		.cfi_endproc
 299              	.LFE162:
 301              		.section	.text.udp_init,"ax",%progbits
 302              		.align	1
 303              		.global	udp_init
 304              		.syntax unified
 305              		.thumb
 306              		.thumb_func
 308              	udp_init:
 309              	.LFB160:
  88:ThirdPackage/lwip220/core/udp.c **** #ifdef LWIP_RAND
 310              		.loc 1 88 1 is_stmt 1 view -0
 311              		.cfi_startproc
 312              		@ args = 0, pretend = 0, frame = 0
 313              		@ frame_needed = 0, uses_anonymous_args = 0
 314 0000 08B5     		push	{r3, lr}
 315              	.LCFI1:
 316              		.cfi_def_cfa_offset 8
 317              		.cfi_offset 3, -8
 318              		.cfi_offset 14, -4
  90:ThirdPackage/lwip220/core/udp.c **** #endif /* LWIP_RAND */
 319              		.loc 1 90 3 view .LVU80
  90:ThirdPackage/lwip220/core/udp.c **** #endif /* LWIP_RAND */
 320              		.loc 1 90 14 is_stmt 0 view .LVU81
 321 0002 FFF7FEFF 		bl	rand
 322              	.LVL21:
 323 0006 6FEA8040 		mvn	r0, r0, lsl #18
 324 000a 6FEA9040 		mvn	r0, r0, lsr #18
  90:ThirdPackage/lwip220/core/udp.c **** #endif /* LWIP_RAND */
 325              		.loc 1 90 12 view .LVU82
 326 000e 014B     		ldr	r3, .L35
 327 0010 1880     		strh	r0, [r3]	@ movhi
  92:ThirdPackage/lwip220/core/udp.c **** 
 328              		.loc 1 92 1 view .LVU83
 329 0012 08BD     		pop	{r3, pc}
 330              	.L36:
 331              		.align	2
 332              	.L35:
 333 0014 00000000 		.word	.LANCHOR0
 334              		.cfi_endproc
 335              	.LFE160:
 337              		.section	.rodata.udp_input.str1.4,"aMS",%progbits,1
 338              		.align	2
 339              	.LC4:
 340 0000 7564705F 		.ascii	"udp_input: invalid pbuf\000"
 340      696E7075 
 340      743A2069 
 340      6E76616C 
 340      69642070 
 341              		.align	2
 342              	.LC5:
ARM GAS  C:\Users\86188\AppData\Local\Temp\ccxMyyYF.s 			page 11


 343 0018 7564705F 		.ascii	"udp_input: invalid netif\000"
 343      696E7075 
 343      743A2069 
 343      6E76616C 
 343      6964206E 
 344 0031 000000   		.align	2
 345              	.LC6:
 346 0034 70627566 		.ascii	"pbuf_remove_header failed\000"
 346      5F72656D 
 346      6F76655F 
 346      68656164 
 346      65722066 
 347              		.section	.text.udp_input,"ax",%progbits
 348              		.align	1
 349              		.global	udp_input
 350              		.syntax unified
 351              		.thumb
 352              		.thumb_func
 354              	udp_input:
 355              	.LVL22:
 356              	.LFB163:
 180:ThirdPackage/lwip220/core/udp.c **** 
 181:ThirdPackage/lwip220/core/udp.c **** /**
 182:ThirdPackage/lwip220/core/udp.c ****  * Process an incoming UDP datagram.
 183:ThirdPackage/lwip220/core/udp.c ****  *
 184:ThirdPackage/lwip220/core/udp.c ****  * Given an incoming UDP datagram (as a chain of pbufs) this function
 185:ThirdPackage/lwip220/core/udp.c ****  * finds a corresponding UDP PCB and hands over the pbuf to the pcbs
 186:ThirdPackage/lwip220/core/udp.c ****  * recv function. If no pcb is found or the datagram is incorrect, the
 187:ThirdPackage/lwip220/core/udp.c ****  * pbuf is freed.
 188:ThirdPackage/lwip220/core/udp.c ****  *
 189:ThirdPackage/lwip220/core/udp.c ****  * @param p pbuf to be demultiplexed to a UDP PCB (p->payload pointing to the UDP header)
 190:ThirdPackage/lwip220/core/udp.c ****  * @param inp network interface on which the datagram was received.
 191:ThirdPackage/lwip220/core/udp.c ****  *
 192:ThirdPackage/lwip220/core/udp.c ****  */
 193:ThirdPackage/lwip220/core/udp.c **** void
 194:ThirdPackage/lwip220/core/udp.c **** udp_input(struct pbuf *p, struct netif *inp)
 195:ThirdPackage/lwip220/core/udp.c **** {
 357              		.loc 1 195 1 is_stmt 1 view -0
 358              		.cfi_startproc
 359              		@ args = 0, pretend = 0, frame = 0
 360              		@ frame_needed = 0, uses_anonymous_args = 0
 361              		.loc 1 195 1 is_stmt 0 view .LVU85
 362 0000 2DE9F04F 		push	{r4, r5, r6, r7, r8, r9, r10, fp, lr}
 363              	.LCFI2:
 364              		.cfi_def_cfa_offset 36
 365              		.cfi_offset 4, -36
 366              		.cfi_offset 5, -32
 367              		.cfi_offset 6, -28
 368              		.cfi_offset 7, -24
 369              		.cfi_offset 8, -20
 370              		.cfi_offset 9, -16
 371              		.cfi_offset 10, -12
 372              		.cfi_offset 11, -8
 373              		.cfi_offset 14, -4
 374 0004 83B0     		sub	sp, sp, #12
 375              	.LCFI3:
 376              		.cfi_def_cfa_offset 48
ARM GAS  C:\Users\86188\AppData\Local\Temp\ccxMyyYF.s 			page 12


 377 0006 0F46     		mov	r7, r1
 196:ThirdPackage/lwip220/core/udp.c ****   struct udp_hdr *udphdr;
 378              		.loc 1 196 3 is_stmt 1 view .LVU86
 197:ThirdPackage/lwip220/core/udp.c ****   struct udp_pcb *pcb, *prev;
 379              		.loc 1 197 3 view .LVU87
 198:ThirdPackage/lwip220/core/udp.c ****   struct udp_pcb *uncon_pcb;
 380              		.loc 1 198 3 view .LVU88
 199:ThirdPackage/lwip220/core/udp.c ****   u16_t src, dest;
 381              		.loc 1 199 3 view .LVU89
 200:ThirdPackage/lwip220/core/udp.c ****   u8_t broadcast;
 382              		.loc 1 200 3 view .LVU90
 201:ThirdPackage/lwip220/core/udp.c ****   u8_t for_us = 0;
 383              		.loc 1 201 3 view .LVU91
 384              	.LVL23:
 202:ThirdPackage/lwip220/core/udp.c **** 
 203:ThirdPackage/lwip220/core/udp.c ****   LWIP_UNUSED_ARG(inp);
 385              		.loc 1 203 3 view .LVU92
 204:ThirdPackage/lwip220/core/udp.c **** 
 205:ThirdPackage/lwip220/core/udp.c ****   LWIP_ASSERT_CORE_LOCKED();
 386              		.loc 1 205 28 view .LVU93
 206:ThirdPackage/lwip220/core/udp.c **** 
 207:ThirdPackage/lwip220/core/udp.c ****   LWIP_ASSERT("udp_input: invalid pbuf", p != NULL);
 387              		.loc 1 207 3 view .LVU94
 388              		.loc 1 207 3 view .LVU95
 389 0008 8146     		mov	r9, r0
 390 000a D0B1     		cbz	r0, .L59
 391              	.LVL24:
 392              	.L38:
 393              		.loc 1 207 3 discriminator 3 view .LVU96
 394              		.loc 1 207 3 discriminator 3 view .LVU97
 208:ThirdPackage/lwip220/core/udp.c ****   LWIP_ASSERT("udp_input: invalid netif", inp != NULL);
 395              		.loc 1 208 3 discriminator 3 view .LVU98
 396              		.loc 1 208 3 discriminator 3 view .LVU99
 397 000c 07B3     		cbz	r7, .L60
 398              	.L39:
 399              		.loc 1 208 3 discriminator 3 view .LVU100
 400              		.loc 1 208 3 discriminator 3 view .LVU101
 209:ThirdPackage/lwip220/core/udp.c **** 
 210:ThirdPackage/lwip220/core/udp.c ****   PERF_START;
 401              		.loc 1 210 13 discriminator 3 view .LVU102
 211:ThirdPackage/lwip220/core/udp.c **** 
 212:ThirdPackage/lwip220/core/udp.c ****   UDP_STATS_INC(udp.recv);
 402              		.loc 1 212 26 discriminator 3 view .LVU103
 213:ThirdPackage/lwip220/core/udp.c **** 
 214:ThirdPackage/lwip220/core/udp.c ****   /* Check minimum length (UDP header) */
 215:ThirdPackage/lwip220/core/udp.c ****   if (p->len < UDP_HLEN) {
 403              		.loc 1 215 3 discriminator 3 view .LVU104
 404              		.loc 1 215 8 is_stmt 0 discriminator 3 view .LVU105
 405 000e B9F80A30 		ldrh	r3, [r9, #10]
 406              		.loc 1 215 6 discriminator 3 view .LVU106
 407 0012 072B     		cmp	r3, #7
 408 0014 23D9     		bls	.L61
 216:ThirdPackage/lwip220/core/udp.c ****     /* drop short packets */
 217:ThirdPackage/lwip220/core/udp.c ****     LWIP_DEBUGF(UDP_DEBUG,
 218:ThirdPackage/lwip220/core/udp.c ****                 ("udp_input: short UDP datagram (%"U16_F" bytes) discarded\n", p->tot_len));
 219:ThirdPackage/lwip220/core/udp.c ****     UDP_STATS_INC(udp.lenerr);
 220:ThirdPackage/lwip220/core/udp.c ****     UDP_STATS_INC(udp.drop);
ARM GAS  C:\Users\86188\AppData\Local\Temp\ccxMyyYF.s 			page 13


 221:ThirdPackage/lwip220/core/udp.c ****     MIB2_STATS_INC(mib2.udpinerrors);
 222:ThirdPackage/lwip220/core/udp.c ****     pbuf_free(p);
 223:ThirdPackage/lwip220/core/udp.c ****     goto end;
 224:ThirdPackage/lwip220/core/udp.c ****   }
 225:ThirdPackage/lwip220/core/udp.c **** 
 226:ThirdPackage/lwip220/core/udp.c ****   udphdr = (struct udp_hdr *)p->payload;
 409              		.loc 1 226 3 is_stmt 1 view .LVU107
 410              		.loc 1 226 10 is_stmt 0 view .LVU108
 411 0016 D9F80440 		ldr	r4, [r9, #4]
 412              	.LVL25:
 227:ThirdPackage/lwip220/core/udp.c **** 
 228:ThirdPackage/lwip220/core/udp.c ****   /* is broadcast packet ? */
 229:ThirdPackage/lwip220/core/udp.c ****   broadcast = ip_addr_isbroadcast(ip_current_dest_addr(), ip_current_netif());
 413              		.loc 1 229 3 is_stmt 1 view .LVU109
 414              		.loc 1 229 15 is_stmt 0 view .LVU110
 415 001a 524B     		ldr	r3, .L67
 416 001c 1968     		ldr	r1, [r3]
 417 001e 5869     		ldr	r0, [r3, #20]
 418 0020 FFF7FEFF 		bl	ip4_addr_isbroadcast_u32
 419              	.LVL26:
 420 0024 8046     		mov	r8, r0
 421              	.LVL27:
 230:ThirdPackage/lwip220/core/udp.c **** 
 231:ThirdPackage/lwip220/core/udp.c ****   LWIP_DEBUGF(UDP_DEBUG, ("udp_input: received datagram of length %"U16_F"\n", p->tot_len));
 422              		.loc 1 231 92 is_stmt 1 view .LVU111
 232:ThirdPackage/lwip220/core/udp.c **** 
 233:ThirdPackage/lwip220/core/udp.c ****   /* convert src and dest ports to host byte order */
 234:ThirdPackage/lwip220/core/udp.c ****   src = lwip_ntohs(udphdr->src);
 423              		.loc 1 234 3 view .LVU112
 424              		.loc 1 234 9 is_stmt 0 view .LVU113
 425 0026 2088     		ldrh	r0, [r4]	@ unaligned
 426 0028 FFF7FEFF 		bl	lwip_htons
 427              	.LVL28:
 428 002c 8246     		mov	r10, r0
 429              	.LVL29:
 235:ThirdPackage/lwip220/core/udp.c ****   dest = lwip_ntohs(udphdr->dest);
 430              		.loc 1 235 3 is_stmt 1 view .LVU114
 431              		.loc 1 235 10 is_stmt 0 view .LVU115
 432 002e 6088     		ldrh	r0, [r4, #2]	@ unaligned
 433 0030 FFF7FEFF 		bl	lwip_htons
 434              	.LVL30:
 435 0034 0546     		mov	r5, r0
 436              	.LVL31:
 236:ThirdPackage/lwip220/core/udp.c **** 
 237:ThirdPackage/lwip220/core/udp.c ****   udp_debug_print(udphdr);
 437              		.loc 1 237 26 is_stmt 1 view .LVU116
 238:ThirdPackage/lwip220/core/udp.c **** 
 239:ThirdPackage/lwip220/core/udp.c ****   /* print the UDP source and destination */
 240:ThirdPackage/lwip220/core/udp.c ****   LWIP_DEBUGF(UDP_DEBUG, ("udp ("));
 438              		.loc 1 240 36 view .LVU117
 241:ThirdPackage/lwip220/core/udp.c ****   ip_addr_debug_print_val(UDP_DEBUG, *ip_current_dest_addr());
 439              		.loc 1 241 62 view .LVU118
 242:ThirdPackage/lwip220/core/udp.c ****   LWIP_DEBUGF(UDP_DEBUG, (", %"U16_F") <-- (", lwip_ntohs(udphdr->dest)));
 440              		.loc 1 242 74 view .LVU119
 243:ThirdPackage/lwip220/core/udp.c ****   ip_addr_debug_print_val(UDP_DEBUG, *ip_current_src_addr());
 441              		.loc 1 243 61 view .LVU120
 244:ThirdPackage/lwip220/core/udp.c ****   LWIP_DEBUGF(UDP_DEBUG, (", %"U16_F")\n", lwip_ntohs(udphdr->src)));
ARM GAS  C:\Users\86188\AppData\Local\Temp\ccxMyyYF.s 			page 14


 442              		.loc 1 244 69 view .LVU121
 245:ThirdPackage/lwip220/core/udp.c **** 
 246:ThirdPackage/lwip220/core/udp.c ****   pcb = NULL;
 443              		.loc 1 246 3 view .LVU122
 247:ThirdPackage/lwip220/core/udp.c ****   prev = NULL;
 444              		.loc 1 247 3 view .LVU123
 248:ThirdPackage/lwip220/core/udp.c ****   uncon_pcb = NULL;
 445              		.loc 1 248 3 view .LVU124
 249:ThirdPackage/lwip220/core/udp.c ****   /* Iterate through the UDP pcb list for a matching pcb.
 250:ThirdPackage/lwip220/core/udp.c ****    * 'Perfect match' pcbs (connected to the remote port & ip address) are
 251:ThirdPackage/lwip220/core/udp.c ****    * preferred. If no perfect match is found, the first unconnected pcb that
 252:ThirdPackage/lwip220/core/udp.c ****    * matches the local port and ip address gets the datagram. */
 253:ThirdPackage/lwip220/core/udp.c ****   for (pcb = udp_pcbs; pcb != NULL; pcb = pcb->next) {
 446              		.loc 1 253 3 view .LVU125
 447              		.loc 1 253 12 is_stmt 0 view .LVU126
 448 0036 4C4B     		ldr	r3, .L67+4
 449 0038 1C68     		ldr	r4, [r3]
 450              	.LVL32:
 248:ThirdPackage/lwip220/core/udp.c ****   uncon_pcb = NULL;
 451              		.loc 1 248 13 view .LVU127
 452 003a 4FF0000B 		mov	fp, #0
 247:ThirdPackage/lwip220/core/udp.c ****   uncon_pcb = NULL;
 453              		.loc 1 247 8 view .LVU128
 454 003e 5E46     		mov	r6, fp
 455              		.loc 1 253 3 view .LVU129
 456 0040 19E0     		b	.L42
 457              	.LVL33:
 458              	.L59:
 207:ThirdPackage/lwip220/core/udp.c ****   LWIP_ASSERT("udp_input: invalid netif", inp != NULL);
 459              		.loc 1 207 3 is_stmt 1 discriminator 1 view .LVU130
 207:ThirdPackage/lwip220/core/udp.c ****   LWIP_ASSERT("udp_input: invalid netif", inp != NULL);
 460              		.loc 1 207 3 discriminator 1 view .LVU131
 461 0042 4A4B     		ldr	r3, .L67+8
 462 0044 CF22     		movs	r2, #207
 463 0046 4A49     		ldr	r1, .L67+12
 464              	.LVL34:
 207:ThirdPackage/lwip220/core/udp.c ****   LWIP_ASSERT("udp_input: invalid netif", inp != NULL);
 465              		.loc 1 207 3 is_stmt 0 discriminator 1 view .LVU132
 466 0048 4A48     		ldr	r0, .L67+16
 467              	.LVL35:
 207:ThirdPackage/lwip220/core/udp.c ****   LWIP_ASSERT("udp_input: invalid netif", inp != NULL);
 468              		.loc 1 207 3 discriminator 1 view .LVU133
 469 004a FFF7FEFF 		bl	printf
 470              	.LVL36:
 471 004e DDE7     		b	.L38
 472              	.L60:
 208:ThirdPackage/lwip220/core/udp.c **** 
 473              		.loc 1 208 3 is_stmt 1 discriminator 1 view .LVU134
 208:ThirdPackage/lwip220/core/udp.c **** 
 474              		.loc 1 208 3 discriminator 1 view .LVU135
 475 0050 464B     		ldr	r3, .L67+8
 476 0052 D022     		movs	r2, #208
 477 0054 4849     		ldr	r1, .L67+20
 478 0056 4748     		ldr	r0, .L67+16
 479 0058 FFF7FEFF 		bl	printf
 480              	.LVL37:
 481 005c D7E7     		b	.L39
ARM GAS  C:\Users\86188\AppData\Local\Temp\ccxMyyYF.s 			page 15


 482              	.L61:
 218:ThirdPackage/lwip220/core/udp.c ****     UDP_STATS_INC(udp.lenerr);
 483              		.loc 1 218 92 view .LVU136
 219:ThirdPackage/lwip220/core/udp.c ****     UDP_STATS_INC(udp.drop);
 484              		.loc 1 219 30 view .LVU137
 220:ThirdPackage/lwip220/core/udp.c ****     MIB2_STATS_INC(mib2.udpinerrors);
 485              		.loc 1 220 28 view .LVU138
 221:ThirdPackage/lwip220/core/udp.c ****     pbuf_free(p);
 486              		.loc 1 221 37 view .LVU139
 222:ThirdPackage/lwip220/core/udp.c ****     goto end;
 487              		.loc 1 222 5 view .LVU140
 488 005e 4846     		mov	r0, r9
 489 0060 FFF7FEFF 		bl	pbuf_free
 490              	.LVL38:
 223:ThirdPackage/lwip220/core/udp.c ****   }
 491              		.loc 1 223 5 view .LVU141
 492              	.L41:
 493              	.L37:
 254:ThirdPackage/lwip220/core/udp.c ****     /* print the PCB local and remote address */
 255:ThirdPackage/lwip220/core/udp.c ****     LWIP_DEBUGF(UDP_DEBUG, ("pcb ("));
 256:ThirdPackage/lwip220/core/udp.c ****     ip_addr_debug_print_val(UDP_DEBUG, pcb->local_ip);
 257:ThirdPackage/lwip220/core/udp.c ****     LWIP_DEBUGF(UDP_DEBUG, (", %"U16_F") <-- (", pcb->local_port));
 258:ThirdPackage/lwip220/core/udp.c ****     ip_addr_debug_print_val(UDP_DEBUG, pcb->remote_ip);
 259:ThirdPackage/lwip220/core/udp.c ****     LWIP_DEBUGF(UDP_DEBUG, (", %"U16_F")\n", pcb->remote_port));
 260:ThirdPackage/lwip220/core/udp.c **** 
 261:ThirdPackage/lwip220/core/udp.c ****     /* compare PCB local addr+port to UDP destination addr+port */
 262:ThirdPackage/lwip220/core/udp.c ****     if ((pcb->local_port == dest) &&
 263:ThirdPackage/lwip220/core/udp.c ****         (udp_input_local_match(pcb, inp, broadcast) != 0)) {
 264:ThirdPackage/lwip220/core/udp.c ****       if ((pcb->flags & UDP_FLAGS_CONNECTED) == 0) {
 265:ThirdPackage/lwip220/core/udp.c ****         if (uncon_pcb == NULL) {
 266:ThirdPackage/lwip220/core/udp.c ****           /* the first unconnected matching PCB */
 267:ThirdPackage/lwip220/core/udp.c ****           uncon_pcb = pcb;
 268:ThirdPackage/lwip220/core/udp.c **** #if LWIP_IPV4
 269:ThirdPackage/lwip220/core/udp.c ****         } else if (broadcast && ip4_current_dest_addr()->addr == IPADDR_BROADCAST) {
 270:ThirdPackage/lwip220/core/udp.c ****           /* global broadcast address (only valid for IPv4; match was checked before) */
 271:ThirdPackage/lwip220/core/udp.c ****           if (!IP_IS_V4_VAL(uncon_pcb->local_ip) || !ip4_addr_eq(ip_2_ip4(&uncon_pcb->local_ip), ne
 272:ThirdPackage/lwip220/core/udp.c ****             /* uncon_pcb does not match the input netif, check this pcb */
 273:ThirdPackage/lwip220/core/udp.c ****             if (IP_IS_V4_VAL(pcb->local_ip) && ip4_addr_eq(ip_2_ip4(&pcb->local_ip), netif_ip4_addr
 274:ThirdPackage/lwip220/core/udp.c ****               /* better match */
 275:ThirdPackage/lwip220/core/udp.c ****               uncon_pcb = pcb;
 276:ThirdPackage/lwip220/core/udp.c ****             }
 277:ThirdPackage/lwip220/core/udp.c ****           }
 278:ThirdPackage/lwip220/core/udp.c **** #endif /* LWIP_IPV4 */
 279:ThirdPackage/lwip220/core/udp.c ****         }
 280:ThirdPackage/lwip220/core/udp.c **** #if SO_REUSE
 281:ThirdPackage/lwip220/core/udp.c ****         else if (!ip_addr_isany(&pcb->local_ip)) {
 282:ThirdPackage/lwip220/core/udp.c ****           /* prefer specific IPs over catch-all */
 283:ThirdPackage/lwip220/core/udp.c ****           uncon_pcb = pcb;
 284:ThirdPackage/lwip220/core/udp.c ****         }
 285:ThirdPackage/lwip220/core/udp.c **** #endif /* SO_REUSE */
 286:ThirdPackage/lwip220/core/udp.c ****       }
 287:ThirdPackage/lwip220/core/udp.c **** 
 288:ThirdPackage/lwip220/core/udp.c ****       /* compare PCB remote addr+port to UDP source addr+port */
 289:ThirdPackage/lwip220/core/udp.c ****       if ((pcb->remote_port == src) &&
 290:ThirdPackage/lwip220/core/udp.c ****           (ip_addr_isany_val(pcb->remote_ip) ||
 291:ThirdPackage/lwip220/core/udp.c ****            ip_addr_eq(&pcb->remote_ip, ip_current_src_addr()))) {
 292:ThirdPackage/lwip220/core/udp.c ****         /* the first fully matching PCB */
ARM GAS  C:\Users\86188\AppData\Local\Temp\ccxMyyYF.s 			page 16


 293:ThirdPackage/lwip220/core/udp.c ****         if (prev != NULL) {
 294:ThirdPackage/lwip220/core/udp.c ****           /* move the pcb to the front of udp_pcbs so that is
 295:ThirdPackage/lwip220/core/udp.c ****              found faster next time */
 296:ThirdPackage/lwip220/core/udp.c ****           prev->next = pcb->next;
 297:ThirdPackage/lwip220/core/udp.c ****           pcb->next = udp_pcbs;
 298:ThirdPackage/lwip220/core/udp.c ****           udp_pcbs = pcb;
 299:ThirdPackage/lwip220/core/udp.c ****         } else {
 300:ThirdPackage/lwip220/core/udp.c ****           UDP_STATS_INC(udp.cachehit);
 301:ThirdPackage/lwip220/core/udp.c ****         }
 302:ThirdPackage/lwip220/core/udp.c ****         break;
 303:ThirdPackage/lwip220/core/udp.c ****       }
 304:ThirdPackage/lwip220/core/udp.c ****     }
 305:ThirdPackage/lwip220/core/udp.c **** 
 306:ThirdPackage/lwip220/core/udp.c ****     prev = pcb;
 307:ThirdPackage/lwip220/core/udp.c ****   }
 308:ThirdPackage/lwip220/core/udp.c ****   /* no fully matching pcb found? then look for an unconnected pcb */
 309:ThirdPackage/lwip220/core/udp.c ****   if (pcb == NULL) {
 310:ThirdPackage/lwip220/core/udp.c ****     pcb = uncon_pcb;
 311:ThirdPackage/lwip220/core/udp.c ****   }
 312:ThirdPackage/lwip220/core/udp.c **** 
 313:ThirdPackage/lwip220/core/udp.c ****   /* Check checksum if this is a match or if it was directed at us. */
 314:ThirdPackage/lwip220/core/udp.c ****   if (pcb != NULL) {
 315:ThirdPackage/lwip220/core/udp.c ****     for_us = 1;
 316:ThirdPackage/lwip220/core/udp.c ****   } else {
 317:ThirdPackage/lwip220/core/udp.c **** #if LWIP_IPV6
 318:ThirdPackage/lwip220/core/udp.c ****     if (ip_current_is_v6()) {
 319:ThirdPackage/lwip220/core/udp.c ****       for_us = netif_get_ip6_addr_match(inp, ip6_current_dest_addr()) >= 0;
 320:ThirdPackage/lwip220/core/udp.c ****     }
 321:ThirdPackage/lwip220/core/udp.c **** #endif /* LWIP_IPV6 */
 322:ThirdPackage/lwip220/core/udp.c **** #if LWIP_IPV4
 323:ThirdPackage/lwip220/core/udp.c ****     if (!ip_current_is_v6()) {
 324:ThirdPackage/lwip220/core/udp.c ****       for_us = ip4_addr_eq(netif_ip4_addr(inp), ip4_current_dest_addr());
 325:ThirdPackage/lwip220/core/udp.c ****     }
 326:ThirdPackage/lwip220/core/udp.c **** #endif /* LWIP_IPV4 */
 327:ThirdPackage/lwip220/core/udp.c ****   }
 328:ThirdPackage/lwip220/core/udp.c **** 
 329:ThirdPackage/lwip220/core/udp.c ****   if (for_us) {
 330:ThirdPackage/lwip220/core/udp.c ****     LWIP_DEBUGF(UDP_DEBUG | LWIP_DBG_TRACE, ("udp_input: calculating checksum\n"));
 331:ThirdPackage/lwip220/core/udp.c **** #if CHECKSUM_CHECK_UDP
 332:ThirdPackage/lwip220/core/udp.c ****     IF__NETIF_CHECKSUM_ENABLED(inp, NETIF_CHECKSUM_CHECK_UDP) {
 333:ThirdPackage/lwip220/core/udp.c **** #if LWIP_UDPLITE
 334:ThirdPackage/lwip220/core/udp.c ****       if (ip_current_header_proto() == IP_PROTO_UDPLITE) {
 335:ThirdPackage/lwip220/core/udp.c ****         /* Do the UDP Lite checksum */
 336:ThirdPackage/lwip220/core/udp.c ****         u16_t chklen = lwip_ntohs(udphdr->len);
 337:ThirdPackage/lwip220/core/udp.c ****         if (chklen < sizeof(struct udp_hdr)) {
 338:ThirdPackage/lwip220/core/udp.c ****           if (chklen == 0) {
 339:ThirdPackage/lwip220/core/udp.c ****             /* For UDP-Lite, checksum length of 0 means checksum
 340:ThirdPackage/lwip220/core/udp.c ****                over the complete packet (See RFC 3828 chap. 3.1) */
 341:ThirdPackage/lwip220/core/udp.c ****             chklen = p->tot_len;
 342:ThirdPackage/lwip220/core/udp.c ****           } else {
 343:ThirdPackage/lwip220/core/udp.c ****             /* At least the UDP-Lite header must be covered by the
 344:ThirdPackage/lwip220/core/udp.c ****                checksum! (Again, see RFC 3828 chap. 3.1) */
 345:ThirdPackage/lwip220/core/udp.c ****             goto chkerr;
 346:ThirdPackage/lwip220/core/udp.c ****           }
 347:ThirdPackage/lwip220/core/udp.c ****         }
 348:ThirdPackage/lwip220/core/udp.c ****         if (ip_chksum_pseudo_partial(p, IP_PROTO_UDPLITE,
 349:ThirdPackage/lwip220/core/udp.c ****                                      p->tot_len, chklen,
ARM GAS  C:\Users\86188\AppData\Local\Temp\ccxMyyYF.s 			page 17


 350:ThirdPackage/lwip220/core/udp.c ****                                      ip_current_src_addr(), ip_current_dest_addr()) != 0) {
 351:ThirdPackage/lwip220/core/udp.c ****           goto chkerr;
 352:ThirdPackage/lwip220/core/udp.c ****         }
 353:ThirdPackage/lwip220/core/udp.c ****       } else
 354:ThirdPackage/lwip220/core/udp.c **** #endif /* LWIP_UDPLITE */
 355:ThirdPackage/lwip220/core/udp.c ****       {
 356:ThirdPackage/lwip220/core/udp.c ****         if (udphdr->chksum != 0) {
 357:ThirdPackage/lwip220/core/udp.c ****           if (ip_chksum_pseudo(p, IP_PROTO_UDP, p->tot_len,
 358:ThirdPackage/lwip220/core/udp.c ****                                ip_current_src_addr(),
 359:ThirdPackage/lwip220/core/udp.c ****                                ip_current_dest_addr()) != 0) {
 360:ThirdPackage/lwip220/core/udp.c ****             goto chkerr;
 361:ThirdPackage/lwip220/core/udp.c ****           }
 362:ThirdPackage/lwip220/core/udp.c ****         }
 363:ThirdPackage/lwip220/core/udp.c ****       }
 364:ThirdPackage/lwip220/core/udp.c ****     }
 365:ThirdPackage/lwip220/core/udp.c **** #endif /* CHECKSUM_CHECK_UDP */
 366:ThirdPackage/lwip220/core/udp.c ****     if (pbuf_remove_header(p, UDP_HLEN)) {
 367:ThirdPackage/lwip220/core/udp.c ****       /* Can we cope with this failing? Just assert for now */
 368:ThirdPackage/lwip220/core/udp.c ****       LWIP_ASSERT("pbuf_remove_header failed", 0);
 369:ThirdPackage/lwip220/core/udp.c ****       UDP_STATS_INC(udp.drop);
 370:ThirdPackage/lwip220/core/udp.c ****       MIB2_STATS_INC(mib2.udpinerrors);
 371:ThirdPackage/lwip220/core/udp.c ****       pbuf_free(p);
 372:ThirdPackage/lwip220/core/udp.c ****       goto end;
 373:ThirdPackage/lwip220/core/udp.c ****     }
 374:ThirdPackage/lwip220/core/udp.c **** 
 375:ThirdPackage/lwip220/core/udp.c ****     if (pcb != NULL) {
 376:ThirdPackage/lwip220/core/udp.c ****       MIB2_STATS_INC(mib2.udpindatagrams);
 377:ThirdPackage/lwip220/core/udp.c **** #if SO_REUSE && SO_REUSE_RXTOALL
 378:ThirdPackage/lwip220/core/udp.c ****       if (ip_get_option(pcb, SOF_REUSEADDR) &&
 379:ThirdPackage/lwip220/core/udp.c ****           (broadcast || ip_addr_ismulticast(ip_current_dest_addr()))) {
 380:ThirdPackage/lwip220/core/udp.c ****         /* pass broadcast- or multicast packets to all multicast pcbs
 381:ThirdPackage/lwip220/core/udp.c ****            if SOF_REUSEADDR is set on the first match */
 382:ThirdPackage/lwip220/core/udp.c ****         struct udp_pcb *mpcb;
 383:ThirdPackage/lwip220/core/udp.c ****         for (mpcb = udp_pcbs; mpcb != NULL; mpcb = mpcb->next) {
 384:ThirdPackage/lwip220/core/udp.c ****           if (mpcb != pcb) {
 385:ThirdPackage/lwip220/core/udp.c ****             /* compare PCB local addr+port to UDP destination addr+port */
 386:ThirdPackage/lwip220/core/udp.c ****             if ((mpcb->local_port == dest) &&
 387:ThirdPackage/lwip220/core/udp.c ****                 (udp_input_local_match(mpcb, inp, broadcast) != 0)) {
 388:ThirdPackage/lwip220/core/udp.c ****               /* pass a copy of the packet to all local matches */
 389:ThirdPackage/lwip220/core/udp.c ****               if (mpcb->recv != NULL) {
 390:ThirdPackage/lwip220/core/udp.c ****                 struct pbuf *q;
 391:ThirdPackage/lwip220/core/udp.c ****                 q = pbuf_clone(PBUF_RAW, PBUF_POOL, p);
 392:ThirdPackage/lwip220/core/udp.c ****                 if (q != NULL) {
 393:ThirdPackage/lwip220/core/udp.c ****                   mpcb->recv(mpcb->recv_arg, mpcb, q, ip_current_src_addr(), src);
 394:ThirdPackage/lwip220/core/udp.c ****                 }
 395:ThirdPackage/lwip220/core/udp.c ****               }
 396:ThirdPackage/lwip220/core/udp.c ****             }
 397:ThirdPackage/lwip220/core/udp.c ****           }
 398:ThirdPackage/lwip220/core/udp.c ****         }
 399:ThirdPackage/lwip220/core/udp.c ****       }
 400:ThirdPackage/lwip220/core/udp.c **** #endif /* SO_REUSE && SO_REUSE_RXTOALL */
 401:ThirdPackage/lwip220/core/udp.c ****       /* callback */
 402:ThirdPackage/lwip220/core/udp.c ****       if (pcb->recv != NULL) {
 403:ThirdPackage/lwip220/core/udp.c ****         /* now the recv function is responsible for freeing p */
 404:ThirdPackage/lwip220/core/udp.c ****         pcb->recv(pcb->recv_arg, pcb, p, ip_current_src_addr(), src);
 405:ThirdPackage/lwip220/core/udp.c ****       } else {
 406:ThirdPackage/lwip220/core/udp.c ****         /* no recv function registered? then we have to free the pbuf! */
ARM GAS  C:\Users\86188\AppData\Local\Temp\ccxMyyYF.s 			page 18


 407:ThirdPackage/lwip220/core/udp.c ****         pbuf_free(p);
 408:ThirdPackage/lwip220/core/udp.c ****         goto end;
 409:ThirdPackage/lwip220/core/udp.c ****       }
 410:ThirdPackage/lwip220/core/udp.c ****     } else {
 411:ThirdPackage/lwip220/core/udp.c ****       LWIP_DEBUGF(UDP_DEBUG | LWIP_DBG_TRACE, ("udp_input: not for us.\n"));
 412:ThirdPackage/lwip220/core/udp.c **** 
 413:ThirdPackage/lwip220/core/udp.c **** #if LWIP_ICMP || LWIP_ICMP6
 414:ThirdPackage/lwip220/core/udp.c ****       /* No match was found, send ICMP destination port unreachable unless
 415:ThirdPackage/lwip220/core/udp.c ****          destination address was broadcast/multicast. */
 416:ThirdPackage/lwip220/core/udp.c ****       if (!broadcast && !ip_addr_ismulticast(ip_current_dest_addr())) {
 417:ThirdPackage/lwip220/core/udp.c ****         /* move payload pointer back to ip header */
 418:ThirdPackage/lwip220/core/udp.c ****         pbuf_header_force(p, (s16_t)(ip_current_header_tot_len() + UDP_HLEN));
 419:ThirdPackage/lwip220/core/udp.c ****         icmp_port_unreach(ip_current_is_v6(), p);
 420:ThirdPackage/lwip220/core/udp.c ****       }
 421:ThirdPackage/lwip220/core/udp.c **** #endif /* LWIP_ICMP || LWIP_ICMP6 */
 422:ThirdPackage/lwip220/core/udp.c ****       UDP_STATS_INC(udp.proterr);
 423:ThirdPackage/lwip220/core/udp.c ****       UDP_STATS_INC(udp.drop);
 424:ThirdPackage/lwip220/core/udp.c ****       MIB2_STATS_INC(mib2.udpnoports);
 425:ThirdPackage/lwip220/core/udp.c ****       pbuf_free(p);
 426:ThirdPackage/lwip220/core/udp.c ****     }
 427:ThirdPackage/lwip220/core/udp.c ****   } else {
 428:ThirdPackage/lwip220/core/udp.c ****     pbuf_free(p);
 429:ThirdPackage/lwip220/core/udp.c ****   }
 430:ThirdPackage/lwip220/core/udp.c **** end:
 431:ThirdPackage/lwip220/core/udp.c ****   PERF_STOP("udp_input");
 432:ThirdPackage/lwip220/core/udp.c ****   return;
 433:ThirdPackage/lwip220/core/udp.c **** #if CHECKSUM_CHECK_UDP
 434:ThirdPackage/lwip220/core/udp.c **** chkerr:
 435:ThirdPackage/lwip220/core/udp.c ****   LWIP_DEBUGF(UDP_DEBUG | LWIP_DBG_LEVEL_SERIOUS,
 436:ThirdPackage/lwip220/core/udp.c ****               ("udp_input: UDP (or UDP Lite) datagram discarded due to failing checksum\n"));
 437:ThirdPackage/lwip220/core/udp.c ****   UDP_STATS_INC(udp.chkerr);
 438:ThirdPackage/lwip220/core/udp.c ****   UDP_STATS_INC(udp.drop);
 439:ThirdPackage/lwip220/core/udp.c ****   MIB2_STATS_INC(mib2.udpinerrors);
 440:ThirdPackage/lwip220/core/udp.c ****   pbuf_free(p);
 441:ThirdPackage/lwip220/core/udp.c ****   PERF_STOP("udp_input");
 442:ThirdPackage/lwip220/core/udp.c **** #endif /* CHECKSUM_CHECK_UDP */
 443:ThirdPackage/lwip220/core/udp.c **** }
 494              		.loc 1 443 1 is_stmt 0 view .LVU142
 495 0064 03B0     		add	sp, sp, #12
 496              	.LCFI4:
 497              		.cfi_remember_state
 498              		.cfi_def_cfa_offset 36
 499              		@ sp needed
 500 0066 BDE8F08F 		pop	{r4, r5, r6, r7, r8, r9, r10, fp, pc}
 501              	.LVL39:
 502              	.L55:
 503              	.LCFI5:
 504              		.cfi_restore_state
 267:ThirdPackage/lwip220/core/udp.c **** #if LWIP_IPV4
 505              		.loc 1 267 21 view .LVU143
 506 006a A346     		mov	fp, r4
 507              	.LVL40:
 508              	.L44:
 289:ThirdPackage/lwip220/core/udp.c ****           (ip_addr_isany_val(pcb->remote_ip) ||
 509              		.loc 1 289 7 is_stmt 1 view .LVU144
 289:ThirdPackage/lwip220/core/udp.c ****           (ip_addr_isany_val(pcb->remote_ip) ||
 510              		.loc 1 289 15 is_stmt 0 view .LVU145
ARM GAS  C:\Users\86188\AppData\Local\Temp\ccxMyyYF.s 			page 19


 511 006c A38A     		ldrh	r3, [r4, #20]
 289:ThirdPackage/lwip220/core/udp.c ****           (ip_addr_isany_val(pcb->remote_ip) ||
 512              		.loc 1 289 10 view .LVU146
 513 006e 5345     		cmp	r3, r10
 514 0070 26D0     		beq	.L62
 515              	.L43:
 306:ThirdPackage/lwip220/core/udp.c ****   }
 516              		.loc 1 306 5 is_stmt 1 discriminator 2 view .LVU147
 517              	.LVL41:
 253:ThirdPackage/lwip220/core/udp.c ****     /* print the PCB local and remote address */
 518              		.loc 1 253 37 discriminator 2 view .LVU148
 306:ThirdPackage/lwip220/core/udp.c ****   }
 519              		.loc 1 306 10 is_stmt 0 discriminator 2 view .LVU149
 520 0072 2646     		mov	r6, r4
 253:ThirdPackage/lwip220/core/udp.c ****     /* print the PCB local and remote address */
 521              		.loc 1 253 41 discriminator 2 view .LVU150
 522 0074 E468     		ldr	r4, [r4, #12]
 523              	.LVL42:
 524              	.L42:
 253:ThirdPackage/lwip220/core/udp.c ****     /* print the PCB local and remote address */
 525              		.loc 1 253 24 is_stmt 1 discriminator 1 view .LVU151
 253:ThirdPackage/lwip220/core/udp.c ****     /* print the PCB local and remote address */
 526              		.loc 1 253 3 is_stmt 0 discriminator 1 view .LVU152
 527 0076 002C     		cmp	r4, #0
 528 0078 2FD0     		beq	.L46
 255:ThirdPackage/lwip220/core/udp.c ****     ip_addr_debug_print_val(UDP_DEBUG, pcb->local_ip);
 529              		.loc 1 255 38 is_stmt 1 view .LVU153
 256:ThirdPackage/lwip220/core/udp.c ****     LWIP_DEBUGF(UDP_DEBUG, (", %"U16_F") <-- (", pcb->local_port));
 530              		.loc 1 256 54 view .LVU154
 257:ThirdPackage/lwip220/core/udp.c ****     ip_addr_debug_print_val(UDP_DEBUG, pcb->remote_ip);
 531              		.loc 1 257 67 view .LVU155
 258:ThirdPackage/lwip220/core/udp.c ****     LWIP_DEBUGF(UDP_DEBUG, (", %"U16_F")\n", pcb->remote_port));
 532              		.loc 1 258 55 view .LVU156
 259:ThirdPackage/lwip220/core/udp.c **** 
 533              		.loc 1 259 64 view .LVU157
 262:ThirdPackage/lwip220/core/udp.c ****         (udp_input_local_match(pcb, inp, broadcast) != 0)) {
 534              		.loc 1 262 5 view .LVU158
 262:ThirdPackage/lwip220/core/udp.c ****         (udp_input_local_match(pcb, inp, broadcast) != 0)) {
 535              		.loc 1 262 13 is_stmt 0 view .LVU159
 536 007a 638A     		ldrh	r3, [r4, #18]
 262:ThirdPackage/lwip220/core/udp.c ****         (udp_input_local_match(pcb, inp, broadcast) != 0)) {
 537              		.loc 1 262 8 view .LVU160
 538 007c AB42     		cmp	r3, r5
 539 007e F8D1     		bne	.L43
 263:ThirdPackage/lwip220/core/udp.c ****       if ((pcb->flags & UDP_FLAGS_CONNECTED) == 0) {
 540              		.loc 1 263 10 discriminator 1 view .LVU161
 541 0080 4246     		mov	r2, r8
 542 0082 3946     		mov	r1, r7
 543 0084 2046     		mov	r0, r4
 544 0086 FFF7FEFF 		bl	udp_input_local_match
 545              	.LVL43:
 262:ThirdPackage/lwip220/core/udp.c ****         (udp_input_local_match(pcb, inp, broadcast) != 0)) {
 546              		.loc 1 262 35 discriminator 1 view .LVU162
 547 008a 0028     		cmp	r0, #0
 548 008c F1D0     		beq	.L43
 264:ThirdPackage/lwip220/core/udp.c ****         if (uncon_pcb == NULL) {
 549              		.loc 1 264 7 is_stmt 1 view .LVU163
ARM GAS  C:\Users\86188\AppData\Local\Temp\ccxMyyYF.s 			page 20


 264:ThirdPackage/lwip220/core/udp.c ****         if (uncon_pcb == NULL) {
 550              		.loc 1 264 15 is_stmt 0 view .LVU164
 551 008e 237C     		ldrb	r3, [r4, #16]	@ zero_extendqisi2
 264:ThirdPackage/lwip220/core/udp.c ****         if (uncon_pcb == NULL) {
 552              		.loc 1 264 10 view .LVU165
 553 0090 13F0040F 		tst	r3, #4
 554 0094 EAD1     		bne	.L44
 265:ThirdPackage/lwip220/core/udp.c ****           /* the first unconnected matching PCB */
 555              		.loc 1 265 9 is_stmt 1 view .LVU166
 265:ThirdPackage/lwip220/core/udp.c ****           /* the first unconnected matching PCB */
 556              		.loc 1 265 12 is_stmt 0 view .LVU167
 557 0096 BBF1000F 		cmp	fp, #0
 558 009a E6D0     		beq	.L55
 269:ThirdPackage/lwip220/core/udp.c ****           /* global broadcast address (only valid for IPv4; match was checked before) */
 559              		.loc 1 269 16 is_stmt 1 view .LVU168
 269:ThirdPackage/lwip220/core/udp.c ****           /* global broadcast address (only valid for IPv4; match was checked before) */
 560              		.loc 1 269 19 is_stmt 0 view .LVU169
 561 009c B8F1000F 		cmp	r8, #0
 562 00a0 E4D0     		beq	.L44
 269:ThirdPackage/lwip220/core/udp.c ****           /* global broadcast address (only valid for IPv4; match was checked before) */
 563              		.loc 1 269 56 discriminator 1 view .LVU170
 564 00a2 304B     		ldr	r3, .L67
 565 00a4 5B69     		ldr	r3, [r3, #20]
 269:ThirdPackage/lwip220/core/udp.c ****           /* global broadcast address (only valid for IPv4; match was checked before) */
 566              		.loc 1 269 30 discriminator 1 view .LVU171
 567 00a6 B3F1FF3F 		cmp	r3, #-1
 568 00aa DFD1     		bne	.L44
 271:ThirdPackage/lwip220/core/udp.c ****             /* uncon_pcb does not match the input netif, check this pcb */
 569              		.loc 1 271 11 is_stmt 1 view .LVU172
 271:ThirdPackage/lwip220/core/udp.c ****             /* uncon_pcb does not match the input netif, check this pcb */
 570              		.loc 1 271 54 is_stmt 0 view .LVU173
 571 00ac DBF80020 		ldr	r2, [fp]
 572 00b0 7B68     		ldr	r3, [r7, #4]
 271:ThirdPackage/lwip220/core/udp.c ****             /* uncon_pcb does not match the input netif, check this pcb */
 573              		.loc 1 271 14 view .LVU174
 574 00b2 9A42     		cmp	r2, r3
 575 00b4 DAD0     		beq	.L44
 273:ThirdPackage/lwip220/core/udp.c ****               /* better match */
 576              		.loc 1 273 13 is_stmt 1 view .LVU175
 273:ThirdPackage/lwip220/core/udp.c ****               /* better match */
 577              		.loc 1 273 48 is_stmt 0 view .LVU176
 578 00b6 2268     		ldr	r2, [r4]
 273:ThirdPackage/lwip220/core/udp.c ****               /* better match */
 579              		.loc 1 273 16 view .LVU177
 580 00b8 9342     		cmp	r3, r2
 581 00ba D7D1     		bne	.L44
 275:ThirdPackage/lwip220/core/udp.c ****             }
 582              		.loc 1 275 25 view .LVU178
 583 00bc A346     		mov	fp, r4
 584              	.LVL44:
 275:ThirdPackage/lwip220/core/udp.c ****             }
 585              		.loc 1 275 25 view .LVU179
 586 00be D5E7     		b	.L44
 587              	.LVL45:
 588              	.L62:
 290:ThirdPackage/lwip220/core/udp.c ****            ip_addr_eq(&pcb->remote_ip, ip_current_src_addr()))) {
 589              		.loc 1 290 12 discriminator 1 view .LVU180
ARM GAS  C:\Users\86188\AppData\Local\Temp\ccxMyyYF.s 			page 21


 590 00c0 6368     		ldr	r3, [r4, #4]
 289:ThirdPackage/lwip220/core/udp.c ****           (ip_addr_isany_val(pcb->remote_ip) ||
 591              		.loc 1 289 37 discriminator 1 view .LVU181
 592 00c2 1BB1     		cbz	r3, .L45
 291:ThirdPackage/lwip220/core/udp.c ****         /* the first fully matching PCB */
 593              		.loc 1 291 12 view .LVU182
 594 00c4 274A     		ldr	r2, .L67
 595 00c6 1269     		ldr	r2, [r2, #16]
 290:ThirdPackage/lwip220/core/udp.c ****            ip_addr_eq(&pcb->remote_ip, ip_current_src_addr()))) {
 596              		.loc 1 290 46 view .LVU183
 597 00c8 9342     		cmp	r3, r2
 598 00ca D2D1     		bne	.L43
 599              	.L45:
 293:ThirdPackage/lwip220/core/udp.c ****           /* move the pcb to the front of udp_pcbs so that is
 600              		.loc 1 293 9 is_stmt 1 view .LVU184
 293:ThirdPackage/lwip220/core/udp.c ****           /* move the pcb to the front of udp_pcbs so that is
 601              		.loc 1 293 12 is_stmt 0 view .LVU185
 602 00cc 2EB1     		cbz	r6, .L46
 296:ThirdPackage/lwip220/core/udp.c ****           pcb->next = udp_pcbs;
 603              		.loc 1 296 11 is_stmt 1 view .LVU186
 296:ThirdPackage/lwip220/core/udp.c ****           pcb->next = udp_pcbs;
 604              		.loc 1 296 27 is_stmt 0 view .LVU187
 605 00ce E368     		ldr	r3, [r4, #12]
 296:ThirdPackage/lwip220/core/udp.c ****           pcb->next = udp_pcbs;
 606              		.loc 1 296 22 view .LVU188
 607 00d0 F360     		str	r3, [r6, #12]
 297:ThirdPackage/lwip220/core/udp.c ****           udp_pcbs = pcb;
 608              		.loc 1 297 11 is_stmt 1 view .LVU189
 297:ThirdPackage/lwip220/core/udp.c ****           udp_pcbs = pcb;
 609              		.loc 1 297 21 is_stmt 0 view .LVU190
 610 00d2 254B     		ldr	r3, .L67+4
 611 00d4 1A68     		ldr	r2, [r3]
 612 00d6 E260     		str	r2, [r4, #12]
 298:ThirdPackage/lwip220/core/udp.c ****         } else {
 613              		.loc 1 298 11 is_stmt 1 view .LVU191
 298:ThirdPackage/lwip220/core/udp.c ****         } else {
 614              		.loc 1 298 20 is_stmt 0 view .LVU192
 615 00d8 1C60     		str	r4, [r3]
 616              	.L46:
 309:ThirdPackage/lwip220/core/udp.c ****     pcb = uncon_pcb;
 617              		.loc 1 309 3 is_stmt 1 view .LVU193
 309:ThirdPackage/lwip220/core/udp.c ****     pcb = uncon_pcb;
 618              		.loc 1 309 6 is_stmt 0 view .LVU194
 619 00da 84B1     		cbz	r4, .L63
 620              	.LVL46:
 621              	.L48:
 314:ThirdPackage/lwip220/core/udp.c ****     for_us = 1;
 622              		.loc 1 314 3 is_stmt 1 view .LVU195
 314:ThirdPackage/lwip220/core/udp.c ****     for_us = 1;
 623              		.loc 1 314 6 is_stmt 0 view .LVU196
 624 00dc 8CB1     		cbz	r4, .L64
 625              	.LVL47:
 626              	.L49:
 330:ThirdPackage/lwip220/core/udp.c **** #if CHECKSUM_CHECK_UDP
 627              		.loc 1 330 83 is_stmt 1 view .LVU197
 366:ThirdPackage/lwip220/core/udp.c ****       /* Can we cope with this failing? Just assert for now */
 628              		.loc 1 366 5 view .LVU198
ARM GAS  C:\Users\86188\AppData\Local\Temp\ccxMyyYF.s 			page 22


 366:ThirdPackage/lwip220/core/udp.c ****       /* Can we cope with this failing? Just assert for now */
 629              		.loc 1 366 9 is_stmt 0 view .LVU199
 630 00de 0821     		movs	r1, #8
 631 00e0 4846     		mov	r0, r9
 632 00e2 FFF7FEFF 		bl	pbuf_remove_header
 633              	.LVL48:
 366:ThirdPackage/lwip220/core/udp.c ****       /* Can we cope with this failing? Just assert for now */
 634              		.loc 1 366 8 view .LVU200
 635 00e6 A8B9     		cbnz	r0, .L65
 375:ThirdPackage/lwip220/core/udp.c ****       MIB2_STATS_INC(mib2.udpindatagrams);
 636              		.loc 1 375 5 is_stmt 1 view .LVU201
 375:ThirdPackage/lwip220/core/udp.c ****       MIB2_STATS_INC(mib2.udpindatagrams);
 637              		.loc 1 375 8 is_stmt 0 view .LVU202
 638 00e8 1CB3     		cbz	r4, .L52
 376:ThirdPackage/lwip220/core/udp.c **** #if SO_REUSE && SO_REUSE_RXTOALL
 639              		.loc 1 376 42 is_stmt 1 view .LVU203
 402:ThirdPackage/lwip220/core/udp.c ****         /* now the recv function is responsible for freeing p */
 640              		.loc 1 402 7 view .LVU204
 402:ThirdPackage/lwip220/core/udp.c ****         /* now the recv function is responsible for freeing p */
 641              		.loc 1 402 14 is_stmt 0 view .LVU205
 642 00ea A569     		ldr	r5, [r4, #24]
 643              	.LVL49:
 402:ThirdPackage/lwip220/core/udp.c ****         /* now the recv function is responsible for freeing p */
 644              		.loc 1 402 10 view .LVU206
 645 00ec EDB1     		cbz	r5, .L53
 404:ThirdPackage/lwip220/core/udp.c ****       } else {
 646              		.loc 1 404 9 is_stmt 1 view .LVU207
 647 00ee E069     		ldr	r0, [r4, #28]
 648 00f0 CDF800A0 		str	r10, [sp]
 649 00f4 214B     		ldr	r3, .L67+24
 650 00f6 4A46     		mov	r2, r9
 651 00f8 2146     		mov	r1, r4
 652 00fa A847     		blx	r5
 653              	.LVL50:
 654 00fc B2E7     		b	.L37
 655              	.LVL51:
 656              	.L63:
 310:ThirdPackage/lwip220/core/udp.c ****   }
 657              		.loc 1 310 9 is_stmt 0 view .LVU208
 658 00fe 5C46     		mov	r4, fp
 659              	.LVL52:
 310:ThirdPackage/lwip220/core/udp.c ****   }
 660              		.loc 1 310 9 view .LVU209
 661 0100 ECE7     		b	.L48
 662              	.LVL53:
 663              	.L64:
 323:ThirdPackage/lwip220/core/udp.c ****       for_us = ip4_addr_eq(netif_ip4_addr(inp), ip4_current_dest_addr());
 664              		.loc 1 323 5 is_stmt 1 view .LVU210
 324:ThirdPackage/lwip220/core/udp.c ****     }
 665              		.loc 1 324 7 view .LVU211
 324:ThirdPackage/lwip220/core/udp.c ****     }
 666              		.loc 1 324 16 is_stmt 0 view .LVU212
 667 0102 7A68     		ldr	r2, [r7, #4]
 668 0104 174B     		ldr	r3, .L67
 669 0106 5B69     		ldr	r3, [r3, #20]
 670              	.LVL54:
 329:ThirdPackage/lwip220/core/udp.c ****     LWIP_DEBUGF(UDP_DEBUG | LWIP_DBG_TRACE, ("udp_input: calculating checksum\n"));
ARM GAS  C:\Users\86188\AppData\Local\Temp\ccxMyyYF.s 			page 23


 671              		.loc 1 329 3 is_stmt 1 view .LVU213
 329:ThirdPackage/lwip220/core/udp.c ****     LWIP_DEBUGF(UDP_DEBUG | LWIP_DBG_TRACE, ("udp_input: calculating checksum\n"));
 672              		.loc 1 329 6 is_stmt 0 view .LVU214
 673 0108 9A42     		cmp	r2, r3
 674 010a E8D0     		beq	.L49
 428:ThirdPackage/lwip220/core/udp.c ****   }
 675              		.loc 1 428 5 is_stmt 1 view .LVU215
 676 010c 4846     		mov	r0, r9
 677 010e FFF7FEFF 		bl	pbuf_free
 678              	.LVL55:
 431:ThirdPackage/lwip220/core/udp.c ****   return;
 679              		.loc 1 431 25 view .LVU216
 432:ThirdPackage/lwip220/core/udp.c **** #if CHECKSUM_CHECK_UDP
 680              		.loc 1 432 3 view .LVU217
 681 0112 A7E7     		b	.L37
 682              	.L65:
 368:ThirdPackage/lwip220/core/udp.c ****       UDP_STATS_INC(udp.drop);
 683              		.loc 1 368 7 discriminator 1 view .LVU218
 368:ThirdPackage/lwip220/core/udp.c ****       UDP_STATS_INC(udp.drop);
 684              		.loc 1 368 7 discriminator 1 view .LVU219
 368:ThirdPackage/lwip220/core/udp.c ****       UDP_STATS_INC(udp.drop);
 685              		.loc 1 368 7 discriminator 1 view .LVU220
 368:ThirdPackage/lwip220/core/udp.c ****       UDP_STATS_INC(udp.drop);
 686              		.loc 1 368 7 discriminator 1 view .LVU221
 687 0114 154B     		ldr	r3, .L67+8
 688 0116 4FF4B872 		mov	r2, #368
 689 011a 1949     		ldr	r1, .L67+28
 690 011c 1548     		ldr	r0, .L67+16
 691 011e FFF7FEFF 		bl	printf
 692              	.LVL56:
 368:ThirdPackage/lwip220/core/udp.c ****       UDP_STATS_INC(udp.drop);
 693              		.loc 1 368 7 discriminator 1 view .LVU222
 368:ThirdPackage/lwip220/core/udp.c ****       UDP_STATS_INC(udp.drop);
 694              		.loc 1 368 7 discriminator 1 view .LVU223
 369:ThirdPackage/lwip220/core/udp.c ****       MIB2_STATS_INC(mib2.udpinerrors);
 695              		.loc 1 369 30 discriminator 1 view .LVU224
 370:ThirdPackage/lwip220/core/udp.c ****       pbuf_free(p);
 696              		.loc 1 370 39 discriminator 1 view .LVU225
 371:ThirdPackage/lwip220/core/udp.c ****       goto end;
 697              		.loc 1 371 7 discriminator 1 view .LVU226
 698 0122 4846     		mov	r0, r9
 699 0124 FFF7FEFF 		bl	pbuf_free
 700              	.LVL57:
 372:ThirdPackage/lwip220/core/udp.c ****     }
 701              		.loc 1 372 7 discriminator 1 view .LVU227
 702 0128 9CE7     		b	.L37
 703              	.LVL58:
 704              	.L53:
 407:ThirdPackage/lwip220/core/udp.c ****         goto end;
 705              		.loc 1 407 9 view .LVU228
 706 012a 4846     		mov	r0, r9
 707 012c FFF7FEFF 		bl	pbuf_free
 708              	.LVL59:
 408:ThirdPackage/lwip220/core/udp.c ****       }
 709              		.loc 1 408 9 view .LVU229
 710 0130 98E7     		b	.L37
 711              	.LVL60:
ARM GAS  C:\Users\86188\AppData\Local\Temp\ccxMyyYF.s 			page 24


 712              	.L52:
 411:ThirdPackage/lwip220/core/udp.c **** 
 713              		.loc 1 411 76 view .LVU230
 416:ThirdPackage/lwip220/core/udp.c ****         /* move payload pointer back to ip header */
 714              		.loc 1 416 7 view .LVU231
 416:ThirdPackage/lwip220/core/udp.c ****         /* move payload pointer back to ip header */
 715              		.loc 1 416 10 is_stmt 0 view .LVU232
 716 0132 B8F1000F 		cmp	r8, #0
 717 0136 05D1     		bne	.L54
 416:ThirdPackage/lwip220/core/udp.c ****         /* move payload pointer back to ip header */
 718              		.loc 1 416 26 discriminator 1 view .LVU233
 719 0138 0A4B     		ldr	r3, .L67
 720 013a 5B69     		ldr	r3, [r3, #20]
 721 013c 03F0F003 		and	r3, r3, #240
 416:ThirdPackage/lwip220/core/udp.c ****         /* move payload pointer back to ip header */
 722              		.loc 1 416 22 discriminator 1 view .LVU234
 723 0140 E02B     		cmp	r3, #224
 724 0142 03D1     		bne	.L66
 725              	.L54:
 422:ThirdPackage/lwip220/core/udp.c ****       UDP_STATS_INC(udp.drop);
 726              		.loc 1 422 33 is_stmt 1 view .LVU235
 423:ThirdPackage/lwip220/core/udp.c ****       MIB2_STATS_INC(mib2.udpnoports);
 727              		.loc 1 423 30 view .LVU236
 424:ThirdPackage/lwip220/core/udp.c ****       pbuf_free(p);
 728              		.loc 1 424 38 view .LVU237
 425:ThirdPackage/lwip220/core/udp.c ****     }
 729              		.loc 1 425 7 view .LVU238
 730 0144 4846     		mov	r0, r9
 731 0146 FFF7FEFF 		bl	pbuf_free
 732              	.LVL61:
 733 014a 8BE7     		b	.L37
 734              	.L66:
 418:ThirdPackage/lwip220/core/udp.c ****         icmp_port_unreach(ip_current_is_v6(), p);
 735              		.loc 1 418 9 view .LVU239
 418:ThirdPackage/lwip220/core/udp.c ****         icmp_port_unreach(ip_current_is_v6(), p);
 736              		.loc 1 418 38 is_stmt 0 view .LVU240
 737 014c 054B     		ldr	r3, .L67
 738 014e 9989     		ldrh	r1, [r3, #12]
 418:ThirdPackage/lwip220/core/udp.c ****         icmp_port_unreach(ip_current_is_v6(), p);
 739              		.loc 1 418 66 view .LVU241
 740 0150 0831     		adds	r1, r1, #8
 418:ThirdPackage/lwip220/core/udp.c ****         icmp_port_unreach(ip_current_is_v6(), p);
 741              		.loc 1 418 9 view .LVU242
 742 0152 09B2     		sxth	r1, r1
 743 0154 4846     		mov	r0, r9
 744 0156 FFF7FEFF 		bl	pbuf_header_force
 745              	.LVL62:
 419:ThirdPackage/lwip220/core/udp.c ****       }
 746              		.loc 1 419 9 is_stmt 1 view .LVU243
 747 015a 0321     		movs	r1, #3
 748 015c 4846     		mov	r0, r9
 749 015e FFF7FEFF 		bl	icmp_dest_unreach
 750              	.LVL63:
 751 0162 EFE7     		b	.L54
 752              	.L68:
 753              		.align	2
 754              	.L67:
ARM GAS  C:\Users\86188\AppData\Local\Temp\ccxMyyYF.s 			page 25


 755 0164 00000000 		.word	ip_data
 756 0168 00000000 		.word	.LANCHOR1
 757 016c 00000000 		.word	.LC0
 758 0170 00000000 		.word	.LC4
 759 0174 44000000 		.word	.LC2
 760 0178 18000000 		.word	.LC5
 761 017c 10000000 		.word	ip_data+16
 762 0180 34000000 		.word	.LC6
 763              		.cfi_endproc
 764              	.LFE163:
 766              		.section	.text.udp_bind,"ax",%progbits
 767              		.align	1
 768              		.global	udp_bind
 769              		.syntax unified
 770              		.thumb
 771              		.thumb_func
 773              	udp_bind:
 774              	.LVL64:
 775              	.LFB168:
 444:ThirdPackage/lwip220/core/udp.c **** 
 445:ThirdPackage/lwip220/core/udp.c **** /**
 446:ThirdPackage/lwip220/core/udp.c ****  * @ingroup udp_raw
 447:ThirdPackage/lwip220/core/udp.c ****  * Sends the pbuf p using UDP. The pbuf is not deallocated.
 448:ThirdPackage/lwip220/core/udp.c ****  *
 449:ThirdPackage/lwip220/core/udp.c ****  *
 450:ThirdPackage/lwip220/core/udp.c ****  * @param pcb UDP PCB used to send the data.
 451:ThirdPackage/lwip220/core/udp.c ****  * @param p chain of pbuf's to be sent.
 452:ThirdPackage/lwip220/core/udp.c ****  *
 453:ThirdPackage/lwip220/core/udp.c ****  * The datagram will be sent to the current remote_ip & remote_port
 454:ThirdPackage/lwip220/core/udp.c ****  * stored in pcb. If the pcb is not bound to a port, it will
 455:ThirdPackage/lwip220/core/udp.c ****  * automatically be bound to a random port.
 456:ThirdPackage/lwip220/core/udp.c ****  *
 457:ThirdPackage/lwip220/core/udp.c ****  * @return lwIP error code.
 458:ThirdPackage/lwip220/core/udp.c ****  * - ERR_OK. Successful. No error occurred.
 459:ThirdPackage/lwip220/core/udp.c ****  * - ERR_MEM. Out of memory.
 460:ThirdPackage/lwip220/core/udp.c ****  * - ERR_RTE. Could not find route to destination address.
 461:ThirdPackage/lwip220/core/udp.c ****  * - ERR_VAL. No PCB or PCB is dual-stack
 462:ThirdPackage/lwip220/core/udp.c ****  * - More errors could be returned by lower protocol layers.
 463:ThirdPackage/lwip220/core/udp.c ****  *
 464:ThirdPackage/lwip220/core/udp.c ****  * @see udp_disconnect() udp_sendto()
 465:ThirdPackage/lwip220/core/udp.c ****  */
 466:ThirdPackage/lwip220/core/udp.c **** err_t
 467:ThirdPackage/lwip220/core/udp.c **** udp_send(struct udp_pcb *pcb, struct pbuf *p)
 468:ThirdPackage/lwip220/core/udp.c **** {
 469:ThirdPackage/lwip220/core/udp.c ****   LWIP_ERROR("udp_send: invalid pcb", pcb != NULL, return ERR_ARG);
 470:ThirdPackage/lwip220/core/udp.c ****   LWIP_ERROR("udp_send: invalid pbuf", p != NULL, return ERR_ARG);
 471:ThirdPackage/lwip220/core/udp.c **** 
 472:ThirdPackage/lwip220/core/udp.c ****   if (IP_IS_ANY_TYPE_VAL(pcb->remote_ip)) {
 473:ThirdPackage/lwip220/core/udp.c ****     return ERR_VAL;
 474:ThirdPackage/lwip220/core/udp.c ****   }
 475:ThirdPackage/lwip220/core/udp.c **** 
 476:ThirdPackage/lwip220/core/udp.c ****   /* send to the packet using remote ip and port stored in the pcb */
 477:ThirdPackage/lwip220/core/udp.c ****   return udp_sendto(pcb, p, &pcb->remote_ip, pcb->remote_port);
 478:ThirdPackage/lwip220/core/udp.c **** }
 479:ThirdPackage/lwip220/core/udp.c **** 
 480:ThirdPackage/lwip220/core/udp.c **** #if LWIP_CHECKSUM_ON_COPY && CHECKSUM_GEN_UDP
 481:ThirdPackage/lwip220/core/udp.c **** /** @ingroup udp_raw
ARM GAS  C:\Users\86188\AppData\Local\Temp\ccxMyyYF.s 			page 26


 482:ThirdPackage/lwip220/core/udp.c ****  * Same as udp_send() but with checksum
 483:ThirdPackage/lwip220/core/udp.c ****  */
 484:ThirdPackage/lwip220/core/udp.c **** err_t
 485:ThirdPackage/lwip220/core/udp.c **** udp_send_chksum(struct udp_pcb *pcb, struct pbuf *p,
 486:ThirdPackage/lwip220/core/udp.c ****                 u8_t have_chksum, u16_t chksum)
 487:ThirdPackage/lwip220/core/udp.c **** {
 488:ThirdPackage/lwip220/core/udp.c ****   LWIP_ERROR("udp_send_chksum: invalid pcb", pcb != NULL, return ERR_ARG);
 489:ThirdPackage/lwip220/core/udp.c ****   LWIP_ERROR("udp_send_chksum: invalid pbuf", p != NULL, return ERR_ARG);
 490:ThirdPackage/lwip220/core/udp.c **** 
 491:ThirdPackage/lwip220/core/udp.c ****   if (IP_IS_ANY_TYPE_VAL(pcb->remote_ip)) {
 492:ThirdPackage/lwip220/core/udp.c ****     return ERR_VAL;
 493:ThirdPackage/lwip220/core/udp.c ****   }
 494:ThirdPackage/lwip220/core/udp.c **** 
 495:ThirdPackage/lwip220/core/udp.c ****   /* send to the packet using remote ip and port stored in the pcb */
 496:ThirdPackage/lwip220/core/udp.c ****   return udp_sendto_chksum(pcb, p, &pcb->remote_ip, pcb->remote_port,
 497:ThirdPackage/lwip220/core/udp.c ****                            have_chksum, chksum);
 498:ThirdPackage/lwip220/core/udp.c **** }
 499:ThirdPackage/lwip220/core/udp.c **** #endif /* LWIP_CHECKSUM_ON_COPY && CHECKSUM_GEN_UDP */
 500:ThirdPackage/lwip220/core/udp.c **** 
 501:ThirdPackage/lwip220/core/udp.c **** /**
 502:ThirdPackage/lwip220/core/udp.c ****  * @ingroup udp_raw
 503:ThirdPackage/lwip220/core/udp.c ****  * Send data to a specified address using UDP.
 504:ThirdPackage/lwip220/core/udp.c ****  *
 505:ThirdPackage/lwip220/core/udp.c ****  * @param pcb UDP PCB used to send the data.
 506:ThirdPackage/lwip220/core/udp.c ****  * @param p chain of pbuf's to be sent.
 507:ThirdPackage/lwip220/core/udp.c ****  * @param dst_ip Destination IP address.
 508:ThirdPackage/lwip220/core/udp.c ****  * @param dst_port Destination UDP port.
 509:ThirdPackage/lwip220/core/udp.c ****  *
 510:ThirdPackage/lwip220/core/udp.c ****  * dst_ip & dst_port are expected to be in the same byte order as in the pcb.
 511:ThirdPackage/lwip220/core/udp.c ****  *
 512:ThirdPackage/lwip220/core/udp.c ****  * If the PCB already has a remote address association, it will
 513:ThirdPackage/lwip220/core/udp.c ****  * be restored after the data is sent.
 514:ThirdPackage/lwip220/core/udp.c ****  *
 515:ThirdPackage/lwip220/core/udp.c ****  * @return lwIP error code (@see udp_send for possible error codes)
 516:ThirdPackage/lwip220/core/udp.c ****  *
 517:ThirdPackage/lwip220/core/udp.c ****  * @see udp_disconnect() udp_send()
 518:ThirdPackage/lwip220/core/udp.c ****  */
 519:ThirdPackage/lwip220/core/udp.c **** err_t
 520:ThirdPackage/lwip220/core/udp.c **** udp_sendto(struct udp_pcb *pcb, struct pbuf *p,
 521:ThirdPackage/lwip220/core/udp.c ****            const ip_addr_t *dst_ip, u16_t dst_port)
 522:ThirdPackage/lwip220/core/udp.c **** {
 523:ThirdPackage/lwip220/core/udp.c **** #if LWIP_CHECKSUM_ON_COPY && CHECKSUM_GEN_UDP
 524:ThirdPackage/lwip220/core/udp.c ****   return udp_sendto_chksum(pcb, p, dst_ip, dst_port, 0, 0);
 525:ThirdPackage/lwip220/core/udp.c **** }
 526:ThirdPackage/lwip220/core/udp.c **** 
 527:ThirdPackage/lwip220/core/udp.c **** /** @ingroup udp_raw
 528:ThirdPackage/lwip220/core/udp.c ****  * Same as udp_sendto(), but with checksum */
 529:ThirdPackage/lwip220/core/udp.c **** err_t
 530:ThirdPackage/lwip220/core/udp.c **** udp_sendto_chksum(struct udp_pcb *pcb, struct pbuf *p, const ip_addr_t *dst_ip,
 531:ThirdPackage/lwip220/core/udp.c ****                   u16_t dst_port, u8_t have_chksum, u16_t chksum)
 532:ThirdPackage/lwip220/core/udp.c **** {
 533:ThirdPackage/lwip220/core/udp.c **** #endif /* LWIP_CHECKSUM_ON_COPY && CHECKSUM_GEN_UDP */
 534:ThirdPackage/lwip220/core/udp.c ****   struct netif *netif;
 535:ThirdPackage/lwip220/core/udp.c **** 
 536:ThirdPackage/lwip220/core/udp.c ****   LWIP_ERROR("udp_sendto: invalid pcb", pcb != NULL, return ERR_ARG);
 537:ThirdPackage/lwip220/core/udp.c ****   LWIP_ERROR("udp_sendto: invalid pbuf", p != NULL, return ERR_ARG);
 538:ThirdPackage/lwip220/core/udp.c ****   LWIP_ERROR("udp_sendto: invalid dst_ip", dst_ip != NULL, return ERR_ARG);
ARM GAS  C:\Users\86188\AppData\Local\Temp\ccxMyyYF.s 			page 27


 539:ThirdPackage/lwip220/core/udp.c **** 
 540:ThirdPackage/lwip220/core/udp.c ****   if (!IP_ADDR_PCB_VERSION_MATCH(pcb, dst_ip)) {
 541:ThirdPackage/lwip220/core/udp.c ****     return ERR_VAL;
 542:ThirdPackage/lwip220/core/udp.c ****   }
 543:ThirdPackage/lwip220/core/udp.c **** 
 544:ThirdPackage/lwip220/core/udp.c ****   LWIP_DEBUGF(UDP_DEBUG | LWIP_DBG_TRACE, ("udp_send\n"));
 545:ThirdPackage/lwip220/core/udp.c **** 
 546:ThirdPackage/lwip220/core/udp.c ****   if (pcb->netif_idx != NETIF_NO_INDEX) {
 547:ThirdPackage/lwip220/core/udp.c ****     netif = netif_get_by_index(pcb->netif_idx);
 548:ThirdPackage/lwip220/core/udp.c ****   } else {
 549:ThirdPackage/lwip220/core/udp.c **** #if LWIP_MULTICAST_TX_OPTIONS
 550:ThirdPackage/lwip220/core/udp.c ****     netif = NULL;
 551:ThirdPackage/lwip220/core/udp.c ****     if (ip_addr_ismulticast(dst_ip)) {
 552:ThirdPackage/lwip220/core/udp.c ****       /* For IPv6, the interface to use for packets with a multicast destination
 553:ThirdPackage/lwip220/core/udp.c ****        * is specified using an interface index. The same approach may be used for
 554:ThirdPackage/lwip220/core/udp.c ****        * IPv4 as well, in which case it overrides the IPv4 multicast override
 555:ThirdPackage/lwip220/core/udp.c ****        * address below. Here we have to look up the netif by going through the
 556:ThirdPackage/lwip220/core/udp.c ****        * list, but by doing so we skip a route lookup. If the interface index has
 557:ThirdPackage/lwip220/core/udp.c ****        * gone stale, we fall through and do the regular route lookup after all. */
 558:ThirdPackage/lwip220/core/udp.c ****       if (pcb->mcast_ifindex != NETIF_NO_INDEX) {
 559:ThirdPackage/lwip220/core/udp.c ****         netif = netif_get_by_index(pcb->mcast_ifindex);
 560:ThirdPackage/lwip220/core/udp.c ****       }
 561:ThirdPackage/lwip220/core/udp.c **** #if LWIP_IPV4
 562:ThirdPackage/lwip220/core/udp.c ****       else
 563:ThirdPackage/lwip220/core/udp.c **** #if LWIP_IPV6
 564:ThirdPackage/lwip220/core/udp.c ****         if (IP_IS_V4(dst_ip))
 565:ThirdPackage/lwip220/core/udp.c **** #endif /* LWIP_IPV6 */
 566:ThirdPackage/lwip220/core/udp.c ****         {
 567:ThirdPackage/lwip220/core/udp.c ****           /* IPv4 does not use source-based routing by default, so we use an
 568:ThirdPackage/lwip220/core/udp.c ****              administratively selected interface for multicast by default.
 569:ThirdPackage/lwip220/core/udp.c ****              However, this can be overridden by setting an interface address
 570:ThirdPackage/lwip220/core/udp.c ****              in pcb->mcast_ip4 that is used for routing. If this routing lookup
 571:ThirdPackage/lwip220/core/udp.c ****              fails, we try regular routing as though no override was set. */
 572:ThirdPackage/lwip220/core/udp.c ****           if (!ip4_addr_isany_val(pcb->mcast_ip4) &&
 573:ThirdPackage/lwip220/core/udp.c ****               !ip4_addr_eq(&pcb->mcast_ip4, IP4_ADDR_BROADCAST)) {
 574:ThirdPackage/lwip220/core/udp.c ****             netif = ip4_route_src(ip_2_ip4(&pcb->local_ip), &pcb->mcast_ip4);
 575:ThirdPackage/lwip220/core/udp.c ****           }
 576:ThirdPackage/lwip220/core/udp.c ****         }
 577:ThirdPackage/lwip220/core/udp.c **** #endif /* LWIP_IPV4 */
 578:ThirdPackage/lwip220/core/udp.c ****     }
 579:ThirdPackage/lwip220/core/udp.c **** 
 580:ThirdPackage/lwip220/core/udp.c ****     if (netif == NULL)
 581:ThirdPackage/lwip220/core/udp.c **** #endif /* LWIP_MULTICAST_TX_OPTIONS */
 582:ThirdPackage/lwip220/core/udp.c ****     {
 583:ThirdPackage/lwip220/core/udp.c ****       /* find the outgoing network interface for this packet */
 584:ThirdPackage/lwip220/core/udp.c ****       netif = ip_route(&pcb->local_ip, dst_ip);
 585:ThirdPackage/lwip220/core/udp.c ****     }
 586:ThirdPackage/lwip220/core/udp.c ****   }
 587:ThirdPackage/lwip220/core/udp.c **** 
 588:ThirdPackage/lwip220/core/udp.c ****   /* no outgoing network interface could be found? */
 589:ThirdPackage/lwip220/core/udp.c ****   if (netif == NULL) {
 590:ThirdPackage/lwip220/core/udp.c ****     LWIP_DEBUGF(UDP_DEBUG | LWIP_DBG_LEVEL_SERIOUS, ("udp_send: No route to "));
 591:ThirdPackage/lwip220/core/udp.c ****     ip_addr_debug_print(UDP_DEBUG | LWIP_DBG_LEVEL_SERIOUS, dst_ip);
 592:ThirdPackage/lwip220/core/udp.c ****     LWIP_DEBUGF(UDP_DEBUG, ("\n"));
 593:ThirdPackage/lwip220/core/udp.c ****     UDP_STATS_INC(udp.rterr);
 594:ThirdPackage/lwip220/core/udp.c ****     return ERR_RTE;
 595:ThirdPackage/lwip220/core/udp.c ****   }
ARM GAS  C:\Users\86188\AppData\Local\Temp\ccxMyyYF.s 			page 28


 596:ThirdPackage/lwip220/core/udp.c **** #if LWIP_CHECKSUM_ON_COPY && CHECKSUM_GEN_UDP
 597:ThirdPackage/lwip220/core/udp.c ****   return udp_sendto_if_chksum(pcb, p, dst_ip, dst_port, netif, have_chksum, chksum);
 598:ThirdPackage/lwip220/core/udp.c **** #else /* LWIP_CHECKSUM_ON_COPY && CHECKSUM_GEN_UDP */
 599:ThirdPackage/lwip220/core/udp.c ****   return udp_sendto_if(pcb, p, dst_ip, dst_port, netif);
 600:ThirdPackage/lwip220/core/udp.c **** #endif /* LWIP_CHECKSUM_ON_COPY && CHECKSUM_GEN_UDP */
 601:ThirdPackage/lwip220/core/udp.c **** }
 602:ThirdPackage/lwip220/core/udp.c **** 
 603:ThirdPackage/lwip220/core/udp.c **** /**
 604:ThirdPackage/lwip220/core/udp.c ****  * @ingroup udp_raw
 605:ThirdPackage/lwip220/core/udp.c ****  * Send data to a specified address using UDP.
 606:ThirdPackage/lwip220/core/udp.c ****  * The netif used for sending can be specified.
 607:ThirdPackage/lwip220/core/udp.c ****  *
 608:ThirdPackage/lwip220/core/udp.c ****  * This function exists mainly for DHCP, to be able to send UDP packets
 609:ThirdPackage/lwip220/core/udp.c ****  * on a netif that is still down.
 610:ThirdPackage/lwip220/core/udp.c ****  *
 611:ThirdPackage/lwip220/core/udp.c ****  * @param pcb UDP PCB used to send the data.
 612:ThirdPackage/lwip220/core/udp.c ****  * @param p chain of pbuf's to be sent.
 613:ThirdPackage/lwip220/core/udp.c ****  * @param dst_ip Destination IP address.
 614:ThirdPackage/lwip220/core/udp.c ****  * @param dst_port Destination UDP port.
 615:ThirdPackage/lwip220/core/udp.c ****  * @param netif the netif used for sending.
 616:ThirdPackage/lwip220/core/udp.c ****  *
 617:ThirdPackage/lwip220/core/udp.c ****  * dst_ip & dst_port are expected to be in the same byte order as in the pcb.
 618:ThirdPackage/lwip220/core/udp.c ****  *
 619:ThirdPackage/lwip220/core/udp.c ****  * @return lwIP error code (@see udp_send for possible error codes)
 620:ThirdPackage/lwip220/core/udp.c ****  *
 621:ThirdPackage/lwip220/core/udp.c ****  * @see udp_disconnect() udp_send()
 622:ThirdPackage/lwip220/core/udp.c ****  */
 623:ThirdPackage/lwip220/core/udp.c **** err_t
 624:ThirdPackage/lwip220/core/udp.c **** udp_sendto_if(struct udp_pcb *pcb, struct pbuf *p,
 625:ThirdPackage/lwip220/core/udp.c ****               const ip_addr_t *dst_ip, u16_t dst_port, struct netif *netif)
 626:ThirdPackage/lwip220/core/udp.c **** {
 627:ThirdPackage/lwip220/core/udp.c **** #if LWIP_CHECKSUM_ON_COPY && CHECKSUM_GEN_UDP
 628:ThirdPackage/lwip220/core/udp.c ****   return udp_sendto_if_chksum(pcb, p, dst_ip, dst_port, netif, 0, 0);
 629:ThirdPackage/lwip220/core/udp.c **** }
 630:ThirdPackage/lwip220/core/udp.c **** 
 631:ThirdPackage/lwip220/core/udp.c **** /** Same as udp_sendto_if(), but with checksum */
 632:ThirdPackage/lwip220/core/udp.c **** err_t
 633:ThirdPackage/lwip220/core/udp.c **** udp_sendto_if_chksum(struct udp_pcb *pcb, struct pbuf *p, const ip_addr_t *dst_ip,
 634:ThirdPackage/lwip220/core/udp.c ****                      u16_t dst_port, struct netif *netif, u8_t have_chksum,
 635:ThirdPackage/lwip220/core/udp.c ****                      u16_t chksum)
 636:ThirdPackage/lwip220/core/udp.c **** {
 637:ThirdPackage/lwip220/core/udp.c **** #endif /* LWIP_CHECKSUM_ON_COPY && CHECKSUM_GEN_UDP */
 638:ThirdPackage/lwip220/core/udp.c ****   const ip_addr_t *src_ip;
 639:ThirdPackage/lwip220/core/udp.c **** 
 640:ThirdPackage/lwip220/core/udp.c ****   LWIP_ERROR("udp_sendto_if: invalid pcb", pcb != NULL, return ERR_ARG);
 641:ThirdPackage/lwip220/core/udp.c ****   LWIP_ERROR("udp_sendto_if: invalid pbuf", p != NULL, return ERR_ARG);
 642:ThirdPackage/lwip220/core/udp.c ****   LWIP_ERROR("udp_sendto_if: invalid dst_ip", dst_ip != NULL, return ERR_ARG);
 643:ThirdPackage/lwip220/core/udp.c ****   LWIP_ERROR("udp_sendto_if: invalid netif", netif != NULL, return ERR_ARG);
 644:ThirdPackage/lwip220/core/udp.c **** 
 645:ThirdPackage/lwip220/core/udp.c ****   if (!IP_ADDR_PCB_VERSION_MATCH(pcb, dst_ip)) {
 646:ThirdPackage/lwip220/core/udp.c ****     return ERR_VAL;
 647:ThirdPackage/lwip220/core/udp.c ****   }
 648:ThirdPackage/lwip220/core/udp.c **** 
 649:ThirdPackage/lwip220/core/udp.c ****   /* PCB local address is IP_ANY_ADDR or multicast? */
 650:ThirdPackage/lwip220/core/udp.c **** #if LWIP_IPV6
 651:ThirdPackage/lwip220/core/udp.c ****   if (IP_IS_V6(dst_ip)) {
 652:ThirdPackage/lwip220/core/udp.c ****     if (ip6_addr_isany(ip_2_ip6(&pcb->local_ip)) ||
ARM GAS  C:\Users\86188\AppData\Local\Temp\ccxMyyYF.s 			page 29


 653:ThirdPackage/lwip220/core/udp.c ****         ip6_addr_ismulticast(ip_2_ip6(&pcb->local_ip))) {
 654:ThirdPackage/lwip220/core/udp.c ****       src_ip = ip6_select_source_address(netif, ip_2_ip6(dst_ip));
 655:ThirdPackage/lwip220/core/udp.c ****       if (src_ip == NULL) {
 656:ThirdPackage/lwip220/core/udp.c ****         /* No suitable source address was found. */
 657:ThirdPackage/lwip220/core/udp.c ****         return ERR_RTE;
 658:ThirdPackage/lwip220/core/udp.c ****       }
 659:ThirdPackage/lwip220/core/udp.c ****     } else {
 660:ThirdPackage/lwip220/core/udp.c ****       /* use UDP PCB local IPv6 address as source address, if still valid. */
 661:ThirdPackage/lwip220/core/udp.c ****       if (netif_get_ip6_addr_match(netif, ip_2_ip6(&pcb->local_ip)) < 0) {
 662:ThirdPackage/lwip220/core/udp.c ****         /* Address isn't valid anymore. */
 663:ThirdPackage/lwip220/core/udp.c ****         return ERR_RTE;
 664:ThirdPackage/lwip220/core/udp.c ****       }
 665:ThirdPackage/lwip220/core/udp.c ****       src_ip = &pcb->local_ip;
 666:ThirdPackage/lwip220/core/udp.c ****     }
 667:ThirdPackage/lwip220/core/udp.c ****   }
 668:ThirdPackage/lwip220/core/udp.c **** #endif /* LWIP_IPV6 */
 669:ThirdPackage/lwip220/core/udp.c **** #if LWIP_IPV4 && LWIP_IPV6
 670:ThirdPackage/lwip220/core/udp.c ****   else
 671:ThirdPackage/lwip220/core/udp.c **** #endif /* LWIP_IPV4 && LWIP_IPV6 */
 672:ThirdPackage/lwip220/core/udp.c **** #if LWIP_IPV4
 673:ThirdPackage/lwip220/core/udp.c ****     if (ip4_addr_isany(ip_2_ip4(&pcb->local_ip)) ||
 674:ThirdPackage/lwip220/core/udp.c ****         ip4_addr_ismulticast(ip_2_ip4(&pcb->local_ip))) {
 675:ThirdPackage/lwip220/core/udp.c ****       /* if the local_ip is any or multicast
 676:ThirdPackage/lwip220/core/udp.c ****        * use the outgoing network interface IP address as source address */
 677:ThirdPackage/lwip220/core/udp.c ****       src_ip = netif_ip_addr4(netif);
 678:ThirdPackage/lwip220/core/udp.c ****     } else {
 679:ThirdPackage/lwip220/core/udp.c ****       /* check if UDP PCB local IP address is correct
 680:ThirdPackage/lwip220/core/udp.c ****        * this could be an old address if netif->ip_addr has changed */
 681:ThirdPackage/lwip220/core/udp.c ****       if (!ip4_addr_eq(ip_2_ip4(&(pcb->local_ip)), netif_ip4_addr(netif))) {
 682:ThirdPackage/lwip220/core/udp.c ****         /* local_ip doesn't match, drop the packet */
 683:ThirdPackage/lwip220/core/udp.c ****         return ERR_RTE;
 684:ThirdPackage/lwip220/core/udp.c ****       }
 685:ThirdPackage/lwip220/core/udp.c ****       /* use UDP PCB local IP address as source address */
 686:ThirdPackage/lwip220/core/udp.c ****       src_ip = &pcb->local_ip;
 687:ThirdPackage/lwip220/core/udp.c ****     }
 688:ThirdPackage/lwip220/core/udp.c **** #endif /* LWIP_IPV4 */
 689:ThirdPackage/lwip220/core/udp.c **** #if LWIP_CHECKSUM_ON_COPY && CHECKSUM_GEN_UDP
 690:ThirdPackage/lwip220/core/udp.c ****   return udp_sendto_if_src_chksum(pcb, p, dst_ip, dst_port, netif, have_chksum, chksum, src_ip);
 691:ThirdPackage/lwip220/core/udp.c **** #else /* LWIP_CHECKSUM_ON_COPY && CHECKSUM_GEN_UDP */
 692:ThirdPackage/lwip220/core/udp.c ****   return udp_sendto_if_src(pcb, p, dst_ip, dst_port, netif, src_ip);
 693:ThirdPackage/lwip220/core/udp.c **** #endif /* LWIP_CHECKSUM_ON_COPY && CHECKSUM_GEN_UDP */
 694:ThirdPackage/lwip220/core/udp.c **** }
 695:ThirdPackage/lwip220/core/udp.c **** 
 696:ThirdPackage/lwip220/core/udp.c **** /** @ingroup udp_raw
 697:ThirdPackage/lwip220/core/udp.c ****  * Same as @ref udp_sendto_if, but with source address */
 698:ThirdPackage/lwip220/core/udp.c **** err_t
 699:ThirdPackage/lwip220/core/udp.c **** udp_sendto_if_src(struct udp_pcb *pcb, struct pbuf *p,
 700:ThirdPackage/lwip220/core/udp.c ****                   const ip_addr_t *dst_ip, u16_t dst_port, struct netif *netif, const ip_addr_t *sr
 701:ThirdPackage/lwip220/core/udp.c **** {
 702:ThirdPackage/lwip220/core/udp.c **** #if LWIP_CHECKSUM_ON_COPY && CHECKSUM_GEN_UDP
 703:ThirdPackage/lwip220/core/udp.c ****   return udp_sendto_if_src_chksum(pcb, p, dst_ip, dst_port, netif, 0, 0, src_ip);
 704:ThirdPackage/lwip220/core/udp.c **** }
 705:ThirdPackage/lwip220/core/udp.c **** 
 706:ThirdPackage/lwip220/core/udp.c **** /** Same as udp_sendto_if_src(), but with checksum */
 707:ThirdPackage/lwip220/core/udp.c **** err_t
 708:ThirdPackage/lwip220/core/udp.c **** udp_sendto_if_src_chksum(struct udp_pcb *pcb, struct pbuf *p, const ip_addr_t *dst_ip,
 709:ThirdPackage/lwip220/core/udp.c ****                          u16_t dst_port, struct netif *netif, u8_t have_chksum,
ARM GAS  C:\Users\86188\AppData\Local\Temp\ccxMyyYF.s 			page 30


 710:ThirdPackage/lwip220/core/udp.c ****                          u16_t chksum, const ip_addr_t *src_ip)
 711:ThirdPackage/lwip220/core/udp.c **** {
 712:ThirdPackage/lwip220/core/udp.c **** #endif /* LWIP_CHECKSUM_ON_COPY && CHECKSUM_GEN_UDP */
 713:ThirdPackage/lwip220/core/udp.c ****   struct udp_hdr *udphdr;
 714:ThirdPackage/lwip220/core/udp.c ****   err_t err;
 715:ThirdPackage/lwip220/core/udp.c ****   struct pbuf *q; /* q will be sent down the stack */
 716:ThirdPackage/lwip220/core/udp.c ****   u8_t ip_proto;
 717:ThirdPackage/lwip220/core/udp.c ****   u8_t ttl;
 718:ThirdPackage/lwip220/core/udp.c **** 
 719:ThirdPackage/lwip220/core/udp.c ****   LWIP_ASSERT_CORE_LOCKED();
 720:ThirdPackage/lwip220/core/udp.c **** 
 721:ThirdPackage/lwip220/core/udp.c ****   LWIP_ERROR("udp_sendto_if_src: invalid pcb", pcb != NULL, return ERR_ARG);
 722:ThirdPackage/lwip220/core/udp.c ****   LWIP_ERROR("udp_sendto_if_src: invalid pbuf", p != NULL, return ERR_ARG);
 723:ThirdPackage/lwip220/core/udp.c ****   LWIP_ERROR("udp_sendto_if_src: invalid dst_ip", dst_ip != NULL, return ERR_ARG);
 724:ThirdPackage/lwip220/core/udp.c ****   LWIP_ERROR("udp_sendto_if_src: invalid src_ip", src_ip != NULL, return ERR_ARG);
 725:ThirdPackage/lwip220/core/udp.c ****   LWIP_ERROR("udp_sendto_if_src: invalid netif", netif != NULL, return ERR_ARG);
 726:ThirdPackage/lwip220/core/udp.c **** 
 727:ThirdPackage/lwip220/core/udp.c ****   if (!IP_ADDR_PCB_VERSION_MATCH(pcb, src_ip) ||
 728:ThirdPackage/lwip220/core/udp.c ****       !IP_ADDR_PCB_VERSION_MATCH(pcb, dst_ip)) {
 729:ThirdPackage/lwip220/core/udp.c ****     return ERR_VAL;
 730:ThirdPackage/lwip220/core/udp.c ****   }
 731:ThirdPackage/lwip220/core/udp.c **** 
 732:ThirdPackage/lwip220/core/udp.c **** #if LWIP_IPV4 && IP_SOF_BROADCAST
 733:ThirdPackage/lwip220/core/udp.c ****   /* broadcast filter? */
 734:ThirdPackage/lwip220/core/udp.c ****   if (!ip_get_option(pcb, SOF_BROADCAST) &&
 735:ThirdPackage/lwip220/core/udp.c **** #if LWIP_IPV6
 736:ThirdPackage/lwip220/core/udp.c ****       IP_IS_V4(dst_ip) &&
 737:ThirdPackage/lwip220/core/udp.c **** #endif /* LWIP_IPV6 */
 738:ThirdPackage/lwip220/core/udp.c ****       ip_addr_isbroadcast(dst_ip, netif)) {
 739:ThirdPackage/lwip220/core/udp.c ****     LWIP_DEBUGF(UDP_DEBUG | LWIP_DBG_LEVEL_SERIOUS,
 740:ThirdPackage/lwip220/core/udp.c ****                 ("udp_sendto_if: SOF_BROADCAST not enabled on pcb %p\n", (void *)pcb));
 741:ThirdPackage/lwip220/core/udp.c ****     return ERR_VAL;
 742:ThirdPackage/lwip220/core/udp.c ****   }
 743:ThirdPackage/lwip220/core/udp.c **** #endif /* LWIP_IPV4 && IP_SOF_BROADCAST */
 744:ThirdPackage/lwip220/core/udp.c **** 
 745:ThirdPackage/lwip220/core/udp.c ****   /* if the PCB is not yet bound to a port, bind it here */
 746:ThirdPackage/lwip220/core/udp.c ****   if (pcb->local_port == 0) {
 747:ThirdPackage/lwip220/core/udp.c ****     LWIP_DEBUGF(UDP_DEBUG | LWIP_DBG_TRACE, ("udp_send: not yet bound to a port, binding now\n"));
 748:ThirdPackage/lwip220/core/udp.c ****     err = udp_bind(pcb, &pcb->local_ip, pcb->local_port);
 749:ThirdPackage/lwip220/core/udp.c ****     if (err != ERR_OK) {
 750:ThirdPackage/lwip220/core/udp.c ****       LWIP_DEBUGF(UDP_DEBUG | LWIP_DBG_TRACE | LWIP_DBG_LEVEL_SERIOUS, ("udp_send: forced port bind
 751:ThirdPackage/lwip220/core/udp.c ****       return err;
 752:ThirdPackage/lwip220/core/udp.c ****     }
 753:ThirdPackage/lwip220/core/udp.c ****   }
 754:ThirdPackage/lwip220/core/udp.c **** 
 755:ThirdPackage/lwip220/core/udp.c ****   /* packet too large to add a UDP header without causing an overflow? */
 756:ThirdPackage/lwip220/core/udp.c ****   if ((u16_t)(p->tot_len + UDP_HLEN) < p->tot_len) {
 757:ThirdPackage/lwip220/core/udp.c ****     return ERR_MEM;
 758:ThirdPackage/lwip220/core/udp.c ****   }
 759:ThirdPackage/lwip220/core/udp.c ****   /* not enough space to add an UDP header to first pbuf in given p chain? */
 760:ThirdPackage/lwip220/core/udp.c ****   if (pbuf_add_header(p, UDP_HLEN)) {
 761:ThirdPackage/lwip220/core/udp.c ****     /* allocate header in a separate new pbuf */
 762:ThirdPackage/lwip220/core/udp.c ****     q = pbuf_alloc(PBUF_IP, UDP_HLEN, PBUF_RAM);
 763:ThirdPackage/lwip220/core/udp.c ****     /* new header pbuf could not be allocated? */
 764:ThirdPackage/lwip220/core/udp.c ****     if (q == NULL) {
 765:ThirdPackage/lwip220/core/udp.c ****       LWIP_DEBUGF(UDP_DEBUG | LWIP_DBG_TRACE | LWIP_DBG_LEVEL_SERIOUS, ("udp_send: could not alloca
 766:ThirdPackage/lwip220/core/udp.c ****       return ERR_MEM;
ARM GAS  C:\Users\86188\AppData\Local\Temp\ccxMyyYF.s 			page 31


 767:ThirdPackage/lwip220/core/udp.c ****     }
 768:ThirdPackage/lwip220/core/udp.c ****     if (p->tot_len != 0) {
 769:ThirdPackage/lwip220/core/udp.c ****       /* chain header q in front of given pbuf p (only if p contains data) */
 770:ThirdPackage/lwip220/core/udp.c ****       pbuf_chain(q, p);
 771:ThirdPackage/lwip220/core/udp.c ****     }
 772:ThirdPackage/lwip220/core/udp.c ****     /* first pbuf q points to header pbuf */
 773:ThirdPackage/lwip220/core/udp.c ****     LWIP_DEBUGF(UDP_DEBUG,
 774:ThirdPackage/lwip220/core/udp.c ****                 ("udp_send: added header pbuf %p before given pbuf %p\n", (void *)q, (void *)p));
 775:ThirdPackage/lwip220/core/udp.c ****   } else {
 776:ThirdPackage/lwip220/core/udp.c ****     /* adding space for header within p succeeded */
 777:ThirdPackage/lwip220/core/udp.c ****     /* first pbuf q equals given pbuf */
 778:ThirdPackage/lwip220/core/udp.c ****     q = p;
 779:ThirdPackage/lwip220/core/udp.c ****     LWIP_DEBUGF(UDP_DEBUG, ("udp_send: added header in given pbuf %p\n", (void *)p));
 780:ThirdPackage/lwip220/core/udp.c ****   }
 781:ThirdPackage/lwip220/core/udp.c ****   LWIP_ASSERT("check that first pbuf can hold struct udp_hdr",
 782:ThirdPackage/lwip220/core/udp.c ****               (q->len >= sizeof(struct udp_hdr)));
 783:ThirdPackage/lwip220/core/udp.c ****   /* q now represents the packet to be sent */
 784:ThirdPackage/lwip220/core/udp.c ****   udphdr = (struct udp_hdr *)q->payload;
 785:ThirdPackage/lwip220/core/udp.c ****   udphdr->src = lwip_htons(pcb->local_port);
 786:ThirdPackage/lwip220/core/udp.c ****   udphdr->dest = lwip_htons(dst_port);
 787:ThirdPackage/lwip220/core/udp.c ****   /* in UDP, 0 checksum means 'no checksum' */
 788:ThirdPackage/lwip220/core/udp.c ****   udphdr->chksum = 0x0000;
 789:ThirdPackage/lwip220/core/udp.c **** 
 790:ThirdPackage/lwip220/core/udp.c ****   /* Multicast Loop? */
 791:ThirdPackage/lwip220/core/udp.c **** #if LWIP_MULTICAST_TX_OPTIONS
 792:ThirdPackage/lwip220/core/udp.c ****   if (((pcb->flags & UDP_FLAGS_MULTICAST_LOOP) != 0) && ip_addr_ismulticast(dst_ip)) {
 793:ThirdPackage/lwip220/core/udp.c ****     q->flags |= PBUF_FLAG_MCASTLOOP;
 794:ThirdPackage/lwip220/core/udp.c ****   }
 795:ThirdPackage/lwip220/core/udp.c **** #endif /* LWIP_MULTICAST_TX_OPTIONS */
 796:ThirdPackage/lwip220/core/udp.c **** 
 797:ThirdPackage/lwip220/core/udp.c ****   LWIP_DEBUGF(UDP_DEBUG, ("udp_send: sending datagram of length %"U16_F"\n", q->tot_len));
 798:ThirdPackage/lwip220/core/udp.c **** 
 799:ThirdPackage/lwip220/core/udp.c **** #if LWIP_UDPLITE
 800:ThirdPackage/lwip220/core/udp.c ****   /* UDP Lite protocol? */
 801:ThirdPackage/lwip220/core/udp.c ****   if (pcb->flags & UDP_FLAGS_UDPLITE) {
 802:ThirdPackage/lwip220/core/udp.c ****     u16_t chklen, chklen_hdr;
 803:ThirdPackage/lwip220/core/udp.c ****     LWIP_DEBUGF(UDP_DEBUG, ("udp_send: UDP LITE packet length %"U16_F"\n", q->tot_len));
 804:ThirdPackage/lwip220/core/udp.c ****     /* set UDP message length in UDP header */
 805:ThirdPackage/lwip220/core/udp.c ****     chklen_hdr = chklen = pcb->chksum_len_tx;
 806:ThirdPackage/lwip220/core/udp.c ****     if ((chklen < sizeof(struct udp_hdr)) || (chklen > q->tot_len)) {
 807:ThirdPackage/lwip220/core/udp.c ****       if (chklen != 0) {
 808:ThirdPackage/lwip220/core/udp.c ****         LWIP_DEBUGF(UDP_DEBUG, ("udp_send: UDP LITE pcb->chksum_len is illegal: %"U16_F"\n", chklen
 809:ThirdPackage/lwip220/core/udp.c ****       }
 810:ThirdPackage/lwip220/core/udp.c ****       /* For UDP-Lite, checksum length of 0 means checksum
 811:ThirdPackage/lwip220/core/udp.c ****          over the complete packet. (See RFC 3828 chap. 3.1)
 812:ThirdPackage/lwip220/core/udp.c ****          At least the UDP-Lite header must be covered by the
 813:ThirdPackage/lwip220/core/udp.c ****          checksum, therefore, if chksum_len has an illegal
 814:ThirdPackage/lwip220/core/udp.c ****          value, we generate the checksum over the complete
 815:ThirdPackage/lwip220/core/udp.c ****          packet to be safe. */
 816:ThirdPackage/lwip220/core/udp.c ****       chklen_hdr = 0;
 817:ThirdPackage/lwip220/core/udp.c ****       chklen = q->tot_len;
 818:ThirdPackage/lwip220/core/udp.c ****     }
 819:ThirdPackage/lwip220/core/udp.c ****     udphdr->len = lwip_htons(chklen_hdr);
 820:ThirdPackage/lwip220/core/udp.c ****     /* calculate checksum */
 821:ThirdPackage/lwip220/core/udp.c **** #if CHECKSUM_GEN_UDP
 822:ThirdPackage/lwip220/core/udp.c ****     IF__NETIF_CHECKSUM_ENABLED(netif, NETIF_CHECKSUM_GEN_UDP) {
 823:ThirdPackage/lwip220/core/udp.c **** #if LWIP_CHECKSUM_ON_COPY
ARM GAS  C:\Users\86188\AppData\Local\Temp\ccxMyyYF.s 			page 32


 824:ThirdPackage/lwip220/core/udp.c ****       if (have_chksum) {
 825:ThirdPackage/lwip220/core/udp.c ****         chklen = UDP_HLEN;
 826:ThirdPackage/lwip220/core/udp.c ****       }
 827:ThirdPackage/lwip220/core/udp.c **** #endif /* LWIP_CHECKSUM_ON_COPY */
 828:ThirdPackage/lwip220/core/udp.c ****       udphdr->chksum = ip_chksum_pseudo_partial(q, IP_PROTO_UDPLITE,
 829:ThirdPackage/lwip220/core/udp.c ****                        q->tot_len, chklen, src_ip, dst_ip);
 830:ThirdPackage/lwip220/core/udp.c **** #if LWIP_CHECKSUM_ON_COPY
 831:ThirdPackage/lwip220/core/udp.c ****       if (have_chksum) {
 832:ThirdPackage/lwip220/core/udp.c ****         u32_t acc;
 833:ThirdPackage/lwip220/core/udp.c ****         acc = udphdr->chksum + (u16_t)~(chksum);
 834:ThirdPackage/lwip220/core/udp.c ****         udphdr->chksum = FOLD_U32T(acc);
 835:ThirdPackage/lwip220/core/udp.c ****       }
 836:ThirdPackage/lwip220/core/udp.c **** #endif /* LWIP_CHECKSUM_ON_COPY */
 837:ThirdPackage/lwip220/core/udp.c **** 
 838:ThirdPackage/lwip220/core/udp.c ****       /* chksum zero must become 0xffff, as zero means 'no checksum' */
 839:ThirdPackage/lwip220/core/udp.c ****       if (udphdr->chksum == 0x0000) {
 840:ThirdPackage/lwip220/core/udp.c ****         udphdr->chksum = 0xffff;
 841:ThirdPackage/lwip220/core/udp.c ****       }
 842:ThirdPackage/lwip220/core/udp.c ****     }
 843:ThirdPackage/lwip220/core/udp.c **** #endif /* CHECKSUM_GEN_UDP */
 844:ThirdPackage/lwip220/core/udp.c **** 
 845:ThirdPackage/lwip220/core/udp.c ****     ip_proto = IP_PROTO_UDPLITE;
 846:ThirdPackage/lwip220/core/udp.c ****   } else
 847:ThirdPackage/lwip220/core/udp.c **** #endif /* LWIP_UDPLITE */
 848:ThirdPackage/lwip220/core/udp.c ****   {      /* UDP */
 849:ThirdPackage/lwip220/core/udp.c ****     LWIP_DEBUGF(UDP_DEBUG, ("udp_send: UDP packet length %"U16_F"\n", q->tot_len));
 850:ThirdPackage/lwip220/core/udp.c ****     udphdr->len = lwip_htons(q->tot_len);
 851:ThirdPackage/lwip220/core/udp.c ****     /* calculate checksum */
 852:ThirdPackage/lwip220/core/udp.c **** #if CHECKSUM_GEN_UDP
 853:ThirdPackage/lwip220/core/udp.c ****     IF__NETIF_CHECKSUM_ENABLED(netif, NETIF_CHECKSUM_GEN_UDP) {
 854:ThirdPackage/lwip220/core/udp.c ****       /* Checksum is mandatory over IPv6. */
 855:ThirdPackage/lwip220/core/udp.c ****       if (IP_IS_V6(dst_ip) || (pcb->flags & UDP_FLAGS_NOCHKSUM) == 0) {
 856:ThirdPackage/lwip220/core/udp.c ****         u16_t udpchksum;
 857:ThirdPackage/lwip220/core/udp.c **** #if LWIP_CHECKSUM_ON_COPY
 858:ThirdPackage/lwip220/core/udp.c ****         if (have_chksum) {
 859:ThirdPackage/lwip220/core/udp.c ****           u32_t acc;
 860:ThirdPackage/lwip220/core/udp.c ****           udpchksum = ip_chksum_pseudo_partial(q, IP_PROTO_UDP,
 861:ThirdPackage/lwip220/core/udp.c ****                                                q->tot_len, UDP_HLEN, src_ip, dst_ip);
 862:ThirdPackage/lwip220/core/udp.c ****           acc = udpchksum + (u16_t)~(chksum);
 863:ThirdPackage/lwip220/core/udp.c ****           udpchksum = FOLD_U32T(acc);
 864:ThirdPackage/lwip220/core/udp.c ****         } else
 865:ThirdPackage/lwip220/core/udp.c **** #endif /* LWIP_CHECKSUM_ON_COPY */
 866:ThirdPackage/lwip220/core/udp.c ****         {
 867:ThirdPackage/lwip220/core/udp.c ****           udpchksum = ip_chksum_pseudo(q, IP_PROTO_UDP, q->tot_len,
 868:ThirdPackage/lwip220/core/udp.c ****                                        src_ip, dst_ip);
 869:ThirdPackage/lwip220/core/udp.c ****         }
 870:ThirdPackage/lwip220/core/udp.c **** 
 871:ThirdPackage/lwip220/core/udp.c ****         /* chksum zero must become 0xffff, as zero means 'no checksum' */
 872:ThirdPackage/lwip220/core/udp.c ****         if (udpchksum == 0x0000) {
 873:ThirdPackage/lwip220/core/udp.c ****           udpchksum = 0xffff;
 874:ThirdPackage/lwip220/core/udp.c ****         }
 875:ThirdPackage/lwip220/core/udp.c ****         udphdr->chksum = udpchksum;
 876:ThirdPackage/lwip220/core/udp.c ****       }
 877:ThirdPackage/lwip220/core/udp.c ****     }
 878:ThirdPackage/lwip220/core/udp.c **** #endif /* CHECKSUM_GEN_UDP */
 879:ThirdPackage/lwip220/core/udp.c ****     ip_proto = IP_PROTO_UDP;
 880:ThirdPackage/lwip220/core/udp.c ****   }
ARM GAS  C:\Users\86188\AppData\Local\Temp\ccxMyyYF.s 			page 33


 881:ThirdPackage/lwip220/core/udp.c **** 
 882:ThirdPackage/lwip220/core/udp.c ****   /* Determine TTL to use */
 883:ThirdPackage/lwip220/core/udp.c **** #if LWIP_MULTICAST_TX_OPTIONS
 884:ThirdPackage/lwip220/core/udp.c ****   ttl = (ip_addr_ismulticast(dst_ip) ? udp_get_multicast_ttl(pcb) : pcb->ttl);
 885:ThirdPackage/lwip220/core/udp.c **** #else /* LWIP_MULTICAST_TX_OPTIONS */
 886:ThirdPackage/lwip220/core/udp.c ****   ttl = pcb->ttl;
 887:ThirdPackage/lwip220/core/udp.c **** #endif /* LWIP_MULTICAST_TX_OPTIONS */
 888:ThirdPackage/lwip220/core/udp.c **** 
 889:ThirdPackage/lwip220/core/udp.c ****   LWIP_DEBUGF(UDP_DEBUG, ("udp_send: UDP checksum 0x%04"X16_F"\n", udphdr->chksum));
 890:ThirdPackage/lwip220/core/udp.c ****   LWIP_DEBUGF(UDP_DEBUG, ("udp_send: ip_output_if (,,,,0x%02"X16_F",)\n", (u16_t)ip_proto));
 891:ThirdPackage/lwip220/core/udp.c ****   /* output to IP */
 892:ThirdPackage/lwip220/core/udp.c ****   NETIF_SET_HINTS(netif, &(pcb->netif_hints));
 893:ThirdPackage/lwip220/core/udp.c ****   err = ip_output_if_src(q, src_ip, dst_ip, ttl, pcb->tos, ip_proto, netif);
 894:ThirdPackage/lwip220/core/udp.c ****   NETIF_RESET_HINTS(netif);
 895:ThirdPackage/lwip220/core/udp.c **** 
 896:ThirdPackage/lwip220/core/udp.c ****   /* @todo: must this be increased even if error occurred? */
 897:ThirdPackage/lwip220/core/udp.c ****   MIB2_STATS_INC(mib2.udpoutdatagrams);
 898:ThirdPackage/lwip220/core/udp.c **** 
 899:ThirdPackage/lwip220/core/udp.c ****   /* did we chain a separate header pbuf earlier? */
 900:ThirdPackage/lwip220/core/udp.c ****   if (q != p) {
 901:ThirdPackage/lwip220/core/udp.c ****     /* free the header pbuf */
 902:ThirdPackage/lwip220/core/udp.c ****     pbuf_free(q);
 903:ThirdPackage/lwip220/core/udp.c ****     q = NULL;
 904:ThirdPackage/lwip220/core/udp.c ****     /* p is still referenced by the caller, and will live on */
 905:ThirdPackage/lwip220/core/udp.c ****   }
 906:ThirdPackage/lwip220/core/udp.c **** 
 907:ThirdPackage/lwip220/core/udp.c ****   UDP_STATS_INC(udp.xmit);
 908:ThirdPackage/lwip220/core/udp.c ****   return err;
 909:ThirdPackage/lwip220/core/udp.c **** }
 910:ThirdPackage/lwip220/core/udp.c **** 
 911:ThirdPackage/lwip220/core/udp.c **** /**
 912:ThirdPackage/lwip220/core/udp.c ****  * @ingroup udp_raw
 913:ThirdPackage/lwip220/core/udp.c ****  * Bind an UDP PCB.
 914:ThirdPackage/lwip220/core/udp.c ****  *
 915:ThirdPackage/lwip220/core/udp.c ****  * @param pcb UDP PCB to be bound with a local address ipaddr and port.
 916:ThirdPackage/lwip220/core/udp.c ****  * @param ipaddr local IP address to bind with. Use IP_ANY_TYPE to
 917:ThirdPackage/lwip220/core/udp.c ****  * bind to all local interfaces.
 918:ThirdPackage/lwip220/core/udp.c ****  * @param port local UDP port to bind with. Use 0 to automatically bind
 919:ThirdPackage/lwip220/core/udp.c ****  * to a random port between UDP_LOCAL_PORT_RANGE_START and
 920:ThirdPackage/lwip220/core/udp.c ****  * UDP_LOCAL_PORT_RANGE_END.
 921:ThirdPackage/lwip220/core/udp.c ****  *
 922:ThirdPackage/lwip220/core/udp.c ****  * ipaddr & port are expected to be in the same byte order as in the pcb.
 923:ThirdPackage/lwip220/core/udp.c ****  *
 924:ThirdPackage/lwip220/core/udp.c ****  * @return lwIP error code.
 925:ThirdPackage/lwip220/core/udp.c ****  * - ERR_OK. Successful. No error occurred.
 926:ThirdPackage/lwip220/core/udp.c ****  * - ERR_USE. The specified ipaddr and port are already bound to by
 927:ThirdPackage/lwip220/core/udp.c ****  * another UDP PCB.
 928:ThirdPackage/lwip220/core/udp.c ****  *
 929:ThirdPackage/lwip220/core/udp.c ****  * @see udp_disconnect()
 930:ThirdPackage/lwip220/core/udp.c ****  */
 931:ThirdPackage/lwip220/core/udp.c **** err_t
 932:ThirdPackage/lwip220/core/udp.c **** udp_bind(struct udp_pcb *pcb, const ip_addr_t *ipaddr, u16_t port)
 933:ThirdPackage/lwip220/core/udp.c **** {
 776              		.loc 1 933 1 view -0
 777              		.cfi_startproc
 778              		@ args = 0, pretend = 0, frame = 0
 779              		@ frame_needed = 0, uses_anonymous_args = 0
ARM GAS  C:\Users\86188\AppData\Local\Temp\ccxMyyYF.s 			page 34


 780              		.loc 1 933 1 is_stmt 0 view .LVU245
 781 0000 70B5     		push	{r4, r5, r6, lr}
 782              	.LCFI6:
 783              		.cfi_def_cfa_offset 16
 784              		.cfi_offset 4, -16
 785              		.cfi_offset 5, -12
 786              		.cfi_offset 6, -8
 787              		.cfi_offset 14, -4
 788 0002 0446     		mov	r4, r0
 934:ThirdPackage/lwip220/core/udp.c ****   struct udp_pcb *ipcb;
 789              		.loc 1 934 3 is_stmt 1 view .LVU246
 935:ThirdPackage/lwip220/core/udp.c ****   u8_t rebind;
 790              		.loc 1 935 3 view .LVU247
 936:ThirdPackage/lwip220/core/udp.c **** #if LWIP_IPV6 && LWIP_IPV6_SCOPES
 937:ThirdPackage/lwip220/core/udp.c ****   ip_addr_t zoned_ipaddr;
 938:ThirdPackage/lwip220/core/udp.c **** #endif /* LWIP_IPV6 && LWIP_IPV6_SCOPES */
 939:ThirdPackage/lwip220/core/udp.c **** 
 940:ThirdPackage/lwip220/core/udp.c ****   LWIP_ASSERT_CORE_LOCKED();
 791              		.loc 1 940 28 view .LVU248
 941:ThirdPackage/lwip220/core/udp.c **** 
 942:ThirdPackage/lwip220/core/udp.c **** #if LWIP_IPV4
 943:ThirdPackage/lwip220/core/udp.c ****   /* Don't propagate NULL pointer (IPv4 ANY) to subsequent functions */
 944:ThirdPackage/lwip220/core/udp.c ****   if (ipaddr == NULL) {
 792              		.loc 1 944 3 view .LVU249
 793              		.loc 1 944 6 is_stmt 0 view .LVU250
 794 0004 0D46     		mov	r5, r1
 795 0006 29B1     		cbz	r1, .L92
 796              	.L70:
 797              	.LVL65:
 945:ThirdPackage/lwip220/core/udp.c ****     ipaddr = IP4_ADDR_ANY;
 946:ThirdPackage/lwip220/core/udp.c ****   }
 947:ThirdPackage/lwip220/core/udp.c **** #else /* LWIP_IPV4 */
 948:ThirdPackage/lwip220/core/udp.c ****   LWIP_ERROR("udp_bind: invalid ipaddr", ipaddr != NULL, return ERR_ARG);
 949:ThirdPackage/lwip220/core/udp.c **** #endif /* LWIP_IPV4 */
 950:ThirdPackage/lwip220/core/udp.c **** 
 951:ThirdPackage/lwip220/core/udp.c ****   LWIP_ERROR("udp_bind: invalid pcb", pcb != NULL, return ERR_ARG);
 798              		.loc 1 951 3 is_stmt 1 view .LVU251
 799              		.loc 1 951 3 view .LVU252
 800 0008 002C     		cmp	r4, #0
 801 000a 32D0     		beq	.L81
 802              		.loc 1 951 3 discriminator 2 view .LVU253
 952:ThirdPackage/lwip220/core/udp.c **** 
 953:ThirdPackage/lwip220/core/udp.c ****   LWIP_DEBUGF(UDP_DEBUG | LWIP_DBG_TRACE, ("udp_bind(ipaddr = "));
 803              		.loc 1 953 66 discriminator 2 view .LVU254
 954:ThirdPackage/lwip220/core/udp.c ****   ip_addr_debug_print(UDP_DEBUG | LWIP_DBG_TRACE, ipaddr);
 804              		.loc 1 954 58 discriminator 2 view .LVU255
 955:ThirdPackage/lwip220/core/udp.c ****   LWIP_DEBUGF(UDP_DEBUG | LWIP_DBG_TRACE, (", port = %"U16_F")\n", port));
 805              		.loc 1 955 74 discriminator 2 view .LVU256
 956:ThirdPackage/lwip220/core/udp.c **** 
 957:ThirdPackage/lwip220/core/udp.c ****   rebind = 0;
 806              		.loc 1 957 3 discriminator 2 view .LVU257
 807              	.LVL66:
 958:ThirdPackage/lwip220/core/udp.c ****   /* Check for double bind and rebind of the same pcb */
 959:ThirdPackage/lwip220/core/udp.c ****   for (ipcb = udp_pcbs; ipcb != NULL; ipcb = ipcb->next) {
 808              		.loc 1 959 3 discriminator 2 view .LVU258
 809              		.loc 1 959 13 is_stmt 0 discriminator 2 view .LVU259
 810 000c 234B     		ldr	r3, .L96
ARM GAS  C:\Users\86188\AppData\Local\Temp\ccxMyyYF.s 			page 35


 811 000e 1B68     		ldr	r3, [r3]
 812              	.LVL67:
 813              		.loc 1 959 13 discriminator 2 view .LVU260
 814 0010 1946     		mov	r1, r3
 815              		.loc 1 959 3 discriminator 2 view .LVU261
 816 0012 02E0     		b	.L72
 817              	.LVL68:
 818              	.L92:
 945:ThirdPackage/lwip220/core/udp.c ****   }
 819              		.loc 1 945 12 view .LVU262
 820 0014 224D     		ldr	r5, .L96+4
 821 0016 F7E7     		b	.L70
 822              	.LVL69:
 823              	.L94:
 824              		.loc 1 959 39 is_stmt 1 discriminator 2 view .LVU263
 825              		.loc 1 959 44 is_stmt 0 discriminator 2 view .LVU264
 826 0018 C968     		ldr	r1, [r1, #12]
 827              	.LVL70:
 828              	.L72:
 829              		.loc 1 959 25 is_stmt 1 discriminator 1 view .LVU265
 830              		.loc 1 959 3 is_stmt 0 discriminator 1 view .LVU266
 831 001a 19B1     		cbz	r1, .L93
 960:ThirdPackage/lwip220/core/udp.c ****     /* is this UDP PCB already on active list? */
 961:ThirdPackage/lwip220/core/udp.c ****     if (pcb == ipcb) {
 832              		.loc 1 961 5 is_stmt 1 view .LVU267
 833              		.loc 1 961 8 is_stmt 0 view .LVU268
 834 001c A142     		cmp	r1, r4
 835 001e FBD1     		bne	.L94
 962:ThirdPackage/lwip220/core/udp.c ****       rebind = 1;
 836              		.loc 1 962 14 view .LVU269
 837 0020 0126     		movs	r6, #1
 838 0022 00E0     		b	.L73
 839              	.L93:
 957:ThirdPackage/lwip220/core/udp.c ****   /* Check for double bind and rebind of the same pcb */
 840              		.loc 1 957 10 view .LVU270
 841 0024 0026     		movs	r6, #0
 842              	.L73:
 843              	.LVL71:
 963:ThirdPackage/lwip220/core/udp.c ****       break;
 964:ThirdPackage/lwip220/core/udp.c ****     }
 965:ThirdPackage/lwip220/core/udp.c ****   }
 966:ThirdPackage/lwip220/core/udp.c **** 
 967:ThirdPackage/lwip220/core/udp.c **** #if LWIP_IPV6 && LWIP_IPV6_SCOPES
 968:ThirdPackage/lwip220/core/udp.c ****   /* If the given IP address should have a zone but doesn't, assign one now.
 969:ThirdPackage/lwip220/core/udp.c ****    * This is legacy support: scope-aware callers should always provide properly
 970:ThirdPackage/lwip220/core/udp.c ****    * zoned source addresses. Do the zone selection before the address-in-use
 971:ThirdPackage/lwip220/core/udp.c ****    * check below; as such we have to make a temporary copy of the address. */
 972:ThirdPackage/lwip220/core/udp.c ****   if (IP_IS_V6(ipaddr) && ip6_addr_lacks_zone(ip_2_ip6(ipaddr), IP6_UNKNOWN)) {
 973:ThirdPackage/lwip220/core/udp.c ****     ip_addr_copy(zoned_ipaddr, *ipaddr);
 974:ThirdPackage/lwip220/core/udp.c ****     ip6_addr_select_zone(ip_2_ip6(&zoned_ipaddr), ip_2_ip6(&zoned_ipaddr));
 975:ThirdPackage/lwip220/core/udp.c ****     ipaddr = &zoned_ipaddr;
 976:ThirdPackage/lwip220/core/udp.c ****   }
 977:ThirdPackage/lwip220/core/udp.c **** #endif /* LWIP_IPV6 && LWIP_IPV6_SCOPES */
 978:ThirdPackage/lwip220/core/udp.c **** 
 979:ThirdPackage/lwip220/core/udp.c ****   /* no port specified? */
 980:ThirdPackage/lwip220/core/udp.c ****   if (port == 0) {
 844              		.loc 1 980 3 is_stmt 1 view .LVU271
ARM GAS  C:\Users\86188\AppData\Local\Temp\ccxMyyYF.s 			page 36


 845              		.loc 1 980 6 is_stmt 0 view .LVU272
 846 0026 7AB9     		cbnz	r2, .L75
 981:ThirdPackage/lwip220/core/udp.c ****     port = udp_new_port();
 847              		.loc 1 981 5 is_stmt 1 view .LVU273
 848              		.loc 1 981 12 is_stmt 0 view .LVU274
 849 0028 FFF7FEFF 		bl	udp_new_port
 850              	.LVL72:
 982:ThirdPackage/lwip220/core/udp.c ****     if (port == 0) {
 851              		.loc 1 982 5 is_stmt 1 view .LVU275
 852              		.loc 1 982 8 is_stmt 0 view .LVU276
 853 002c 0246     		mov	r2, r0
 854 002e 18B3     		cbz	r0, .L95
 855              	.LVL73:
 856              	.L76:
 983:ThirdPackage/lwip220/core/udp.c ****       /* no more ports available in local range */
 984:ThirdPackage/lwip220/core/udp.c ****       LWIP_DEBUGF(UDP_DEBUG, ("udp_bind: out of free UDP ports\n"));
 985:ThirdPackage/lwip220/core/udp.c ****       return ERR_USE;
 986:ThirdPackage/lwip220/core/udp.c ****     }
 987:ThirdPackage/lwip220/core/udp.c ****   } else {
 988:ThirdPackage/lwip220/core/udp.c ****     for (ipcb = udp_pcbs; ipcb != NULL; ipcb = ipcb->next) {
 989:ThirdPackage/lwip220/core/udp.c ****       if (pcb != ipcb) {
 990:ThirdPackage/lwip220/core/udp.c ****         /* By default, we don't allow to bind to a port that any other udp
 991:ThirdPackage/lwip220/core/udp.c ****            PCB is already bound to, unless *all* PCBs with that port have tha
 992:ThirdPackage/lwip220/core/udp.c ****            REUSEADDR flag set. */
 993:ThirdPackage/lwip220/core/udp.c **** #if SO_REUSE
 994:ThirdPackage/lwip220/core/udp.c ****         if (!ip_get_option(pcb, SOF_REUSEADDR) ||
 995:ThirdPackage/lwip220/core/udp.c ****             !ip_get_option(ipcb, SOF_REUSEADDR))
 996:ThirdPackage/lwip220/core/udp.c **** #endif /* SO_REUSE */
 997:ThirdPackage/lwip220/core/udp.c ****         {
 998:ThirdPackage/lwip220/core/udp.c ****           /* port matches that of PCB in list and REUSEADDR not set -> reject */
 999:ThirdPackage/lwip220/core/udp.c ****           if ((ipcb->local_port == port) &&
1000:ThirdPackage/lwip220/core/udp.c ****               (((IP_GET_TYPE(&ipcb->local_ip) == IP_GET_TYPE(ipaddr)) &&
1001:ThirdPackage/lwip220/core/udp.c ****               /* IP address matches or any IP used? */
1002:ThirdPackage/lwip220/core/udp.c ****               (ip_addr_eq(&ipcb->local_ip, ipaddr) ||
1003:ThirdPackage/lwip220/core/udp.c ****               ip_addr_isany(ipaddr) ||
1004:ThirdPackage/lwip220/core/udp.c ****               ip_addr_isany(&ipcb->local_ip))) ||
1005:ThirdPackage/lwip220/core/udp.c ****               (IP_GET_TYPE(&ipcb->local_ip) == IPADDR_TYPE_ANY) ||
1006:ThirdPackage/lwip220/core/udp.c ****               (IP_GET_TYPE(ipaddr) == IPADDR_TYPE_ANY))) {
1007:ThirdPackage/lwip220/core/udp.c ****             /* other PCB already binds to this local IP and port */
1008:ThirdPackage/lwip220/core/udp.c ****             LWIP_DEBUGF(UDP_DEBUG,
1009:ThirdPackage/lwip220/core/udp.c ****                         ("udp_bind: local port %"U16_F" already bound by another pcb\n", port));
1010:ThirdPackage/lwip220/core/udp.c ****             return ERR_USE;
1011:ThirdPackage/lwip220/core/udp.c ****           }
1012:ThirdPackage/lwip220/core/udp.c ****         }
1013:ThirdPackage/lwip220/core/udp.c ****       }
1014:ThirdPackage/lwip220/core/udp.c ****     }
1015:ThirdPackage/lwip220/core/udp.c ****   }
1016:ThirdPackage/lwip220/core/udp.c **** 
1017:ThirdPackage/lwip220/core/udp.c ****   ip_addr_set_ipaddr(&pcb->local_ip, ipaddr);
 857              		.loc 1 1017 3 is_stmt 1 view .LVU277
 858 0030 EDB1     		cbz	r5, .L89
 859              		.loc 1 1017 3 is_stmt 0 discriminator 1 view .LVU278
 860 0032 2B68     		ldr	r3, [r5]
 861              	.L79:
 862              		.loc 1 1017 3 discriminator 4 view .LVU279
 863 0034 2360     		str	r3, [r4]
1018:ThirdPackage/lwip220/core/udp.c **** 
ARM GAS  C:\Users\86188\AppData\Local\Temp\ccxMyyYF.s 			page 37


1019:ThirdPackage/lwip220/core/udp.c ****   pcb->local_port = port;
 864              		.loc 1 1019 3 is_stmt 1 discriminator 4 view .LVU280
 865              		.loc 1 1019 19 is_stmt 0 discriminator 4 view .LVU281
 866 0036 6282     		strh	r2, [r4, #18]	@ movhi
1020:ThirdPackage/lwip220/core/udp.c ****   mib2_udp_bind(pcb);
 867              		.loc 1 1020 21 is_stmt 1 discriminator 4 view .LVU282
1021:ThirdPackage/lwip220/core/udp.c ****   /* pcb not active yet? */
1022:ThirdPackage/lwip220/core/udp.c ****   if (rebind == 0) {
 868              		.loc 1 1022 3 discriminator 4 view .LVU283
 869              		.loc 1 1022 6 is_stmt 0 discriminator 4 view .LVU284
 870 0038 6EBB     		cbnz	r6, .L90
1023:ThirdPackage/lwip220/core/udp.c ****     /* place the PCB on the active list if not already there */
1024:ThirdPackage/lwip220/core/udp.c ****     pcb->next = udp_pcbs;
 871              		.loc 1 1024 5 is_stmt 1 view .LVU285
 872              		.loc 1 1024 15 is_stmt 0 view .LVU286
 873 003a 184B     		ldr	r3, .L96
 874 003c 1A68     		ldr	r2, [r3]
 875              	.LVL74:
 876              		.loc 1 1024 15 view .LVU287
 877 003e E260     		str	r2, [r4, #12]
1025:ThirdPackage/lwip220/core/udp.c ****     udp_pcbs = pcb;
 878              		.loc 1 1025 5 is_stmt 1 view .LVU288
 879              		.loc 1 1025 14 is_stmt 0 view .LVU289
 880 0040 1C60     		str	r4, [r3]
1026:ThirdPackage/lwip220/core/udp.c ****   }
1027:ThirdPackage/lwip220/core/udp.c ****   LWIP_DEBUGF(UDP_DEBUG | LWIP_DBG_TRACE | LWIP_DBG_STATE, ("udp_bind: bound to "));
1028:ThirdPackage/lwip220/core/udp.c ****   ip_addr_debug_print_val(UDP_DEBUG | LWIP_DBG_TRACE | LWIP_DBG_STATE, pcb->local_ip);
1029:ThirdPackage/lwip220/core/udp.c ****   LWIP_DEBUGF(UDP_DEBUG | LWIP_DBG_TRACE | LWIP_DBG_STATE, (", port %"U16_F")\n", pcb->local_port))
1030:ThirdPackage/lwip220/core/udp.c ****   return ERR_OK;
 881              		.loc 1 1030 10 view .LVU290
 882 0042 0020     		movs	r0, #0
 883 0044 28E0     		b	.L71
 884              	.LVL75:
 885              	.L77:
 988:ThirdPackage/lwip220/core/udp.c ****       if (pcb != ipcb) {
 886              		.loc 1 988 41 is_stmt 1 discriminator 2 view .LVU291
 988:ThirdPackage/lwip220/core/udp.c ****       if (pcb != ipcb) {
 887              		.loc 1 988 46 is_stmt 0 discriminator 2 view .LVU292
 888 0046 DB68     		ldr	r3, [r3, #12]
 889              	.LVL76:
 890              	.L75:
 988:ThirdPackage/lwip220/core/udp.c ****       if (pcb != ipcb) {
 891              		.loc 1 988 27 is_stmt 1 discriminator 1 view .LVU293
 988:ThirdPackage/lwip220/core/udp.c ****       if (pcb != ipcb) {
 892              		.loc 1 988 5 is_stmt 0 discriminator 1 view .LVU294
 893 0048 002B     		cmp	r3, #0
 894 004a F1D0     		beq	.L76
 989:ThirdPackage/lwip220/core/udp.c ****         /* By default, we don't allow to bind to a port that any other udp
 895              		.loc 1 989 7 is_stmt 1 view .LVU295
 989:ThirdPackage/lwip220/core/udp.c ****         /* By default, we don't allow to bind to a port that any other udp
 896              		.loc 1 989 10 is_stmt 0 view .LVU296
 897 004c A342     		cmp	r3, r4
 898 004e FAD0     		beq	.L77
 999:ThirdPackage/lwip220/core/udp.c ****               (((IP_GET_TYPE(&ipcb->local_ip) == IP_GET_TYPE(ipaddr)) &&
 899              		.loc 1 999 11 is_stmt 1 view .LVU297
 999:ThirdPackage/lwip220/core/udp.c ****               (((IP_GET_TYPE(&ipcb->local_ip) == IP_GET_TYPE(ipaddr)) &&
 900              		.loc 1 999 20 is_stmt 0 view .LVU298
ARM GAS  C:\Users\86188\AppData\Local\Temp\ccxMyyYF.s 			page 38


 901 0050 598A     		ldrh	r1, [r3, #18]
 999:ThirdPackage/lwip220/core/udp.c ****               (((IP_GET_TYPE(&ipcb->local_ip) == IP_GET_TYPE(ipaddr)) &&
 902              		.loc 1 999 14 view .LVU299
 903 0052 9142     		cmp	r1, r2
 904 0054 F7D1     		bne	.L77
1002:ThirdPackage/lwip220/core/udp.c ****               ip_addr_isany(ipaddr) ||
 905              		.loc 1 1002 16 discriminator 1 view .LVU300
 906 0056 1868     		ldr	r0, [r3]
 907 0058 2968     		ldr	r1, [r5]
 999:ThirdPackage/lwip220/core/udp.c ****               (((IP_GET_TYPE(&ipcb->local_ip) == IP_GET_TYPE(ipaddr)) &&
 908              		.loc 1 999 42 discriminator 1 view .LVU301
 909 005a 8842     		cmp	r0, r1
 910 005c 0FD0     		beq	.L84
1002:ThirdPackage/lwip220/core/udp.c ****               ip_addr_isany(ipaddr) ||
 911              		.loc 1 1002 52 view .LVU302
 912 005e 8DB1     		cbz	r5, .L85
1003:ThirdPackage/lwip220/core/udp.c ****               ip_addr_isany(&ipcb->local_ip))) ||
 913              		.loc 1 1003 15 view .LVU303
 914 0060 99B1     		cbz	r1, .L86
1005:ThirdPackage/lwip220/core/udp.c ****               (IP_GET_TYPE(ipaddr) == IPADDR_TYPE_ANY))) {
 915              		.loc 1 1005 65 view .LVU304
 916 0062 ABB1     		cbz	r3, .L87
1004:ThirdPackage/lwip220/core/udp.c ****               (IP_GET_TYPE(&ipcb->local_ip) == IPADDR_TYPE_ANY) ||
 917              		.loc 1 1004 15 view .LVU305
 918 0064 0028     		cmp	r0, #0
 919 0066 EED1     		bne	.L77
1010:ThirdPackage/lwip220/core/udp.c ****           }
 920              		.loc 1 1010 20 view .LVU306
 921 0068 6FF00700 		mvn	r0, #7
 922 006c 14E0     		b	.L71
 923              	.LVL77:
 924              	.L89:
1017:ThirdPackage/lwip220/core/udp.c **** 
 925              		.loc 1 1017 3 view .LVU307
 926 006e 0023     		movs	r3, #0
 927 0070 E0E7     		b	.L79
 928              	.LVL78:
 929              	.L81:
 951:ThirdPackage/lwip220/core/udp.c **** 
 930              		.loc 1 951 3 view .LVU308
 931 0072 6FF00F00 		mvn	r0, #15
 932              	.LVL79:
 951:ThirdPackage/lwip220/core/udp.c **** 
 933              		.loc 1 951 3 view .LVU309
 934 0076 0FE0     		b	.L71
 935              	.LVL80:
 936              	.L95:
 985:ThirdPackage/lwip220/core/udp.c ****     }
 937              		.loc 1 985 14 view .LVU310
 938 0078 6FF00700 		mvn	r0, #7
 939              	.LVL81:
 985:ThirdPackage/lwip220/core/udp.c ****     }
 940              		.loc 1 985 14 view .LVU311
 941 007c 0CE0     		b	.L71
 942              	.LVL82:
 943              	.L84:
1010:ThirdPackage/lwip220/core/udp.c ****           }
ARM GAS  C:\Users\86188\AppData\Local\Temp\ccxMyyYF.s 			page 39


 944              		.loc 1 1010 20 view .LVU312
 945 007e 6FF00700 		mvn	r0, #7
 946 0082 09E0     		b	.L71
 947              	.L85:
 948 0084 6FF00700 		mvn	r0, #7
 949 0088 06E0     		b	.L71
 950              	.L86:
 951 008a 6FF00700 		mvn	r0, #7
 952 008e 03E0     		b	.L71
 953              	.L87:
 954 0090 6FF00700 		mvn	r0, #7
 955 0094 00E0     		b	.L71
 956              	.LVL83:
 957              	.L90:
 958              		.loc 1 1030 10 view .LVU313
 959 0096 0020     		movs	r0, #0
 960              	.LVL84:
 961              	.L71:
1031:ThirdPackage/lwip220/core/udp.c **** }
 962              		.loc 1 1031 1 view .LVU314
 963 0098 70BD     		pop	{r4, r5, r6, pc}
 964              	.LVL85:
 965              	.L97:
 966              		.loc 1 1031 1 view .LVU315
 967 009a 00BF     		.align	2
 968              	.L96:
 969 009c 00000000 		.word	.LANCHOR1
 970 00a0 00000000 		.word	ip_addr_any
 971              		.cfi_endproc
 972              	.LFE168:
 974              		.section	.rodata.udp_sendto_if_src.str1.4,"aMS",%progbits,1
 975              		.align	2
 976              	.LC7:
 977 0000 63686563 		.ascii	"check that first pbuf can hold struct udp_hdr\000"
 977      6B207468 
 977      61742066 
 977      69727374 
 977      20706275 
 978              		.section	.text.udp_sendto_if_src,"ax",%progbits
 979              		.align	1
 980              		.global	udp_sendto_if_src
 981              		.syntax unified
 982              		.thumb
 983              		.thumb_func
 985              	udp_sendto_if_src:
 986              	.LVL86:
 987              	.LFB167:
 701:ThirdPackage/lwip220/core/udp.c **** #if LWIP_CHECKSUM_ON_COPY && CHECKSUM_GEN_UDP
 988              		.loc 1 701 1 is_stmt 1 view -0
 989              		.cfi_startproc
 990              		@ args = 8, pretend = 0, frame = 0
 991              		@ frame_needed = 0, uses_anonymous_args = 0
 701:ThirdPackage/lwip220/core/udp.c **** #if LWIP_CHECKSUM_ON_COPY && CHECKSUM_GEN_UDP
 992              		.loc 1 701 1 is_stmt 0 view .LVU317
 993 0000 2DE9F04F 		push	{r4, r5, r6, r7, r8, r9, r10, fp, lr}
 994              	.LCFI7:
 995              		.cfi_def_cfa_offset 36
ARM GAS  C:\Users\86188\AppData\Local\Temp\ccxMyyYF.s 			page 40


 996              		.cfi_offset 4, -36
 997              		.cfi_offset 5, -32
 998              		.cfi_offset 6, -28
 999              		.cfi_offset 7, -24
 1000              		.cfi_offset 8, -20
 1001              		.cfi_offset 9, -16
 1002              		.cfi_offset 10, -12
 1003              		.cfi_offset 11, -8
 1004              		.cfi_offset 14, -4
 1005 0004 85B0     		sub	sp, sp, #20
 1006              	.LCFI8:
 1007              		.cfi_def_cfa_offset 56
 1008 0006 DDF838B0 		ldr	fp, [sp, #56]
 1009 000a DDF83CA0 		ldr	r10, [sp, #60]
 713:ThirdPackage/lwip220/core/udp.c ****   err_t err;
 1010              		.loc 1 713 3 is_stmt 1 view .LVU318
 714:ThirdPackage/lwip220/core/udp.c ****   struct pbuf *q; /* q will be sent down the stack */
 1011              		.loc 1 714 3 view .LVU319
 715:ThirdPackage/lwip220/core/udp.c ****   u8_t ip_proto;
 1012              		.loc 1 715 3 view .LVU320
 716:ThirdPackage/lwip220/core/udp.c ****   u8_t ttl;
 1013              		.loc 1 716 3 view .LVU321
 717:ThirdPackage/lwip220/core/udp.c **** 
 1014              		.loc 1 717 3 view .LVU322
 719:ThirdPackage/lwip220/core/udp.c **** 
 1015              		.loc 1 719 28 view .LVU323
 721:ThirdPackage/lwip220/core/udp.c ****   LWIP_ERROR("udp_sendto_if_src: invalid pbuf", p != NULL, return ERR_ARG);
 1016              		.loc 1 721 3 view .LVU324
 721:ThirdPackage/lwip220/core/udp.c ****   LWIP_ERROR("udp_sendto_if_src: invalid pbuf", p != NULL, return ERR_ARG);
 1017              		.loc 1 721 3 view .LVU325
 1018 000e 0028     		cmp	r0, #0
 1019 0010 61D0     		beq	.L103
 1020 0012 0C46     		mov	r4, r1
 1021 0014 9046     		mov	r8, r2
 1022 0016 9946     		mov	r9, r3
 1023 0018 0646     		mov	r6, r0
 721:ThirdPackage/lwip220/core/udp.c ****   LWIP_ERROR("udp_sendto_if_src: invalid pbuf", p != NULL, return ERR_ARG);
 1024              		.loc 1 721 3 discriminator 2 view .LVU326
 722:ThirdPackage/lwip220/core/udp.c ****   LWIP_ERROR("udp_sendto_if_src: invalid dst_ip", dst_ip != NULL, return ERR_ARG);
 1025              		.loc 1 722 3 discriminator 2 view .LVU327
 722:ThirdPackage/lwip220/core/udp.c ****   LWIP_ERROR("udp_sendto_if_src: invalid dst_ip", dst_ip != NULL, return ERR_ARG);
 1026              		.loc 1 722 3 discriminator 2 view .LVU328
 1027 001a 0029     		cmp	r1, #0
 1028 001c 5ED0     		beq	.L104
 722:ThirdPackage/lwip220/core/udp.c ****   LWIP_ERROR("udp_sendto_if_src: invalid dst_ip", dst_ip != NULL, return ERR_ARG);
 1029              		.loc 1 722 3 discriminator 2 view .LVU329
 723:ThirdPackage/lwip220/core/udp.c ****   LWIP_ERROR("udp_sendto_if_src: invalid src_ip", src_ip != NULL, return ERR_ARG);
 1030              		.loc 1 723 3 discriminator 2 view .LVU330
 723:ThirdPackage/lwip220/core/udp.c ****   LWIP_ERROR("udp_sendto_if_src: invalid src_ip", src_ip != NULL, return ERR_ARG);
 1031              		.loc 1 723 3 discriminator 2 view .LVU331
 1032 001e 002A     		cmp	r2, #0
 1033 0020 5FD0     		beq	.L105
 723:ThirdPackage/lwip220/core/udp.c ****   LWIP_ERROR("udp_sendto_if_src: invalid src_ip", src_ip != NULL, return ERR_ARG);
 1034              		.loc 1 723 3 discriminator 2 view .LVU332
 724:ThirdPackage/lwip220/core/udp.c ****   LWIP_ERROR("udp_sendto_if_src: invalid netif", netif != NULL, return ERR_ARG);
 1035              		.loc 1 724 3 discriminator 2 view .LVU333
 724:ThirdPackage/lwip220/core/udp.c ****   LWIP_ERROR("udp_sendto_if_src: invalid netif", netif != NULL, return ERR_ARG);
ARM GAS  C:\Users\86188\AppData\Local\Temp\ccxMyyYF.s 			page 41


 1036              		.loc 1 724 3 discriminator 2 view .LVU334
 1037 0022 BAF1000F 		cmp	r10, #0
 1038 0026 5FD0     		beq	.L106
 724:ThirdPackage/lwip220/core/udp.c ****   LWIP_ERROR("udp_sendto_if_src: invalid netif", netif != NULL, return ERR_ARG);
 1039              		.loc 1 724 3 discriminator 2 view .LVU335
 725:ThirdPackage/lwip220/core/udp.c **** 
 1040              		.loc 1 725 3 discriminator 2 view .LVU336
 725:ThirdPackage/lwip220/core/udp.c **** 
 1041              		.loc 1 725 3 discriminator 2 view .LVU337
 1042 0028 BBF1000F 		cmp	fp, #0
 1043 002c 5FD0     		beq	.L107
 725:ThirdPackage/lwip220/core/udp.c **** 
 1044              		.loc 1 725 3 view .LVU338
 727:ThirdPackage/lwip220/core/udp.c ****       !IP_ADDR_PCB_VERSION_MATCH(pcb, dst_ip)) {
 1045              		.loc 1 727 3 view .LVU339
 746:ThirdPackage/lwip220/core/udp.c ****     LWIP_DEBUGF(UDP_DEBUG | LWIP_DBG_TRACE, ("udp_send: not yet bound to a port, binding now\n"));
 1046              		.loc 1 746 3 view .LVU340
 746:ThirdPackage/lwip220/core/udp.c ****     LWIP_DEBUGF(UDP_DEBUG | LWIP_DBG_TRACE, ("udp_send: not yet bound to a port, binding now\n"));
 1047              		.loc 1 746 10 is_stmt 0 view .LVU341
 1048 002e 428A     		ldrh	r2, [r0, #18]
 1049              	.LVL87:
 746:ThirdPackage/lwip220/core/udp.c ****     LWIP_DEBUGF(UDP_DEBUG | LWIP_DBG_TRACE, ("udp_send: not yet bound to a port, binding now\n"));
 1050              		.loc 1 746 6 view .LVU342
 1051 0030 9AB3     		cbz	r2, .L112
 1052              	.LVL88:
 1053              	.L100:
 756:ThirdPackage/lwip220/core/udp.c ****     return ERR_MEM;
 1054              		.loc 1 756 3 is_stmt 1 view .LVU343
 756:ThirdPackage/lwip220/core/udp.c ****     return ERR_MEM;
 1055              		.loc 1 756 16 is_stmt 0 view .LVU344
 1056 0032 2289     		ldrh	r2, [r4, #8]
 756:ThirdPackage/lwip220/core/udp.c ****     return ERR_MEM;
 1057              		.loc 1 756 6 view .LVU345
 1058 0034 4FF6F773 		movw	r3, #65527
 1059 0038 9A42     		cmp	r2, r3
 1060 003a 5BD8     		bhi	.L108
 760:ThirdPackage/lwip220/core/udp.c ****     /* allocate header in a separate new pbuf */
 1061              		.loc 1 760 3 is_stmt 1 view .LVU346
 760:ThirdPackage/lwip220/core/udp.c ****     /* allocate header in a separate new pbuf */
 1062              		.loc 1 760 7 is_stmt 0 view .LVU347
 1063 003c 0821     		movs	r1, #8
 1064 003e 2046     		mov	r0, r4
 1065 0040 FFF7FEFF 		bl	pbuf_add_header
 1066              	.LVL89:
 760:ThirdPackage/lwip220/core/udp.c ****     /* allocate header in a separate new pbuf */
 1067              		.loc 1 760 6 view .LVU348
 1068 0044 80BB     		cbnz	r0, .L113
 778:ThirdPackage/lwip220/core/udp.c ****     LWIP_DEBUGF(UDP_DEBUG, ("udp_send: added header in given pbuf %p\n", (void *)p));
 1069              		.loc 1 778 7 view .LVU349
 1070 0046 2546     		mov	r5, r4
 1071              	.L101:
 1072              	.LVL90:
 779:ThirdPackage/lwip220/core/udp.c ****   }
 1073              		.loc 1 779 85 is_stmt 1 view .LVU350
 781:ThirdPackage/lwip220/core/udp.c ****               (q->len >= sizeof(struct udp_hdr)));
 1074              		.loc 1 781 3 view .LVU351
 781:ThirdPackage/lwip220/core/udp.c ****               (q->len >= sizeof(struct udp_hdr)));
ARM GAS  C:\Users\86188\AppData\Local\Temp\ccxMyyYF.s 			page 42


 1075              		.loc 1 781 3 view .LVU352
 1076 0048 6B89     		ldrh	r3, [r5, #10]
 1077 004a 072B     		cmp	r3, #7
 1078 004c 3BD9     		bls	.L114
 1079              	.L102:
 781:ThirdPackage/lwip220/core/udp.c ****               (q->len >= sizeof(struct udp_hdr)));
 1080              		.loc 1 781 3 discriminator 3 view .LVU353
 781:ThirdPackage/lwip220/core/udp.c ****               (q->len >= sizeof(struct udp_hdr)));
 1081              		.loc 1 781 3 discriminator 3 view .LVU354
 784:ThirdPackage/lwip220/core/udp.c ****   udphdr->src = lwip_htons(pcb->local_port);
 1082              		.loc 1 784 3 discriminator 3 view .LVU355
 784:ThirdPackage/lwip220/core/udp.c ****   udphdr->src = lwip_htons(pcb->local_port);
 1083              		.loc 1 784 10 is_stmt 0 discriminator 3 view .LVU356
 1084 004e 6F68     		ldr	r7, [r5, #4]
 1085              	.LVL91:
 785:ThirdPackage/lwip220/core/udp.c ****   udphdr->dest = lwip_htons(dst_port);
 1086              		.loc 1 785 3 is_stmt 1 discriminator 3 view .LVU357
 785:ThirdPackage/lwip220/core/udp.c ****   udphdr->dest = lwip_htons(dst_port);
 1087              		.loc 1 785 17 is_stmt 0 discriminator 3 view .LVU358
 1088 0050 708A     		ldrh	r0, [r6, #18]
 1089 0052 FFF7FEFF 		bl	lwip_htons
 1090              	.LVL92:
 785:ThirdPackage/lwip220/core/udp.c ****   udphdr->dest = lwip_htons(dst_port);
 1091              		.loc 1 785 15 discriminator 3 view .LVU359
 1092 0056 3880     		strh	r0, [r7]	@ unaligned
 786:ThirdPackage/lwip220/core/udp.c ****   /* in UDP, 0 checksum means 'no checksum' */
 1093              		.loc 1 786 3 is_stmt 1 discriminator 3 view .LVU360
 786:ThirdPackage/lwip220/core/udp.c ****   /* in UDP, 0 checksum means 'no checksum' */
 1094              		.loc 1 786 18 is_stmt 0 discriminator 3 view .LVU361
 1095 0058 4846     		mov	r0, r9
 1096 005a FFF7FEFF 		bl	lwip_htons
 1097              	.LVL93:
 786:ThirdPackage/lwip220/core/udp.c ****   /* in UDP, 0 checksum means 'no checksum' */
 1098              		.loc 1 786 16 discriminator 3 view .LVU362
 1099 005e 7880     		strh	r0, [r7, #2]	@ unaligned
 788:ThirdPackage/lwip220/core/udp.c **** 
 1100              		.loc 1 788 3 is_stmt 1 discriminator 3 view .LVU363
 788:ThirdPackage/lwip220/core/udp.c **** 
 1101              		.loc 1 788 18 is_stmt 0 discriminator 3 view .LVU364
 1102 0060 0023     		movs	r3, #0
 1103 0062 BB71     		strb	r3, [r7, #6]
 1104 0064 FB71     		strb	r3, [r7, #7]
 797:ThirdPackage/lwip220/core/udp.c **** 
 1105              		.loc 1 797 90 is_stmt 1 discriminator 3 view .LVU365
 849:ThirdPackage/lwip220/core/udp.c ****     udphdr->len = lwip_htons(q->tot_len);
 1106              		.loc 1 849 83 discriminator 3 view .LVU366
 850:ThirdPackage/lwip220/core/udp.c ****     /* calculate checksum */
 1107              		.loc 1 850 5 discriminator 3 view .LVU367
 850:ThirdPackage/lwip220/core/udp.c ****     /* calculate checksum */
 1108              		.loc 1 850 19 is_stmt 0 discriminator 3 view .LVU368
 1109 0066 2889     		ldrh	r0, [r5, #8]
 1110 0068 FFF7FEFF 		bl	lwip_htons
 1111              	.LVL94:
 850:ThirdPackage/lwip220/core/udp.c ****     /* calculate checksum */
 1112              		.loc 1 850 17 discriminator 3 view .LVU369
 1113 006c B880     		strh	r0, [r7, #4]	@ unaligned
 879:ThirdPackage/lwip220/core/udp.c ****   }
ARM GAS  C:\Users\86188\AppData\Local\Temp\ccxMyyYF.s 			page 43


 1114              		.loc 1 879 5 is_stmt 1 discriminator 3 view .LVU370
 1115              	.LVL95:
 886:ThirdPackage/lwip220/core/udp.c **** #endif /* LWIP_MULTICAST_TX_OPTIONS */
 1116              		.loc 1 886 3 discriminator 3 view .LVU371
 889:ThirdPackage/lwip220/core/udp.c ****   LWIP_DEBUGF(UDP_DEBUG, ("udp_send: ip_output_if (,,,,0x%02"X16_F",)\n", (u16_t)ip_proto));
 1117              		.loc 1 889 84 discriminator 3 view .LVU372
 890:ThirdPackage/lwip220/core/udp.c ****   /* output to IP */
 1118              		.loc 1 890 92 discriminator 3 view .LVU373
 892:ThirdPackage/lwip220/core/udp.c ****   err = ip_output_if_src(q, src_ip, dst_ip, ttl, pcb->tos, ip_proto, netif);
 1119              		.loc 1 892 46 discriminator 3 view .LVU374
 893:ThirdPackage/lwip220/core/udp.c ****   NETIF_RESET_HINTS(netif);
 1120              		.loc 1 893 3 discriminator 3 view .LVU375
 893:ThirdPackage/lwip220/core/udp.c ****   NETIF_RESET_HINTS(netif);
 1121              		.loc 1 893 9 is_stmt 0 discriminator 3 view .LVU376
 1122 006e CDF808B0 		str	fp, [sp, #8]
 1123              	.LVL96:
 893:ThirdPackage/lwip220/core/udp.c ****   NETIF_RESET_HINTS(netif);
 1124              		.loc 1 893 9 discriminator 3 view .LVU377
 1125 0072 1123     		movs	r3, #17
 1126 0074 0193     		str	r3, [sp, #4]
 1127 0076 B37A     		ldrb	r3, [r6, #10]	@ zero_extendqisi2
 1128 0078 0093     		str	r3, [sp]
 1129 007a F37A     		ldrb	r3, [r6, #11]	@ zero_extendqisi2
 1130 007c 4246     		mov	r2, r8
 1131 007e 5146     		mov	r1, r10
 1132 0080 2846     		mov	r0, r5
 1133 0082 FFF7FEFF 		bl	ip4_output_if_src
 1134              	.LVL97:
 1135 0086 0746     		mov	r7, r0
 1136              	.LVL98:
 894:ThirdPackage/lwip220/core/udp.c **** 
 1137              		.loc 1 894 27 is_stmt 1 discriminator 3 view .LVU378
 897:ThirdPackage/lwip220/core/udp.c **** 
 1138              		.loc 1 897 39 discriminator 3 view .LVU379
 900:ThirdPackage/lwip220/core/udp.c ****     /* free the header pbuf */
 1139              		.loc 1 900 3 discriminator 3 view .LVU380
 900:ThirdPackage/lwip220/core/udp.c ****     /* free the header pbuf */
 1140              		.loc 1 900 6 is_stmt 0 discriminator 3 view .LVU381
 1141 0088 A542     		cmp	r5, r4
 1142 008a 02D0     		beq	.L99
 902:ThirdPackage/lwip220/core/udp.c ****     q = NULL;
 1143              		.loc 1 902 5 is_stmt 1 view .LVU382
 1144 008c 2846     		mov	r0, r5
 1145 008e FFF7FEFF 		bl	pbuf_free
 1146              	.LVL99:
 903:ThirdPackage/lwip220/core/udp.c ****     /* p is still referenced by the caller, and will live on */
 1147              		.loc 1 903 5 view .LVU383
 1148              	.L99:
 909:ThirdPackage/lwip220/core/udp.c **** 
 1149              		.loc 1 909 1 is_stmt 0 view .LVU384
 1150 0092 3846     		mov	r0, r7
 1151 0094 05B0     		add	sp, sp, #20
 1152              	.LCFI9:
 1153              		.cfi_remember_state
 1154              		.cfi_def_cfa_offset 36
 1155              		@ sp needed
 1156 0096 BDE8F08F 		pop	{r4, r5, r6, r7, r8, r9, r10, fp, pc}
ARM GAS  C:\Users\86188\AppData\Local\Temp\ccxMyyYF.s 			page 44


 1157              	.LVL100:
 1158              	.L112:
 1159              	.LCFI10:
 1160              		.cfi_restore_state
 747:ThirdPackage/lwip220/core/udp.c ****     err = udp_bind(pcb, &pcb->local_ip, pcb->local_port);
 1161              		.loc 1 747 98 is_stmt 1 view .LVU385
 748:ThirdPackage/lwip220/core/udp.c ****     if (err != ERR_OK) {
 1162              		.loc 1 748 5 view .LVU386
 748:ThirdPackage/lwip220/core/udp.c ****     if (err != ERR_OK) {
 1163              		.loc 1 748 11 is_stmt 0 view .LVU387
 1164 009a 0146     		mov	r1, r0
 1165              	.LVL101:
 748:ThirdPackage/lwip220/core/udp.c ****     if (err != ERR_OK) {
 1166              		.loc 1 748 11 view .LVU388
 1167 009c FFF7FEFF 		bl	udp_bind
 1168              	.LVL102:
 749:ThirdPackage/lwip220/core/udp.c ****       LWIP_DEBUGF(UDP_DEBUG | LWIP_DBG_TRACE | LWIP_DBG_LEVEL_SERIOUS, ("udp_send: forced port bind
 1169              		.loc 1 749 5 is_stmt 1 view .LVU389
 749:ThirdPackage/lwip220/core/udp.c ****       LWIP_DEBUGF(UDP_DEBUG | LWIP_DBG_TRACE | LWIP_DBG_LEVEL_SERIOUS, ("udp_send: forced port bind
 1170              		.loc 1 749 8 is_stmt 0 view .LVU390
 1171 00a0 0746     		mov	r7, r0
 1172 00a2 0028     		cmp	r0, #0
 1173 00a4 C5D0     		beq	.L100
 1174 00a6 F4E7     		b	.L99
 1175              	.LVL103:
 1176              	.L113:
 762:ThirdPackage/lwip220/core/udp.c ****     /* new header pbuf could not be allocated? */
 1177              		.loc 1 762 5 is_stmt 1 view .LVU391
 762:ThirdPackage/lwip220/core/udp.c ****     /* new header pbuf could not be allocated? */
 1178              		.loc 1 762 9 is_stmt 0 view .LVU392
 1179 00a8 4FF42072 		mov	r2, #640
 1180 00ac 0821     		movs	r1, #8
 1181 00ae 2220     		movs	r0, #34
 1182 00b0 FFF7FEFF 		bl	pbuf_alloc
 1183              	.LVL104:
 764:ThirdPackage/lwip220/core/udp.c ****       LWIP_DEBUGF(UDP_DEBUG | LWIP_DBG_TRACE | LWIP_DBG_LEVEL_SERIOUS, ("udp_send: could not alloca
 1184              		.loc 1 764 5 is_stmt 1 view .LVU393
 764:ThirdPackage/lwip220/core/udp.c ****       LWIP_DEBUGF(UDP_DEBUG | LWIP_DBG_TRACE | LWIP_DBG_LEVEL_SERIOUS, ("udp_send: could not alloca
 1185              		.loc 1 764 8 is_stmt 0 view .LVU394
 1186 00b4 0546     		mov	r5, r0
 1187 00b6 00B3     		cbz	r0, .L110
 768:ThirdPackage/lwip220/core/udp.c ****       /* chain header q in front of given pbuf p (only if p contains data) */
 1188              		.loc 1 768 5 is_stmt 1 view .LVU395
 768:ThirdPackage/lwip220/core/udp.c ****       /* chain header q in front of given pbuf p (only if p contains data) */
 1189              		.loc 1 768 10 is_stmt 0 view .LVU396
 1190 00b8 2389     		ldrh	r3, [r4, #8]
 768:ThirdPackage/lwip220/core/udp.c ****       /* chain header q in front of given pbuf p (only if p contains data) */
 1191              		.loc 1 768 8 view .LVU397
 1192 00ba 002B     		cmp	r3, #0
 1193 00bc C4D0     		beq	.L101
 770:ThirdPackage/lwip220/core/udp.c ****     }
 1194              		.loc 1 770 7 is_stmt 1 view .LVU398
 1195 00be 2146     		mov	r1, r4
 1196 00c0 FFF7FEFF 		bl	pbuf_chain
 1197              	.LVL105:
 770:ThirdPackage/lwip220/core/udp.c ****     }
 1198              		.loc 1 770 7 is_stmt 0 view .LVU399
ARM GAS  C:\Users\86188\AppData\Local\Temp\ccxMyyYF.s 			page 45


 1199 00c4 C0E7     		b	.L101
 1200              	.L114:
 781:ThirdPackage/lwip220/core/udp.c ****               (q->len >= sizeof(struct udp_hdr)));
 1201              		.loc 1 781 3 is_stmt 1 discriminator 1 view .LVU400
 781:ThirdPackage/lwip220/core/udp.c ****               (q->len >= sizeof(struct udp_hdr)));
 1202              		.loc 1 781 3 discriminator 1 view .LVU401
 1203 00c6 0E4B     		ldr	r3, .L115
 1204 00c8 40F20D32 		movw	r2, #781
 1205 00cc 0D49     		ldr	r1, .L115+4
 1206 00ce 0E48     		ldr	r0, .L115+8
 1207 00d0 FFF7FEFF 		bl	printf
 1208              	.LVL106:
 1209 00d4 BBE7     		b	.L102
 1210              	.LVL107:
 1211              	.L103:
 721:ThirdPackage/lwip220/core/udp.c ****   LWIP_ERROR("udp_sendto_if_src: invalid pbuf", p != NULL, return ERR_ARG);
 1212              		.loc 1 721 3 is_stmt 0 view .LVU402
 1213 00d6 6FF00F07 		mvn	r7, #15
 1214 00da DAE7     		b	.L99
 1215              	.L104:
 722:ThirdPackage/lwip220/core/udp.c ****   LWIP_ERROR("udp_sendto_if_src: invalid dst_ip", dst_ip != NULL, return ERR_ARG);
 1216              		.loc 1 722 3 view .LVU403
 1217 00dc 6FF00F07 		mvn	r7, #15
 1218 00e0 D7E7     		b	.L99
 1219              	.L105:
 723:ThirdPackage/lwip220/core/udp.c ****   LWIP_ERROR("udp_sendto_if_src: invalid src_ip", src_ip != NULL, return ERR_ARG);
 1220              		.loc 1 723 3 view .LVU404
 1221 00e2 6FF00F07 		mvn	r7, #15
 1222 00e6 D4E7     		b	.L99
 1223              	.L106:
 724:ThirdPackage/lwip220/core/udp.c ****   LWIP_ERROR("udp_sendto_if_src: invalid netif", netif != NULL, return ERR_ARG);
 1224              		.loc 1 724 3 view .LVU405
 1225 00e8 6FF00F07 		mvn	r7, #15
 1226 00ec D1E7     		b	.L99
 1227              	.L107:
 725:ThirdPackage/lwip220/core/udp.c **** 
 1228              		.loc 1 725 3 view .LVU406
 1229 00ee 6FF00F07 		mvn	r7, #15
 1230 00f2 CEE7     		b	.L99
 1231              	.LVL108:
 1232              	.L108:
 757:ThirdPackage/lwip220/core/udp.c ****   }
 1233              		.loc 1 757 12 view .LVU407
 1234 00f4 4FF0FF37 		mov	r7, #-1
 1235 00f8 CBE7     		b	.L99
 1236              	.LVL109:
 1237              	.L110:
 766:ThirdPackage/lwip220/core/udp.c ****     }
 1238              		.loc 1 766 14 view .LVU408
 1239 00fa 4FF0FF37 		mov	r7, #-1
 1240 00fe C8E7     		b	.L99
 1241              	.L116:
 1242              		.align	2
 1243              	.L115:
 1244 0100 00000000 		.word	.LC0
 1245 0104 00000000 		.word	.LC7
 1246 0108 44000000 		.word	.LC2
ARM GAS  C:\Users\86188\AppData\Local\Temp\ccxMyyYF.s 			page 46


 1247              		.cfi_endproc
 1248              	.LFE167:
 1250              		.section	.text.udp_sendto_if,"ax",%progbits
 1251              		.align	1
 1252              		.global	udp_sendto_if
 1253              		.syntax unified
 1254              		.thumb
 1255              		.thumb_func
 1257              	udp_sendto_if:
 1258              	.LVL110:
 1259              	.LFB166:
 626:ThirdPackage/lwip220/core/udp.c **** #if LWIP_CHECKSUM_ON_COPY && CHECKSUM_GEN_UDP
 1260              		.loc 1 626 1 is_stmt 1 view -0
 1261              		.cfi_startproc
 1262              		@ args = 4, pretend = 0, frame = 0
 1263              		@ frame_needed = 0, uses_anonymous_args = 0
 626:ThirdPackage/lwip220/core/udp.c **** #if LWIP_CHECKSUM_ON_COPY && CHECKSUM_GEN_UDP
 1264              		.loc 1 626 1 is_stmt 0 view .LVU410
 1265 0000 F0B5     		push	{r4, r5, r6, r7, lr}
 1266              	.LCFI11:
 1267              		.cfi_def_cfa_offset 20
 1268              		.cfi_offset 4, -20
 1269              		.cfi_offset 5, -16
 1270              		.cfi_offset 6, -12
 1271              		.cfi_offset 7, -8
 1272              		.cfi_offset 14, -4
 1273 0002 83B0     		sub	sp, sp, #12
 1274              	.LCFI12:
 1275              		.cfi_def_cfa_offset 32
 1276 0004 089D     		ldr	r5, [sp, #32]
 638:ThirdPackage/lwip220/core/udp.c **** 
 1277              		.loc 1 638 3 is_stmt 1 view .LVU411
 640:ThirdPackage/lwip220/core/udp.c ****   LWIP_ERROR("udp_sendto_if: invalid pbuf", p != NULL, return ERR_ARG);
 1278              		.loc 1 640 3 view .LVU412
 640:ThirdPackage/lwip220/core/udp.c ****   LWIP_ERROR("udp_sendto_if: invalid pbuf", p != NULL, return ERR_ARG);
 1279              		.loc 1 640 3 view .LVU413
 1280 0006 C8B1     		cbz	r0, .L122
 1281 0008 0446     		mov	r4, r0
 640:ThirdPackage/lwip220/core/udp.c ****   LWIP_ERROR("udp_sendto_if: invalid pbuf", p != NULL, return ERR_ARG);
 1282              		.loc 1 640 3 discriminator 2 view .LVU414
 641:ThirdPackage/lwip220/core/udp.c ****   LWIP_ERROR("udp_sendto_if: invalid dst_ip", dst_ip != NULL, return ERR_ARG);
 1283              		.loc 1 641 3 discriminator 2 view .LVU415
 641:ThirdPackage/lwip220/core/udp.c ****   LWIP_ERROR("udp_sendto_if: invalid dst_ip", dst_ip != NULL, return ERR_ARG);
 1284              		.loc 1 641 3 discriminator 2 view .LVU416
 1285 000a D1B1     		cbz	r1, .L123
 641:ThirdPackage/lwip220/core/udp.c ****   LWIP_ERROR("udp_sendto_if: invalid dst_ip", dst_ip != NULL, return ERR_ARG);
 1286              		.loc 1 641 3 discriminator 2 view .LVU417
 642:ThirdPackage/lwip220/core/udp.c ****   LWIP_ERROR("udp_sendto_if: invalid netif", netif != NULL, return ERR_ARG);
 1287              		.loc 1 642 3 discriminator 2 view .LVU418
 642:ThirdPackage/lwip220/core/udp.c ****   LWIP_ERROR("udp_sendto_if: invalid netif", netif != NULL, return ERR_ARG);
 1288              		.loc 1 642 3 discriminator 2 view .LVU419
 1289 000c E2B1     		cbz	r2, .L124
 642:ThirdPackage/lwip220/core/udp.c ****   LWIP_ERROR("udp_sendto_if: invalid netif", netif != NULL, return ERR_ARG);
 1290              		.loc 1 642 3 discriminator 2 view .LVU420
 643:ThirdPackage/lwip220/core/udp.c **** 
 1291              		.loc 1 643 3 discriminator 2 view .LVU421
 643:ThirdPackage/lwip220/core/udp.c **** 
ARM GAS  C:\Users\86188\AppData\Local\Temp\ccxMyyYF.s 			page 47


 1292              		.loc 1 643 3 discriminator 2 view .LVU422
 1293 000e F5B1     		cbz	r5, .L125
 643:ThirdPackage/lwip220/core/udp.c **** 
 1294              		.loc 1 643 3 view .LVU423
 645:ThirdPackage/lwip220/core/udp.c ****     return ERR_VAL;
 1295              		.loc 1 645 3 view .LVU424
 673:ThirdPackage/lwip220/core/udp.c ****         ip4_addr_ismulticast(ip_2_ip4(&pcb->local_ip))) {
 1296              		.loc 1 673 5 view .LVU425
 673:ThirdPackage/lwip220/core/udp.c ****         ip4_addr_ismulticast(ip_2_ip4(&pcb->local_ip))) {
 1297              		.loc 1 673 8 is_stmt 0 view .LVU426
 1298 0010 60B1     		cbz	r0, .L119
 673:ThirdPackage/lwip220/core/udp.c ****         ip4_addr_ismulticast(ip_2_ip4(&pcb->local_ip))) {
 1299              		.loc 1 673 9 discriminator 1 view .LVU427
 1300 0012 0668     		ldr	r6, [r0]
 1301 0014 56B1     		cbz	r6, .L119
 674:ThirdPackage/lwip220/core/udp.c ****       /* if the local_ip is any or multicast
 1302              		.loc 1 674 9 discriminator 2 view .LVU428
 1303 0016 06F0F00C 		and	ip, r6, #240
 673:ThirdPackage/lwip220/core/udp.c ****         ip4_addr_ismulticast(ip_2_ip4(&pcb->local_ip))) {
 1304              		.loc 1 673 50 discriminator 2 view .LVU429
 1305 001a BCF1E00F 		cmp	ip, #224
 1306 001e 05D0     		beq	.L119
 681:ThirdPackage/lwip220/core/udp.c ****         /* local_ip doesn't match, drop the packet */
 1307              		.loc 1 681 7 is_stmt 1 view .LVU430
 681:ThirdPackage/lwip220/core/udp.c ****         /* local_ip doesn't match, drop the packet */
 1308              		.loc 1 681 10 is_stmt 0 view .LVU431
 1309 0020 6F68     		ldr	r7, [r5, #4]
 1310 0022 BE42     		cmp	r6, r7
 1311 0024 03D0     		beq	.L121
 683:ThirdPackage/lwip220/core/udp.c ****       }
 1312              		.loc 1 683 16 view .LVU432
 1313 0026 6FF00300 		mvn	r0, #3
 1314              	.LVL111:
 683:ThirdPackage/lwip220/core/udp.c ****       }
 1315              		.loc 1 683 16 view .LVU433
 1316 002a 05E0     		b	.L118
 1317              	.LVL112:
 1318              	.L119:
 677:ThirdPackage/lwip220/core/udp.c ****     } else {
 1319              		.loc 1 677 7 is_stmt 1 view .LVU434
 677:ThirdPackage/lwip220/core/udp.c ****     } else {
 1320              		.loc 1 677 14 is_stmt 0 view .LVU435
 1321 002c 281D     		adds	r0, r5, #4
 1322              	.LVL113:
 1323              	.L121:
 692:ThirdPackage/lwip220/core/udp.c **** #endif /* LWIP_CHECKSUM_ON_COPY && CHECKSUM_GEN_UDP */
 1324              		.loc 1 692 3 is_stmt 1 view .LVU436
 692:ThirdPackage/lwip220/core/udp.c **** #endif /* LWIP_CHECKSUM_ON_COPY && CHECKSUM_GEN_UDP */
 1325              		.loc 1 692 10 is_stmt 0 view .LVU437
 1326 002e 0190     		str	r0, [sp, #4]
 1327 0030 0095     		str	r5, [sp]
 1328 0032 2046     		mov	r0, r4
 1329              	.LVL114:
 692:ThirdPackage/lwip220/core/udp.c **** #endif /* LWIP_CHECKSUM_ON_COPY && CHECKSUM_GEN_UDP */
 1330              		.loc 1 692 10 view .LVU438
 1331 0034 FFF7FEFF 		bl	udp_sendto_if_src
 1332              	.LVL115:
ARM GAS  C:\Users\86188\AppData\Local\Temp\ccxMyyYF.s 			page 48


 1333              	.L118:
 694:ThirdPackage/lwip220/core/udp.c **** 
 1334              		.loc 1 694 1 view .LVU439
 1335 0038 03B0     		add	sp, sp, #12
 1336              	.LCFI13:
 1337              		.cfi_remember_state
 1338              		.cfi_def_cfa_offset 20
 1339              		@ sp needed
 1340 003a F0BD     		pop	{r4, r5, r6, r7, pc}
 1341              	.LVL116:
 1342              	.L122:
 1343              	.LCFI14:
 1344              		.cfi_restore_state
 640:ThirdPackage/lwip220/core/udp.c ****   LWIP_ERROR("udp_sendto_if: invalid pbuf", p != NULL, return ERR_ARG);
 1345              		.loc 1 640 3 view .LVU440
 1346 003c 6FF00F00 		mvn	r0, #15
 1347              	.LVL117:
 640:ThirdPackage/lwip220/core/udp.c ****   LWIP_ERROR("udp_sendto_if: invalid pbuf", p != NULL, return ERR_ARG);
 1348              		.loc 1 640 3 view .LVU441
 1349 0040 FAE7     		b	.L118
 1350              	.LVL118:
 1351              	.L123:
 641:ThirdPackage/lwip220/core/udp.c ****   LWIP_ERROR("udp_sendto_if: invalid dst_ip", dst_ip != NULL, return ERR_ARG);
 1352              		.loc 1 641 3 view .LVU442
 1353 0042 6FF00F00 		mvn	r0, #15
 1354              	.LVL119:
 641:ThirdPackage/lwip220/core/udp.c ****   LWIP_ERROR("udp_sendto_if: invalid dst_ip", dst_ip != NULL, return ERR_ARG);
 1355              		.loc 1 641 3 view .LVU443
 1356 0046 F7E7     		b	.L118
 1357              	.LVL120:
 1358              	.L124:
 642:ThirdPackage/lwip220/core/udp.c ****   LWIP_ERROR("udp_sendto_if: invalid netif", netif != NULL, return ERR_ARG);
 1359              		.loc 1 642 3 view .LVU444
 1360 0048 6FF00F00 		mvn	r0, #15
 1361              	.LVL121:
 642:ThirdPackage/lwip220/core/udp.c ****   LWIP_ERROR("udp_sendto_if: invalid netif", netif != NULL, return ERR_ARG);
 1362              		.loc 1 642 3 view .LVU445
 1363 004c F4E7     		b	.L118
 1364              	.LVL122:
 1365              	.L125:
 643:ThirdPackage/lwip220/core/udp.c **** 
 1366              		.loc 1 643 3 view .LVU446
 1367 004e 6FF00F00 		mvn	r0, #15
 1368              	.LVL123:
 643:ThirdPackage/lwip220/core/udp.c **** 
 1369              		.loc 1 643 3 view .LVU447
 1370 0052 F1E7     		b	.L118
 1371              		.cfi_endproc
 1372              	.LFE166:
 1374              		.section	.text.udp_sendto,"ax",%progbits
 1375              		.align	1
 1376              		.global	udp_sendto
 1377              		.syntax unified
 1378              		.thumb
 1379              		.thumb_func
 1381              	udp_sendto:
 1382              	.LVL124:
ARM GAS  C:\Users\86188\AppData\Local\Temp\ccxMyyYF.s 			page 49


 1383              	.LFB165:
 522:ThirdPackage/lwip220/core/udp.c **** #if LWIP_CHECKSUM_ON_COPY && CHECKSUM_GEN_UDP
 1384              		.loc 1 522 1 is_stmt 1 view -0
 1385              		.cfi_startproc
 1386              		@ args = 0, pretend = 0, frame = 0
 1387              		@ frame_needed = 0, uses_anonymous_args = 0
 534:ThirdPackage/lwip220/core/udp.c **** 
 1388              		.loc 1 534 3 view .LVU449
 536:ThirdPackage/lwip220/core/udp.c ****   LWIP_ERROR("udp_sendto: invalid pbuf", p != NULL, return ERR_ARG);
 1389              		.loc 1 536 3 view .LVU450
 536:ThirdPackage/lwip220/core/udp.c ****   LWIP_ERROR("udp_sendto: invalid pbuf", p != NULL, return ERR_ARG);
 1390              		.loc 1 536 3 view .LVU451
 1391 0000 C8B1     		cbz	r0, .L132
 522:ThirdPackage/lwip220/core/udp.c **** #if LWIP_CHECKSUM_ON_COPY && CHECKSUM_GEN_UDP
 1392              		.loc 1 522 1 is_stmt 0 discriminator 2 view .LVU452
 1393 0002 F0B5     		push	{r4, r5, r6, r7, lr}
 1394              	.LCFI15:
 1395              		.cfi_def_cfa_offset 20
 1396              		.cfi_offset 4, -20
 1397              		.cfi_offset 5, -16
 1398              		.cfi_offset 6, -12
 1399              		.cfi_offset 7, -8
 1400              		.cfi_offset 14, -4
 1401 0004 83B0     		sub	sp, sp, #12
 1402              	.LCFI16:
 1403              		.cfi_def_cfa_offset 32
 1404 0006 0D46     		mov	r5, r1
 1405 0008 1446     		mov	r4, r2
 1406 000a 1E46     		mov	r6, r3
 1407 000c 0746     		mov	r7, r0
 536:ThirdPackage/lwip220/core/udp.c ****   LWIP_ERROR("udp_sendto: invalid pbuf", p != NULL, return ERR_ARG);
 1408              		.loc 1 536 3 is_stmt 1 discriminator 2 view .LVU453
 537:ThirdPackage/lwip220/core/udp.c ****   LWIP_ERROR("udp_sendto: invalid dst_ip", dst_ip != NULL, return ERR_ARG);
 1409              		.loc 1 537 3 discriminator 2 view .LVU454
 537:ThirdPackage/lwip220/core/udp.c ****   LWIP_ERROR("udp_sendto: invalid dst_ip", dst_ip != NULL, return ERR_ARG);
 1410              		.loc 1 537 3 discriminator 2 view .LVU455
 1411 000e A9B1     		cbz	r1, .L133
 537:ThirdPackage/lwip220/core/udp.c ****   LWIP_ERROR("udp_sendto: invalid dst_ip", dst_ip != NULL, return ERR_ARG);
 1412              		.loc 1 537 3 discriminator 2 view .LVU456
 538:ThirdPackage/lwip220/core/udp.c **** 
 1413              		.loc 1 538 3 discriminator 2 view .LVU457
 538:ThirdPackage/lwip220/core/udp.c **** 
 1414              		.loc 1 538 3 discriminator 2 view .LVU458
 1415 0010 BAB1     		cbz	r2, .L134
 538:ThirdPackage/lwip220/core/udp.c **** 
 1416              		.loc 1 538 3 view .LVU459
 540:ThirdPackage/lwip220/core/udp.c ****     return ERR_VAL;
 1417              		.loc 1 540 3 view .LVU460
 544:ThirdPackage/lwip220/core/udp.c **** 
 1418              		.loc 1 544 58 view .LVU461
 546:ThirdPackage/lwip220/core/udp.c ****     netif = netif_get_by_index(pcb->netif_idx);
 1419              		.loc 1 546 3 view .LVU462
 546:ThirdPackage/lwip220/core/udp.c ****     netif = netif_get_by_index(pcb->netif_idx);
 1420              		.loc 1 546 10 is_stmt 0 view .LVU463
 1421 0012 007A     		ldrb	r0, [r0, #8]	@ zero_extendqisi2
 1422              	.LVL125:
 546:ThirdPackage/lwip220/core/udp.c ****     netif = netif_get_by_index(pcb->netif_idx);
ARM GAS  C:\Users\86188\AppData\Local\Temp\ccxMyyYF.s 			page 50


 1423              		.loc 1 546 6 view .LVU464
 1424 0014 58B1     		cbz	r0, .L130
 547:ThirdPackage/lwip220/core/udp.c ****   } else {
 1425              		.loc 1 547 5 is_stmt 1 view .LVU465
 547:ThirdPackage/lwip220/core/udp.c ****   } else {
 1426              		.loc 1 547 13 is_stmt 0 view .LVU466
 1427 0016 FFF7FEFF 		bl	netif_get_by_index
 1428              	.LVL126:
 1429              	.L131:
 589:ThirdPackage/lwip220/core/udp.c ****     LWIP_DEBUGF(UDP_DEBUG | LWIP_DBG_LEVEL_SERIOUS, ("udp_send: No route to "));
 1430              		.loc 1 589 3 is_stmt 1 view .LVU467
 589:ThirdPackage/lwip220/core/udp.c ****     LWIP_DEBUGF(UDP_DEBUG | LWIP_DBG_LEVEL_SERIOUS, ("udp_send: No route to "));
 1431              		.loc 1 589 6 is_stmt 0 view .LVU468
 1432 001a A8B1     		cbz	r0, .L135
 599:ThirdPackage/lwip220/core/udp.c **** #endif /* LWIP_CHECKSUM_ON_COPY && CHECKSUM_GEN_UDP */
 1433              		.loc 1 599 3 is_stmt 1 view .LVU469
 599:ThirdPackage/lwip220/core/udp.c **** #endif /* LWIP_CHECKSUM_ON_COPY && CHECKSUM_GEN_UDP */
 1434              		.loc 1 599 10 is_stmt 0 view .LVU470
 1435 001c 0090     		str	r0, [sp]
 1436 001e 3346     		mov	r3, r6
 1437 0020 2246     		mov	r2, r4
 1438 0022 2946     		mov	r1, r5
 1439 0024 3846     		mov	r0, r7
 1440              	.LVL127:
 599:ThirdPackage/lwip220/core/udp.c **** #endif /* LWIP_CHECKSUM_ON_COPY && CHECKSUM_GEN_UDP */
 1441              		.loc 1 599 10 view .LVU471
 1442 0026 FFF7FEFF 		bl	udp_sendto_if
 1443              	.LVL128:
 1444              	.L129:
 601:ThirdPackage/lwip220/core/udp.c **** 
 1445              		.loc 1 601 1 view .LVU472
 1446 002a 03B0     		add	sp, sp, #12
 1447              	.LCFI17:
 1448              		.cfi_remember_state
 1449              		.cfi_def_cfa_offset 20
 1450              		@ sp needed
 1451 002c F0BD     		pop	{r4, r5, r6, r7, pc}
 1452              	.LVL129:
 1453              	.L130:
 1454              	.LCFI18:
 1455              		.cfi_restore_state
 584:ThirdPackage/lwip220/core/udp.c ****     }
 1456              		.loc 1 584 7 is_stmt 1 view .LVU473
 584:ThirdPackage/lwip220/core/udp.c ****     }
 1457              		.loc 1 584 15 is_stmt 0 view .LVU474
 1458 002e 1046     		mov	r0, r2
 1459 0030 FFF7FEFF 		bl	ip4_route
 1460              	.LVL130:
 584:ThirdPackage/lwip220/core/udp.c ****     }
 1461              		.loc 1 584 15 view .LVU475
 1462 0034 F1E7     		b	.L131
 1463              	.LVL131:
 1464              	.L132:
 1465              	.LCFI19:
 1466              		.cfi_def_cfa_offset 0
 1467              		.cfi_restore 4
 1468              		.cfi_restore 5
ARM GAS  C:\Users\86188\AppData\Local\Temp\ccxMyyYF.s 			page 51


 1469              		.cfi_restore 6
 1470              		.cfi_restore 7
 1471              		.cfi_restore 14
 536:ThirdPackage/lwip220/core/udp.c ****   LWIP_ERROR("udp_sendto: invalid pbuf", p != NULL, return ERR_ARG);
 1472              		.loc 1 536 3 view .LVU476
 1473 0036 6FF00F00 		mvn	r0, #15
 1474              	.LVL132:
 601:ThirdPackage/lwip220/core/udp.c **** 
 1475              		.loc 1 601 1 view .LVU477
 1476 003a 7047     		bx	lr
 1477              	.LVL133:
 1478              	.L133:
 1479              	.LCFI20:
 1480              		.cfi_def_cfa_offset 32
 1481              		.cfi_offset 4, -20
 1482              		.cfi_offset 5, -16
 1483              		.cfi_offset 6, -12
 1484              		.cfi_offset 7, -8
 1485              		.cfi_offset 14, -4
 537:ThirdPackage/lwip220/core/udp.c ****   LWIP_ERROR("udp_sendto: invalid dst_ip", dst_ip != NULL, return ERR_ARG);
 1486              		.loc 1 537 3 view .LVU478
 1487 003c 6FF00F00 		mvn	r0, #15
 1488              	.LVL134:
 537:ThirdPackage/lwip220/core/udp.c ****   LWIP_ERROR("udp_sendto: invalid dst_ip", dst_ip != NULL, return ERR_ARG);
 1489              		.loc 1 537 3 view .LVU479
 1490 0040 F3E7     		b	.L129
 1491              	.LVL135:
 1492              	.L134:
 538:ThirdPackage/lwip220/core/udp.c **** 
 1493              		.loc 1 538 3 view .LVU480
 1494 0042 6FF00F00 		mvn	r0, #15
 1495              	.LVL136:
 538:ThirdPackage/lwip220/core/udp.c **** 
 1496              		.loc 1 538 3 view .LVU481
 1497 0046 F0E7     		b	.L129
 1498              	.LVL137:
 1499              	.L135:
 594:ThirdPackage/lwip220/core/udp.c ****   }
 1500              		.loc 1 594 12 view .LVU482
 1501 0048 6FF00300 		mvn	r0, #3
 1502              	.LVL138:
 594:ThirdPackage/lwip220/core/udp.c ****   }
 1503              		.loc 1 594 12 view .LVU483
 1504 004c EDE7     		b	.L129
 1505              		.cfi_endproc
 1506              	.LFE165:
 1508              		.section	.text.udp_send,"ax",%progbits
 1509              		.align	1
 1510              		.global	udp_send
 1511              		.syntax unified
 1512              		.thumb
 1513              		.thumb_func
 1515              	udp_send:
 1516              	.LVL139:
 1517              	.LFB164:
 468:ThirdPackage/lwip220/core/udp.c ****   LWIP_ERROR("udp_send: invalid pcb", pcb != NULL, return ERR_ARG);
 1518              		.loc 1 468 1 is_stmt 1 view -0
ARM GAS  C:\Users\86188\AppData\Local\Temp\ccxMyyYF.s 			page 52


 1519              		.cfi_startproc
 1520              		@ args = 0, pretend = 0, frame = 0
 1521              		@ frame_needed = 0, uses_anonymous_args = 0
 469:ThirdPackage/lwip220/core/udp.c ****   LWIP_ERROR("udp_send: invalid pbuf", p != NULL, return ERR_ARG);
 1522              		.loc 1 469 3 view .LVU485
 469:ThirdPackage/lwip220/core/udp.c ****   LWIP_ERROR("udp_send: invalid pbuf", p != NULL, return ERR_ARG);
 1523              		.loc 1 469 3 view .LVU486
 1524 0000 30B1     		cbz	r0, .L142
 469:ThirdPackage/lwip220/core/udp.c ****   LWIP_ERROR("udp_send: invalid pbuf", p != NULL, return ERR_ARG);
 1525              		.loc 1 469 3 discriminator 2 view .LVU487
 470:ThirdPackage/lwip220/core/udp.c **** 
 1526              		.loc 1 470 3 discriminator 2 view .LVU488
 470:ThirdPackage/lwip220/core/udp.c **** 
 1527              		.loc 1 470 3 discriminator 2 view .LVU489
 1528 0002 41B1     		cbz	r1, .L143
 468:ThirdPackage/lwip220/core/udp.c ****   LWIP_ERROR("udp_send: invalid pcb", pcb != NULL, return ERR_ARG);
 1529              		.loc 1 468 1 is_stmt 0 view .LVU490
 1530 0004 08B5     		push	{r3, lr}
 1531              	.LCFI21:
 1532              		.cfi_def_cfa_offset 8
 1533              		.cfi_offset 3, -8
 1534              		.cfi_offset 14, -4
 470:ThirdPackage/lwip220/core/udp.c **** 
 1535              		.loc 1 470 3 is_stmt 1 view .LVU491
 472:ThirdPackage/lwip220/core/udp.c ****     return ERR_VAL;
 1536              		.loc 1 472 3 view .LVU492
 477:ThirdPackage/lwip220/core/udp.c **** }
 1537              		.loc 1 477 3 view .LVU493
 477:ThirdPackage/lwip220/core/udp.c **** }
 1538              		.loc 1 477 10 is_stmt 0 view .LVU494
 1539 0006 838A     		ldrh	r3, [r0, #20]
 1540 0008 021D     		adds	r2, r0, #4
 1541 000a FFF7FEFF 		bl	udp_sendto
 1542              	.LVL140:
 478:ThirdPackage/lwip220/core/udp.c **** 
 1543              		.loc 1 478 1 view .LVU495
 1544 000e 08BD     		pop	{r3, pc}
 1545              	.LVL141:
 1546              	.L142:
 1547              	.LCFI22:
 1548              		.cfi_def_cfa_offset 0
 1549              		.cfi_restore 3
 1550              		.cfi_restore 14
 469:ThirdPackage/lwip220/core/udp.c ****   LWIP_ERROR("udp_send: invalid pbuf", p != NULL, return ERR_ARG);
 1551              		.loc 1 469 3 view .LVU496
 1552 0010 6FF00F00 		mvn	r0, #15
 1553              	.LVL142:
 469:ThirdPackage/lwip220/core/udp.c ****   LWIP_ERROR("udp_send: invalid pbuf", p != NULL, return ERR_ARG);
 1554              		.loc 1 469 3 view .LVU497
 1555 0014 7047     		bx	lr
 1556              	.LVL143:
 1557              	.L143:
 470:ThirdPackage/lwip220/core/udp.c **** 
 1558              		.loc 1 470 3 view .LVU498
 1559 0016 6FF00F00 		mvn	r0, #15
 1560              	.LVL144:
 478:ThirdPackage/lwip220/core/udp.c **** 
ARM GAS  C:\Users\86188\AppData\Local\Temp\ccxMyyYF.s 			page 53


 1561              		.loc 1 478 1 view .LVU499
 1562 001a 7047     		bx	lr
 1563              		.cfi_endproc
 1564              	.LFE164:
 1566              		.section	.text.udp_bind_netif,"ax",%progbits
 1567              		.align	1
 1568              		.global	udp_bind_netif
 1569              		.syntax unified
 1570              		.thumb
 1571              		.thumb_func
 1573              	udp_bind_netif:
 1574              	.LVL145:
 1575              	.LFB169:
1032:ThirdPackage/lwip220/core/udp.c **** 
1033:ThirdPackage/lwip220/core/udp.c **** /**
1034:ThirdPackage/lwip220/core/udp.c ****  * @ingroup udp_raw
1035:ThirdPackage/lwip220/core/udp.c ****  * Bind an UDP PCB to a specific netif.
1036:ThirdPackage/lwip220/core/udp.c ****  * After calling this function, all packets received via this PCB
1037:ThirdPackage/lwip220/core/udp.c ****  * are guaranteed to have come in via the specified netif, and all
1038:ThirdPackage/lwip220/core/udp.c ****  * outgoing packets will go out via the specified netif.
1039:ThirdPackage/lwip220/core/udp.c ****  *
1040:ThirdPackage/lwip220/core/udp.c ****  * @param pcb UDP PCB to be bound.
1041:ThirdPackage/lwip220/core/udp.c ****  * @param netif netif to bind udp pcb to. Can be NULL.
1042:ThirdPackage/lwip220/core/udp.c ****  *
1043:ThirdPackage/lwip220/core/udp.c ****  * @see udp_disconnect()
1044:ThirdPackage/lwip220/core/udp.c ****  */
1045:ThirdPackage/lwip220/core/udp.c **** void
1046:ThirdPackage/lwip220/core/udp.c **** udp_bind_netif(struct udp_pcb *pcb, const struct netif *netif)
1047:ThirdPackage/lwip220/core/udp.c **** {
 1576              		.loc 1 1047 1 is_stmt 1 view -0
 1577              		.cfi_startproc
 1578              		@ args = 0, pretend = 0, frame = 0
 1579              		@ frame_needed = 0, uses_anonymous_args = 0
 1580              		@ link register save eliminated.
1048:ThirdPackage/lwip220/core/udp.c ****   LWIP_ASSERT_CORE_LOCKED();
 1581              		.loc 1 1048 28 view .LVU501
1049:ThirdPackage/lwip220/core/udp.c **** 
1050:ThirdPackage/lwip220/core/udp.c ****   if (netif != NULL) {
 1582              		.loc 1 1050 3 view .LVU502
 1583              		.loc 1 1050 6 is_stmt 0 view .LVU503
 1584 0000 21B1     		cbz	r1, .L149
1051:ThirdPackage/lwip220/core/udp.c ****     pcb->netif_idx = netif_get_index(netif);
 1585              		.loc 1 1051 5 is_stmt 1 view .LVU504
 1586              		.loc 1 1051 22 is_stmt 0 view .LVU505
 1587 0002 91F83030 		ldrb	r3, [r1, #48]	@ zero_extendqisi2
 1588 0006 0133     		adds	r3, r3, #1
 1589              		.loc 1 1051 20 view .LVU506
 1590 0008 0372     		strb	r3, [r0, #8]
 1591 000a 7047     		bx	lr
 1592              	.L149:
1052:ThirdPackage/lwip220/core/udp.c ****   } else {
1053:ThirdPackage/lwip220/core/udp.c ****     pcb->netif_idx = NETIF_NO_INDEX;
 1593              		.loc 1 1053 5 is_stmt 1 view .LVU507
 1594              		.loc 1 1053 20 is_stmt 0 view .LVU508
 1595 000c 0023     		movs	r3, #0
 1596 000e 0372     		strb	r3, [r0, #8]
1054:ThirdPackage/lwip220/core/udp.c ****   }
ARM GAS  C:\Users\86188\AppData\Local\Temp\ccxMyyYF.s 			page 54


1055:ThirdPackage/lwip220/core/udp.c **** }
 1597              		.loc 1 1055 1 view .LVU509
 1598 0010 7047     		bx	lr
 1599              		.cfi_endproc
 1600              	.LFE169:
 1602              		.section	.text.udp_connect,"ax",%progbits
 1603              		.align	1
 1604              		.global	udp_connect
 1605              		.syntax unified
 1606              		.thumb
 1607              		.thumb_func
 1609              	udp_connect:
 1610              	.LVL146:
 1611              	.LFB170:
1056:ThirdPackage/lwip220/core/udp.c **** 
1057:ThirdPackage/lwip220/core/udp.c **** /**
1058:ThirdPackage/lwip220/core/udp.c ****  * @ingroup udp_raw
1059:ThirdPackage/lwip220/core/udp.c ****  * Sets the remote end of the pcb. This function does not generate any
1060:ThirdPackage/lwip220/core/udp.c ****  * network traffic, but only sets the remote address of the pcb.
1061:ThirdPackage/lwip220/core/udp.c ****  *
1062:ThirdPackage/lwip220/core/udp.c ****  * @param pcb UDP PCB to be connected with remote address ipaddr and port.
1063:ThirdPackage/lwip220/core/udp.c ****  * @param ipaddr remote IP address to connect with.
1064:ThirdPackage/lwip220/core/udp.c ****  * @param port remote UDP port to connect with.
1065:ThirdPackage/lwip220/core/udp.c ****  *
1066:ThirdPackage/lwip220/core/udp.c ****  * @return lwIP error code
1067:ThirdPackage/lwip220/core/udp.c ****  *
1068:ThirdPackage/lwip220/core/udp.c ****  * ipaddr & port are expected to be in the same byte order as in the pcb.
1069:ThirdPackage/lwip220/core/udp.c ****  *
1070:ThirdPackage/lwip220/core/udp.c ****  * The udp pcb is bound to a random local port if not already bound.
1071:ThirdPackage/lwip220/core/udp.c ****  *
1072:ThirdPackage/lwip220/core/udp.c ****  * @see udp_disconnect()
1073:ThirdPackage/lwip220/core/udp.c ****  */
1074:ThirdPackage/lwip220/core/udp.c **** err_t
1075:ThirdPackage/lwip220/core/udp.c **** udp_connect(struct udp_pcb *pcb, const ip_addr_t *ipaddr, u16_t port)
1076:ThirdPackage/lwip220/core/udp.c **** {
 1612              		.loc 1 1076 1 is_stmt 1 view -0
 1613              		.cfi_startproc
 1614              		@ args = 0, pretend = 0, frame = 0
 1615              		@ frame_needed = 0, uses_anonymous_args = 0
1077:ThirdPackage/lwip220/core/udp.c ****   struct udp_pcb *ipcb;
 1616              		.loc 1 1077 3 view .LVU511
1078:ThirdPackage/lwip220/core/udp.c **** 
1079:ThirdPackage/lwip220/core/udp.c ****   LWIP_ASSERT_CORE_LOCKED();
 1617              		.loc 1 1079 28 view .LVU512
1080:ThirdPackage/lwip220/core/udp.c **** 
1081:ThirdPackage/lwip220/core/udp.c ****   LWIP_ERROR("udp_connect: invalid pcb", pcb != NULL, return ERR_ARG);
 1618              		.loc 1 1081 3 view .LVU513
 1619              		.loc 1 1081 3 view .LVU514
 1620 0000 00B3     		cbz	r0, .L156
1076:ThirdPackage/lwip220/core/udp.c ****   struct udp_pcb *ipcb;
 1621              		.loc 1 1076 1 is_stmt 0 discriminator 2 view .LVU515
 1622 0002 70B5     		push	{r4, r5, r6, lr}
 1623              	.LCFI23:
 1624              		.cfi_def_cfa_offset 16
 1625              		.cfi_offset 4, -16
 1626              		.cfi_offset 5, -12
 1627              		.cfi_offset 6, -8
ARM GAS  C:\Users\86188\AppData\Local\Temp\ccxMyyYF.s 			page 55


 1628              		.cfi_offset 14, -4
 1629 0004 0D46     		mov	r5, r1
 1630 0006 1646     		mov	r6, r2
 1631 0008 0446     		mov	r4, r0
 1632              		.loc 1 1081 3 is_stmt 1 discriminator 2 view .LVU516
1082:ThirdPackage/lwip220/core/udp.c ****   LWIP_ERROR("udp_connect: invalid ipaddr", ipaddr != NULL, return ERR_ARG);
 1633              		.loc 1 1082 3 discriminator 2 view .LVU517
 1634              		.loc 1 1082 3 discriminator 2 view .LVU518
 1635 000a F1B1     		cbz	r1, .L157
 1636              		.loc 1 1082 3 discriminator 2 view .LVU519
1083:ThirdPackage/lwip220/core/udp.c **** 
1084:ThirdPackage/lwip220/core/udp.c ****   if (pcb->local_port == 0) {
 1637              		.loc 1 1084 3 discriminator 2 view .LVU520
 1638              		.loc 1 1084 10 is_stmt 0 discriminator 2 view .LVU521
 1639 000c 428A     		ldrh	r2, [r0, #18]
 1640              	.LVL147:
 1641              		.loc 1 1084 6 discriminator 2 view .LVU522
 1642 000e 72B1     		cbz	r2, .L163
 1643              	.LVL148:
 1644              	.L153:
1085:ThirdPackage/lwip220/core/udp.c ****     err_t err = udp_bind(pcb, &pcb->local_ip, pcb->local_port);
1086:ThirdPackage/lwip220/core/udp.c ****     if (err != ERR_OK) {
1087:ThirdPackage/lwip220/core/udp.c ****       return err;
1088:ThirdPackage/lwip220/core/udp.c ****     }
1089:ThirdPackage/lwip220/core/udp.c ****   }
1090:ThirdPackage/lwip220/core/udp.c **** 
1091:ThirdPackage/lwip220/core/udp.c ****   ip_addr_set_ipaddr(&pcb->remote_ip, ipaddr);
 1645              		.loc 1 1091 3 is_stmt 1 view .LVU523
 1646 0010 2B68     		ldr	r3, [r5]
 1647 0012 6360     		str	r3, [r4, #4]
1092:ThirdPackage/lwip220/core/udp.c **** #if LWIP_IPV6 && LWIP_IPV6_SCOPES
1093:ThirdPackage/lwip220/core/udp.c ****   /* If the given IP address should have a zone but doesn't, assign one now,
1094:ThirdPackage/lwip220/core/udp.c ****    * using the bound address to make a more informed decision when possible. */
1095:ThirdPackage/lwip220/core/udp.c ****   if (IP_IS_V6(&pcb->remote_ip) &&
1096:ThirdPackage/lwip220/core/udp.c ****       ip6_addr_lacks_zone(ip_2_ip6(&pcb->remote_ip), IP6_UNKNOWN)) {
1097:ThirdPackage/lwip220/core/udp.c ****     ip6_addr_select_zone(ip_2_ip6(&pcb->remote_ip), ip_2_ip6(&pcb->local_ip));
1098:ThirdPackage/lwip220/core/udp.c ****   }
1099:ThirdPackage/lwip220/core/udp.c **** #endif /* LWIP_IPV6 && LWIP_IPV6_SCOPES */
1100:ThirdPackage/lwip220/core/udp.c **** 
1101:ThirdPackage/lwip220/core/udp.c ****   pcb->remote_port = port;
 1648              		.loc 1 1101 3 view .LVU524
 1649              		.loc 1 1101 20 is_stmt 0 view .LVU525
 1650 0014 A682     		strh	r6, [r4, #20]	@ movhi
1102:ThirdPackage/lwip220/core/udp.c ****   pcb->flags |= UDP_FLAGS_CONNECTED;
 1651              		.loc 1 1102 3 is_stmt 1 view .LVU526
 1652              		.loc 1 1102 14 is_stmt 0 view .LVU527
 1653 0016 237C     		ldrb	r3, [r4, #16]	@ zero_extendqisi2
 1654 0018 43F00403 		orr	r3, r3, #4
 1655 001c 2374     		strb	r3, [r4, #16]
1103:ThirdPackage/lwip220/core/udp.c **** 
1104:ThirdPackage/lwip220/core/udp.c ****   LWIP_DEBUGF(UDP_DEBUG | LWIP_DBG_TRACE | LWIP_DBG_STATE, ("udp_connect: connected to "));
 1656              		.loc 1 1104 91 is_stmt 1 view .LVU528
1105:ThirdPackage/lwip220/core/udp.c ****   ip_addr_debug_print_val(UDP_DEBUG | LWIP_DBG_TRACE | LWIP_DBG_STATE,
1106:ThirdPackage/lwip220/core/udp.c ****                           pcb->remote_ip);
 1657              		.loc 1 1106 42 view .LVU529
1107:ThirdPackage/lwip220/core/udp.c ****   LWIP_DEBUGF(UDP_DEBUG | LWIP_DBG_TRACE | LWIP_DBG_STATE, (", port %"U16_F")\n", pcb->remote_port)
 1658              		.loc 1 1107 101 view .LVU530
ARM GAS  C:\Users\86188\AppData\Local\Temp\ccxMyyYF.s 			page 56


1108:ThirdPackage/lwip220/core/udp.c **** 
1109:ThirdPackage/lwip220/core/udp.c ****   /* Insert UDP PCB into the list of active UDP PCBs. */
1110:ThirdPackage/lwip220/core/udp.c ****   for (ipcb = udp_pcbs; ipcb != NULL; ipcb = ipcb->next) {
 1659              		.loc 1 1110 3 view .LVU531
 1660              		.loc 1 1110 13 is_stmt 0 view .LVU532
 1661 001e 0D4B     		ldr	r3, .L165
 1662 0020 1A68     		ldr	r2, [r3]
 1663              	.LVL149:
 1664              		.loc 1 1110 13 view .LVU533
 1665 0022 1346     		mov	r3, r2
 1666              	.LVL150:
 1667              	.L154:
 1668              		.loc 1 1110 25 is_stmt 1 discriminator 1 view .LVU534
 1669              		.loc 1 1110 3 is_stmt 0 discriminator 1 view .LVU535
 1670 0024 4BB1     		cbz	r3, .L164
1111:ThirdPackage/lwip220/core/udp.c ****     if (pcb == ipcb) {
 1671              		.loc 1 1111 5 is_stmt 1 view .LVU536
 1672              		.loc 1 1111 8 is_stmt 0 view .LVU537
 1673 0026 A342     		cmp	r3, r4
 1674 0028 12D0     		beq	.L158
1110:ThirdPackage/lwip220/core/udp.c ****     if (pcb == ipcb) {
 1675              		.loc 1 1110 39 is_stmt 1 discriminator 2 view .LVU538
1110:ThirdPackage/lwip220/core/udp.c ****     if (pcb == ipcb) {
 1676              		.loc 1 1110 44 is_stmt 0 discriminator 2 view .LVU539
 1677 002a DB68     		ldr	r3, [r3, #12]
 1678              	.LVL151:
1110:ThirdPackage/lwip220/core/udp.c ****     if (pcb == ipcb) {
 1679              		.loc 1 1110 44 discriminator 2 view .LVU540
 1680 002c FAE7     		b	.L154
 1681              	.LVL152:
 1682              	.L163:
 1683              	.LBB2:
1085:ThirdPackage/lwip220/core/udp.c ****     if (err != ERR_OK) {
 1684              		.loc 1 1085 5 is_stmt 1 view .LVU541
1085:ThirdPackage/lwip220/core/udp.c ****     if (err != ERR_OK) {
 1685              		.loc 1 1085 17 is_stmt 0 view .LVU542
 1686 002e 0146     		mov	r1, r0
 1687              	.LVL153:
1085:ThirdPackage/lwip220/core/udp.c ****     if (err != ERR_OK) {
 1688              		.loc 1 1085 17 view .LVU543
 1689 0030 FFF7FEFF 		bl	udp_bind
 1690              	.LVL154:
1086:ThirdPackage/lwip220/core/udp.c ****       return err;
 1691              		.loc 1 1086 5 is_stmt 1 view .LVU544
1086:ThirdPackage/lwip220/core/udp.c ****       return err;
 1692              		.loc 1 1086 8 is_stmt 0 view .LVU545
 1693 0034 0028     		cmp	r0, #0
 1694 0036 EBD0     		beq	.L153
 1695 0038 03E0     		b	.L152
 1696              	.LVL155:
 1697              	.L164:
1086:ThirdPackage/lwip220/core/udp.c ****       return err;
 1698              		.loc 1 1086 8 view .LVU546
 1699              	.LBE2:
1112:ThirdPackage/lwip220/core/udp.c ****       /* already on the list, just return */
1113:ThirdPackage/lwip220/core/udp.c ****       return ERR_OK;
1114:ThirdPackage/lwip220/core/udp.c ****     }
ARM GAS  C:\Users\86188\AppData\Local\Temp\ccxMyyYF.s 			page 57


1115:ThirdPackage/lwip220/core/udp.c ****   }
1116:ThirdPackage/lwip220/core/udp.c ****   /* PCB not yet on the list, add PCB now */
1117:ThirdPackage/lwip220/core/udp.c ****   pcb->next = udp_pcbs;
 1700              		.loc 1 1117 3 is_stmt 1 view .LVU547
 1701              		.loc 1 1117 13 is_stmt 0 view .LVU548
 1702 003a E260     		str	r2, [r4, #12]
1118:ThirdPackage/lwip220/core/udp.c ****   udp_pcbs = pcb;
 1703              		.loc 1 1118 3 is_stmt 1 view .LVU549
 1704              		.loc 1 1118 12 is_stmt 0 view .LVU550
 1705 003c 054B     		ldr	r3, .L165
 1706              	.LVL156:
 1707              		.loc 1 1118 12 view .LVU551
 1708 003e 1C60     		str	r4, [r3]
1119:ThirdPackage/lwip220/core/udp.c ****   return ERR_OK;
 1709              		.loc 1 1119 3 is_stmt 1 view .LVU552
 1710              		.loc 1 1119 10 is_stmt 0 view .LVU553
 1711 0040 0020     		movs	r0, #0
 1712              	.L152:
1120:ThirdPackage/lwip220/core/udp.c **** }
 1713              		.loc 1 1120 1 view .LVU554
 1714 0042 70BD     		pop	{r4, r5, r6, pc}
 1715              	.LVL157:
 1716              	.L156:
 1717              	.LCFI24:
 1718              		.cfi_def_cfa_offset 0
 1719              		.cfi_restore 4
 1720              		.cfi_restore 5
 1721              		.cfi_restore 6
 1722              		.cfi_restore 14
1081:ThirdPackage/lwip220/core/udp.c ****   LWIP_ERROR("udp_connect: invalid ipaddr", ipaddr != NULL, return ERR_ARG);
 1723              		.loc 1 1081 3 view .LVU555
 1724 0044 6FF00F00 		mvn	r0, #15
 1725              	.LVL158:
 1726              		.loc 1 1120 1 view .LVU556
 1727 0048 7047     		bx	lr
 1728              	.LVL159:
 1729              	.L157:
 1730              	.LCFI25:
 1731              		.cfi_def_cfa_offset 16
 1732              		.cfi_offset 4, -16
 1733              		.cfi_offset 5, -12
 1734              		.cfi_offset 6, -8
 1735              		.cfi_offset 14, -4
1082:ThirdPackage/lwip220/core/udp.c **** 
 1736              		.loc 1 1082 3 view .LVU557
 1737 004a 6FF00F00 		mvn	r0, #15
 1738              	.LVL160:
1082:ThirdPackage/lwip220/core/udp.c **** 
 1739              		.loc 1 1082 3 view .LVU558
 1740 004e F8E7     		b	.L152
 1741              	.LVL161:
 1742              	.L158:
1113:ThirdPackage/lwip220/core/udp.c ****     }
 1743              		.loc 1 1113 14 view .LVU559
 1744 0050 0020     		movs	r0, #0
 1745 0052 F6E7     		b	.L152
 1746              	.L166:
ARM GAS  C:\Users\86188\AppData\Local\Temp\ccxMyyYF.s 			page 58


 1747              		.align	2
 1748              	.L165:
 1749 0054 00000000 		.word	.LANCHOR1
 1750              		.cfi_endproc
 1751              	.LFE170:
 1753              		.section	.text.udp_disconnect,"ax",%progbits
 1754              		.align	1
 1755              		.global	udp_disconnect
 1756              		.syntax unified
 1757              		.thumb
 1758              		.thumb_func
 1760              	udp_disconnect:
 1761              	.LVL162:
 1762              	.LFB171:
1121:ThirdPackage/lwip220/core/udp.c **** 
1122:ThirdPackage/lwip220/core/udp.c **** /**
1123:ThirdPackage/lwip220/core/udp.c ****  * @ingroup udp_raw
1124:ThirdPackage/lwip220/core/udp.c ****  * Remove the remote end of the pcb. This function does not generate
1125:ThirdPackage/lwip220/core/udp.c ****  * any network traffic, but only removes the remote address of the pcb.
1126:ThirdPackage/lwip220/core/udp.c ****  *
1127:ThirdPackage/lwip220/core/udp.c ****  * @param pcb the udp pcb to disconnect.
1128:ThirdPackage/lwip220/core/udp.c ****  */
1129:ThirdPackage/lwip220/core/udp.c **** void
1130:ThirdPackage/lwip220/core/udp.c **** udp_disconnect(struct udp_pcb *pcb)
1131:ThirdPackage/lwip220/core/udp.c **** {
 1763              		.loc 1 1131 1 is_stmt 1 view -0
 1764              		.cfi_startproc
 1765              		@ args = 0, pretend = 0, frame = 0
 1766              		@ frame_needed = 0, uses_anonymous_args = 0
 1767              		@ link register save eliminated.
1132:ThirdPackage/lwip220/core/udp.c ****   LWIP_ASSERT_CORE_LOCKED();
 1768              		.loc 1 1132 28 view .LVU561
1133:ThirdPackage/lwip220/core/udp.c **** 
1134:ThirdPackage/lwip220/core/udp.c ****   LWIP_ERROR("udp_disconnect: invalid pcb", pcb != NULL, return);
 1769              		.loc 1 1134 3 view .LVU562
 1770              		.loc 1 1134 3 view .LVU563
 1771 0000 38B1     		cbz	r0, .L167
 1772              		.loc 1 1134 3 discriminator 2 view .LVU564
1135:ThirdPackage/lwip220/core/udp.c **** 
1136:ThirdPackage/lwip220/core/udp.c ****   /* reset remote address association */
1137:ThirdPackage/lwip220/core/udp.c **** #if LWIP_IPV4 && LWIP_IPV6
1138:ThirdPackage/lwip220/core/udp.c ****   if (IP_IS_ANY_TYPE_VAL(pcb->local_ip)) {
1139:ThirdPackage/lwip220/core/udp.c ****     ip_addr_copy(pcb->remote_ip, *IP_ANY_TYPE);
1140:ThirdPackage/lwip220/core/udp.c ****   } else {
1141:ThirdPackage/lwip220/core/udp.c **** #endif
1142:ThirdPackage/lwip220/core/udp.c ****     ip_addr_set_any(IP_IS_V6_VAL(pcb->remote_ip), &pcb->remote_ip);
 1773              		.loc 1 1142 5 discriminator 2 view .LVU565
 1774 0002 0022     		movs	r2, #0
 1775 0004 4260     		str	r2, [r0, #4]
1143:ThirdPackage/lwip220/core/udp.c **** #if LWIP_IPV4 && LWIP_IPV6
1144:ThirdPackage/lwip220/core/udp.c ****   }
1145:ThirdPackage/lwip220/core/udp.c **** #endif
1146:ThirdPackage/lwip220/core/udp.c ****   pcb->remote_port = 0;
 1776              		.loc 1 1146 3 discriminator 2 view .LVU566
 1777              		.loc 1 1146 20 is_stmt 0 discriminator 2 view .LVU567
 1778 0006 8282     		strh	r2, [r0, #20]	@ movhi
1147:ThirdPackage/lwip220/core/udp.c ****   pcb->netif_idx = NETIF_NO_INDEX;
ARM GAS  C:\Users\86188\AppData\Local\Temp\ccxMyyYF.s 			page 59


 1779              		.loc 1 1147 3 is_stmt 1 discriminator 2 view .LVU568
 1780              		.loc 1 1147 18 is_stmt 0 discriminator 2 view .LVU569
 1781 0008 0272     		strb	r2, [r0, #8]
1148:ThirdPackage/lwip220/core/udp.c ****   /* mark PCB as unconnected */
1149:ThirdPackage/lwip220/core/udp.c ****   udp_clear_flags(pcb, UDP_FLAGS_CONNECTED);
 1782              		.loc 1 1149 3 is_stmt 1 discriminator 2 view .LVU570
 1783              		.loc 1 1149 3 discriminator 2 view .LVU571
 1784 000a 027C     		ldrb	r2, [r0, #16]	@ zero_extendqisi2
 1785 000c 02F0FB02 		and	r2, r2, #251
 1786 0010 0274     		strb	r2, [r0, #16]
 1787              		.loc 1 1149 3 discriminator 2 view .LVU572
 1788              	.L167:
1150:ThirdPackage/lwip220/core/udp.c **** }
 1789              		.loc 1 1150 1 is_stmt 0 view .LVU573
 1790 0012 7047     		bx	lr
 1791              		.cfi_endproc
 1792              	.LFE171:
 1794              		.section	.text.udp_recv,"ax",%progbits
 1795              		.align	1
 1796              		.global	udp_recv
 1797              		.syntax unified
 1798              		.thumb
 1799              		.thumb_func
 1801              	udp_recv:
 1802              	.LVL163:
 1803              	.LFB172:
1151:ThirdPackage/lwip220/core/udp.c **** 
1152:ThirdPackage/lwip220/core/udp.c **** /**
1153:ThirdPackage/lwip220/core/udp.c ****  * @ingroup udp_raw
1154:ThirdPackage/lwip220/core/udp.c ****  * Set a receive callback for a UDP PCB.
1155:ThirdPackage/lwip220/core/udp.c ****  * This callback will be called when receiving a datagram for the pcb.
1156:ThirdPackage/lwip220/core/udp.c ****  *
1157:ThirdPackage/lwip220/core/udp.c ****  * @param pcb the pcb for which to set the recv callback
1158:ThirdPackage/lwip220/core/udp.c ****  * @param recv function pointer of the callback function
1159:ThirdPackage/lwip220/core/udp.c ****  * @param recv_arg additional argument to pass to the callback function
1160:ThirdPackage/lwip220/core/udp.c ****  */
1161:ThirdPackage/lwip220/core/udp.c **** void
1162:ThirdPackage/lwip220/core/udp.c **** udp_recv(struct udp_pcb *pcb, udp_recv_fn recv, void *recv_arg)
1163:ThirdPackage/lwip220/core/udp.c **** {
 1804              		.loc 1 1163 1 is_stmt 1 view -0
 1805              		.cfi_startproc
 1806              		@ args = 0, pretend = 0, frame = 0
 1807              		@ frame_needed = 0, uses_anonymous_args = 0
 1808              		@ link register save eliminated.
1164:ThirdPackage/lwip220/core/udp.c ****   LWIP_ASSERT_CORE_LOCKED();
 1809              		.loc 1 1164 28 view .LVU575
1165:ThirdPackage/lwip220/core/udp.c **** 
1166:ThirdPackage/lwip220/core/udp.c ****   LWIP_ERROR("udp_recv: invalid pcb", pcb != NULL, return);
 1810              		.loc 1 1166 3 view .LVU576
 1811              		.loc 1 1166 3 view .LVU577
 1812 0000 08B1     		cbz	r0, .L169
 1813              		.loc 1 1166 3 discriminator 2 view .LVU578
1167:ThirdPackage/lwip220/core/udp.c **** 
1168:ThirdPackage/lwip220/core/udp.c ****   /* remember recv() callback and user data */
1169:ThirdPackage/lwip220/core/udp.c ****   pcb->recv = recv;
 1814              		.loc 1 1169 3 discriminator 2 view .LVU579
 1815              		.loc 1 1169 13 is_stmt 0 discriminator 2 view .LVU580
ARM GAS  C:\Users\86188\AppData\Local\Temp\ccxMyyYF.s 			page 60


 1816 0002 8161     		str	r1, [r0, #24]
1170:ThirdPackage/lwip220/core/udp.c ****   pcb->recv_arg = recv_arg;
 1817              		.loc 1 1170 3 is_stmt 1 discriminator 2 view .LVU581
 1818              		.loc 1 1170 17 is_stmt 0 discriminator 2 view .LVU582
 1819 0004 C261     		str	r2, [r0, #28]
 1820              	.L169:
1171:ThirdPackage/lwip220/core/udp.c **** }
 1821              		.loc 1 1171 1 view .LVU583
 1822 0006 7047     		bx	lr
 1823              		.cfi_endproc
 1824              	.LFE172:
 1826              		.section	.text.udp_remove,"ax",%progbits
 1827              		.align	1
 1828              		.global	udp_remove
 1829              		.syntax unified
 1830              		.thumb
 1831              		.thumb_func
 1833              	udp_remove:
 1834              	.LVL164:
 1835              	.LFB173:
1172:ThirdPackage/lwip220/core/udp.c **** 
1173:ThirdPackage/lwip220/core/udp.c **** /**
1174:ThirdPackage/lwip220/core/udp.c ****  * @ingroup udp_raw
1175:ThirdPackage/lwip220/core/udp.c ****  * Removes and deallocates the pcb.
1176:ThirdPackage/lwip220/core/udp.c ****  *
1177:ThirdPackage/lwip220/core/udp.c ****  * @param pcb UDP PCB to be removed. The PCB is removed from the list of
1178:ThirdPackage/lwip220/core/udp.c ****  * UDP PCB's and the data structure is freed from memory.
1179:ThirdPackage/lwip220/core/udp.c ****  *
1180:ThirdPackage/lwip220/core/udp.c ****  * @see udp_new()
1181:ThirdPackage/lwip220/core/udp.c ****  */
1182:ThirdPackage/lwip220/core/udp.c **** void
1183:ThirdPackage/lwip220/core/udp.c **** udp_remove(struct udp_pcb *pcb)
1184:ThirdPackage/lwip220/core/udp.c **** {
 1836              		.loc 1 1184 1 is_stmt 1 view -0
 1837              		.cfi_startproc
 1838              		@ args = 0, pretend = 0, frame = 0
 1839              		@ frame_needed = 0, uses_anonymous_args = 0
1185:ThirdPackage/lwip220/core/udp.c ****   struct udp_pcb *pcb2;
 1840              		.loc 1 1185 3 view .LVU585
1186:ThirdPackage/lwip220/core/udp.c **** 
1187:ThirdPackage/lwip220/core/udp.c ****   LWIP_ASSERT_CORE_LOCKED();
 1841              		.loc 1 1187 28 view .LVU586
1188:ThirdPackage/lwip220/core/udp.c **** 
1189:ThirdPackage/lwip220/core/udp.c ****   LWIP_ERROR("udp_remove: invalid pcb", pcb != NULL, return);
 1842              		.loc 1 1189 3 view .LVU587
 1843              		.loc 1 1189 3 view .LVU588
 1844 0000 C0B1     		cbz	r0, .L179
1184:ThirdPackage/lwip220/core/udp.c ****   struct udp_pcb *pcb2;
 1845              		.loc 1 1184 1 is_stmt 0 discriminator 2 view .LVU589
 1846 0002 08B5     		push	{r3, lr}
 1847              	.LCFI26:
 1848              		.cfi_def_cfa_offset 8
 1849              		.cfi_offset 3, -8
 1850              		.cfi_offset 14, -4
 1851 0004 0146     		mov	r1, r0
 1852              		.loc 1 1189 3 is_stmt 1 discriminator 2 view .LVU590
1190:ThirdPackage/lwip220/core/udp.c **** 
ARM GAS  C:\Users\86188\AppData\Local\Temp\ccxMyyYF.s 			page 61


1191:ThirdPackage/lwip220/core/udp.c ****   mib2_udp_unbind(pcb);
 1853              		.loc 1 1191 23 discriminator 2 view .LVU591
1192:ThirdPackage/lwip220/core/udp.c ****   /* pcb to be removed is first in list? */
1193:ThirdPackage/lwip220/core/udp.c ****   if (udp_pcbs == pcb) {
 1854              		.loc 1 1193 3 discriminator 2 view .LVU592
 1855              		.loc 1 1193 16 is_stmt 0 discriminator 2 view .LVU593
 1856 0006 0C4B     		ldr	r3, .L183
 1857 0008 1A68     		ldr	r2, [r3]
 1858              		.loc 1 1193 6 discriminator 2 view .LVU594
 1859 000a 8242     		cmp	r2, r0
 1860 000c 09D1     		bne	.L173
1194:ThirdPackage/lwip220/core/udp.c ****     /* make list start at 2nd pcb */
1195:ThirdPackage/lwip220/core/udp.c ****     udp_pcbs = udp_pcbs->next;
 1861              		.loc 1 1195 5 is_stmt 1 view .LVU595
 1862              		.loc 1 1195 24 is_stmt 0 view .LVU596
 1863 000e D268     		ldr	r2, [r2, #12]
 1864              		.loc 1 1195 14 view .LVU597
 1865 0010 1A60     		str	r2, [r3]
 1866              	.L174:
1196:ThirdPackage/lwip220/core/udp.c ****     /* pcb not 1st in list */
1197:ThirdPackage/lwip220/core/udp.c ****   } else {
1198:ThirdPackage/lwip220/core/udp.c ****     for (pcb2 = udp_pcbs; pcb2 != NULL; pcb2 = pcb2->next) {
1199:ThirdPackage/lwip220/core/udp.c ****       /* find pcb in udp_pcbs list */
1200:ThirdPackage/lwip220/core/udp.c ****       if (pcb2->next != NULL && pcb2->next == pcb) {
1201:ThirdPackage/lwip220/core/udp.c ****         /* remove pcb from list */
1202:ThirdPackage/lwip220/core/udp.c ****         pcb2->next = pcb->next;
1203:ThirdPackage/lwip220/core/udp.c ****         break;
1204:ThirdPackage/lwip220/core/udp.c ****       }
1205:ThirdPackage/lwip220/core/udp.c ****     }
1206:ThirdPackage/lwip220/core/udp.c ****   }
1207:ThirdPackage/lwip220/core/udp.c ****   memp_free(MEMP_UDP_PCB, pcb);
 1867              		.loc 1 1207 3 is_stmt 1 view .LVU598
 1868 0012 0020     		movs	r0, #0
 1869              	.LVL165:
 1870              		.loc 1 1207 3 is_stmt 0 view .LVU599
 1871 0014 FFF7FEFF 		bl	memp_free
 1872              	.LVL166:
1208:ThirdPackage/lwip220/core/udp.c **** }
 1873              		.loc 1 1208 1 view .LVU600
 1874 0018 08BD     		pop	{r3, pc}
 1875              	.LVL167:
 1876              	.L182:
1202:ThirdPackage/lwip220/core/udp.c ****         break;
 1877              		.loc 1 1202 9 is_stmt 1 view .LVU601
1202:ThirdPackage/lwip220/core/udp.c ****         break;
 1878              		.loc 1 1202 25 is_stmt 0 view .LVU602
 1879 001a CB68     		ldr	r3, [r1, #12]
1202:ThirdPackage/lwip220/core/udp.c ****         break;
 1880              		.loc 1 1202 20 view .LVU603
 1881 001c D360     		str	r3, [r2, #12]
1203:ThirdPackage/lwip220/core/udp.c ****       }
 1882              		.loc 1 1203 9 is_stmt 1 view .LVU604
 1883 001e F8E7     		b	.L174
 1884              	.L176:
1203:ThirdPackage/lwip220/core/udp.c ****       }
 1885              		.loc 1 1203 9 is_stmt 0 view .LVU605
 1886 0020 1A46     		mov	r2, r3
ARM GAS  C:\Users\86188\AppData\Local\Temp\ccxMyyYF.s 			page 62


 1887              	.LVL168:
 1888              	.L173:
1198:ThirdPackage/lwip220/core/udp.c ****       /* find pcb in udp_pcbs list */
 1889              		.loc 1 1198 27 is_stmt 1 discriminator 1 view .LVU606
1198:ThirdPackage/lwip220/core/udp.c ****       /* find pcb in udp_pcbs list */
 1890              		.loc 1 1198 5 is_stmt 0 discriminator 1 view .LVU607
 1891 0022 002A     		cmp	r2, #0
 1892 0024 F5D0     		beq	.L174
1200:ThirdPackage/lwip220/core/udp.c ****         /* remove pcb from list */
 1893              		.loc 1 1200 7 is_stmt 1 view .LVU608
1200:ThirdPackage/lwip220/core/udp.c ****         /* remove pcb from list */
 1894              		.loc 1 1200 15 is_stmt 0 view .LVU609
 1895 0026 D368     		ldr	r3, [r2, #12]
1200:ThirdPackage/lwip220/core/udp.c ****         /* remove pcb from list */
 1896              		.loc 1 1200 10 view .LVU610
 1897 0028 002B     		cmp	r3, #0
 1898 002a F9D0     		beq	.L176
1200:ThirdPackage/lwip220/core/udp.c ****         /* remove pcb from list */
 1899              		.loc 1 1200 30 discriminator 1 view .LVU611
 1900 002c 8B42     		cmp	r3, r1
 1901 002e F4D0     		beq	.L182
 1902 0030 1A46     		mov	r2, r3
 1903              	.LVL169:
1200:ThirdPackage/lwip220/core/udp.c ****         /* remove pcb from list */
 1904              		.loc 1 1200 30 discriminator 1 view .LVU612
 1905 0032 F6E7     		b	.L173
 1906              	.L179:
 1907              	.LCFI27:
 1908              		.cfi_def_cfa_offset 0
 1909              		.cfi_restore 3
 1910              		.cfi_restore 14
1200:ThirdPackage/lwip220/core/udp.c ****         /* remove pcb from list */
 1911              		.loc 1 1200 30 discriminator 1 view .LVU613
 1912 0034 7047     		bx	lr
 1913              	.L184:
 1914 0036 00BF     		.align	2
 1915              	.L183:
 1916 0038 00000000 		.word	.LANCHOR1
 1917              		.cfi_endproc
 1918              	.LFE173:
 1920              		.section	.text.udp_new,"ax",%progbits
 1921              		.align	1
 1922              		.global	udp_new
 1923              		.syntax unified
 1924              		.thumb
 1925              		.thumb_func
 1927              	udp_new:
 1928              	.LFB174:
1209:ThirdPackage/lwip220/core/udp.c **** 
1210:ThirdPackage/lwip220/core/udp.c **** /**
1211:ThirdPackage/lwip220/core/udp.c ****  * @ingroup udp_raw
1212:ThirdPackage/lwip220/core/udp.c ****  * Creates a new UDP pcb which can be used for UDP communication. The
1213:ThirdPackage/lwip220/core/udp.c ****  * pcb is not active until it has either been bound to a local address
1214:ThirdPackage/lwip220/core/udp.c ****  * or connected to a remote address.
1215:ThirdPackage/lwip220/core/udp.c ****  * @see MEMP_NUM_UDP_PCB
1216:ThirdPackage/lwip220/core/udp.c ****  *
1217:ThirdPackage/lwip220/core/udp.c ****  * @return The UDP PCB which was created. NULL if the PCB data structure
ARM GAS  C:\Users\86188\AppData\Local\Temp\ccxMyyYF.s 			page 63


1218:ThirdPackage/lwip220/core/udp.c ****  * could not be allocated.
1219:ThirdPackage/lwip220/core/udp.c ****  *
1220:ThirdPackage/lwip220/core/udp.c ****  * @see udp_remove()
1221:ThirdPackage/lwip220/core/udp.c ****  */
1222:ThirdPackage/lwip220/core/udp.c **** struct udp_pcb *
1223:ThirdPackage/lwip220/core/udp.c **** udp_new(void)
1224:ThirdPackage/lwip220/core/udp.c **** {
 1929              		.loc 1 1224 1 is_stmt 1 view -0
 1930              		.cfi_startproc
 1931              		@ args = 0, pretend = 0, frame = 0
 1932              		@ frame_needed = 0, uses_anonymous_args = 0
 1933 0000 10B5     		push	{r4, lr}
 1934              	.LCFI28:
 1935              		.cfi_def_cfa_offset 8
 1936              		.cfi_offset 4, -8
 1937              		.cfi_offset 14, -4
1225:ThirdPackage/lwip220/core/udp.c ****   struct udp_pcb *pcb;
 1938              		.loc 1 1225 3 view .LVU615
1226:ThirdPackage/lwip220/core/udp.c **** 
1227:ThirdPackage/lwip220/core/udp.c ****   LWIP_ASSERT_CORE_LOCKED();
 1939              		.loc 1 1227 28 view .LVU616
1228:ThirdPackage/lwip220/core/udp.c **** 
1229:ThirdPackage/lwip220/core/udp.c ****   pcb = (struct udp_pcb *)memp_malloc(MEMP_UDP_PCB);
 1940              		.loc 1 1229 3 view .LVU617
 1941              		.loc 1 1229 27 is_stmt 0 view .LVU618
 1942 0002 0020     		movs	r0, #0
 1943 0004 FFF7FEFF 		bl	memp_malloc
 1944              	.LVL170:
1230:ThirdPackage/lwip220/core/udp.c ****   /* could allocate UDP PCB? */
1231:ThirdPackage/lwip220/core/udp.c ****   if (pcb != NULL) {
 1945              		.loc 1 1231 3 is_stmt 1 view .LVU619
 1946              		.loc 1 1231 6 is_stmt 0 view .LVU620
 1947 0008 0446     		mov	r4, r0
 1948 000a 28B1     		cbz	r0, .L185
1232:ThirdPackage/lwip220/core/udp.c ****     /* UDP Lite: by initializing to all zeroes, chksum_len is set to 0
1233:ThirdPackage/lwip220/core/udp.c ****      * which means checksum is generated over the whole datagram per default
1234:ThirdPackage/lwip220/core/udp.c ****      * (recommended as default by RFC 3828). */
1235:ThirdPackage/lwip220/core/udp.c ****     /* initialize PCB to all zeroes */
1236:ThirdPackage/lwip220/core/udp.c ****     memset(pcb, 0, sizeof(struct udp_pcb));
 1949              		.loc 1 1236 5 is_stmt 1 view .LVU621
 1950 000c 2022     		movs	r2, #32
 1951 000e 0021     		movs	r1, #0
 1952 0010 FFF7FEFF 		bl	memset
 1953              	.LVL171:
1237:ThirdPackage/lwip220/core/udp.c ****     pcb->ttl = UDP_TTL;
 1954              		.loc 1 1237 5 view .LVU622
 1955              		.loc 1 1237 14 is_stmt 0 view .LVU623
 1956 0014 FF23     		movs	r3, #255
 1957 0016 E372     		strb	r3, [r4, #11]
1238:ThirdPackage/lwip220/core/udp.c **** #if LWIP_MULTICAST_TX_OPTIONS
1239:ThirdPackage/lwip220/core/udp.c ****     udp_set_multicast_ttl(pcb, UDP_TTL);
1240:ThirdPackage/lwip220/core/udp.c **** #endif /* LWIP_MULTICAST_TX_OPTIONS */
1241:ThirdPackage/lwip220/core/udp.c ****     pcb_tci_init(pcb);
 1958              		.loc 1 1241 22 is_stmt 1 view .LVU624
1242:ThirdPackage/lwip220/core/udp.c ****   }
1243:ThirdPackage/lwip220/core/udp.c ****   return pcb;
 1959              		.loc 1 1243 3 view .LVU625
ARM GAS  C:\Users\86188\AppData\Local\Temp\ccxMyyYF.s 			page 64


 1960              	.L185:
1244:ThirdPackage/lwip220/core/udp.c **** }
 1961              		.loc 1 1244 1 is_stmt 0 view .LVU626
 1962 0018 2046     		mov	r0, r4
 1963 001a 10BD     		pop	{r4, pc}
 1964              		.loc 1 1244 1 view .LVU627
 1965              		.cfi_endproc
 1966              	.LFE174:
 1968              		.section	.text.udp_new_ip_type,"ax",%progbits
 1969              		.align	1
 1970              		.global	udp_new_ip_type
 1971              		.syntax unified
 1972              		.thumb
 1973              		.thumb_func
 1975              	udp_new_ip_type:
 1976              	.LVL172:
 1977              	.LFB175:
1245:ThirdPackage/lwip220/core/udp.c **** 
1246:ThirdPackage/lwip220/core/udp.c **** /**
1247:ThirdPackage/lwip220/core/udp.c ****  * @ingroup udp_raw
1248:ThirdPackage/lwip220/core/udp.c ****  * Create a UDP PCB for specific IP type.
1249:ThirdPackage/lwip220/core/udp.c ****  * The pcb is not active until it has either been bound to a local address
1250:ThirdPackage/lwip220/core/udp.c ****  * or connected to a remote address.
1251:ThirdPackage/lwip220/core/udp.c ****  * @see MEMP_NUM_UDP_PCB
1252:ThirdPackage/lwip220/core/udp.c ****  *
1253:ThirdPackage/lwip220/core/udp.c ****  * @param type IP address type, see @ref lwip_ip_addr_type definitions.
1254:ThirdPackage/lwip220/core/udp.c ****  * If you want to listen to IPv4 and IPv6 (dual-stack) packets,
1255:ThirdPackage/lwip220/core/udp.c ****  * supply @ref IPADDR_TYPE_ANY as argument and bind to @ref IP_ANY_TYPE.
1256:ThirdPackage/lwip220/core/udp.c ****  * @return The UDP PCB which was created. NULL if the PCB data structure
1257:ThirdPackage/lwip220/core/udp.c ****  * could not be allocated.
1258:ThirdPackage/lwip220/core/udp.c ****  *
1259:ThirdPackage/lwip220/core/udp.c ****  * @see udp_remove()
1260:ThirdPackage/lwip220/core/udp.c ****  */
1261:ThirdPackage/lwip220/core/udp.c **** struct udp_pcb *
1262:ThirdPackage/lwip220/core/udp.c **** udp_new_ip_type(u8_t type)
1263:ThirdPackage/lwip220/core/udp.c **** {
 1978              		.loc 1 1263 1 is_stmt 1 view -0
 1979              		.cfi_startproc
 1980              		@ args = 0, pretend = 0, frame = 0
 1981              		@ frame_needed = 0, uses_anonymous_args = 0
 1982              		.loc 1 1263 1 is_stmt 0 view .LVU629
 1983 0000 08B5     		push	{r3, lr}
 1984              	.LCFI29:
 1985              		.cfi_def_cfa_offset 8
 1986              		.cfi_offset 3, -8
 1987              		.cfi_offset 14, -4
1264:ThirdPackage/lwip220/core/udp.c ****   struct udp_pcb *pcb;
 1988              		.loc 1 1264 3 is_stmt 1 view .LVU630
1265:ThirdPackage/lwip220/core/udp.c **** 
1266:ThirdPackage/lwip220/core/udp.c ****   LWIP_ASSERT_CORE_LOCKED();
 1989              		.loc 1 1266 28 view .LVU631
1267:ThirdPackage/lwip220/core/udp.c **** 
1268:ThirdPackage/lwip220/core/udp.c ****   pcb = udp_new();
 1990              		.loc 1 1268 3 view .LVU632
 1991              		.loc 1 1268 9 is_stmt 0 view .LVU633
 1992 0002 FFF7FEFF 		bl	udp_new
 1993              	.LVL173:
ARM GAS  C:\Users\86188\AppData\Local\Temp\ccxMyyYF.s 			page 65


1269:ThirdPackage/lwip220/core/udp.c **** #if LWIP_IPV4 && LWIP_IPV6
1270:ThirdPackage/lwip220/core/udp.c ****   if (pcb != NULL) {
1271:ThirdPackage/lwip220/core/udp.c ****     IP_SET_TYPE_VAL(pcb->local_ip,  type);
1272:ThirdPackage/lwip220/core/udp.c ****     IP_SET_TYPE_VAL(pcb->remote_ip, type);
1273:ThirdPackage/lwip220/core/udp.c ****   }
1274:ThirdPackage/lwip220/core/udp.c **** #else
1275:ThirdPackage/lwip220/core/udp.c ****   LWIP_UNUSED_ARG(type);
 1994              		.loc 1 1275 3 is_stmt 1 view .LVU634
1276:ThirdPackage/lwip220/core/udp.c **** #endif /* LWIP_IPV4 && LWIP_IPV6 */
1277:ThirdPackage/lwip220/core/udp.c ****   return pcb;
 1995              		.loc 1 1277 3 view .LVU635
1278:ThirdPackage/lwip220/core/udp.c **** }
 1996              		.loc 1 1278 1 is_stmt 0 view .LVU636
 1997 0006 08BD     		pop	{r3, pc}
 1998              		.cfi_endproc
 1999              	.LFE175:
 2001              		.section	.text.udp_netif_ip_addr_changed,"ax",%progbits
 2002              		.align	1
 2003              		.global	udp_netif_ip_addr_changed
 2004              		.syntax unified
 2005              		.thumb
 2006              		.thumb_func
 2008              	udp_netif_ip_addr_changed:
 2009              	.LVL174:
 2010              	.LFB176:
1279:ThirdPackage/lwip220/core/udp.c **** 
1280:ThirdPackage/lwip220/core/udp.c **** /** This function is called from netif.c when address is changed
1281:ThirdPackage/lwip220/core/udp.c ****  *
1282:ThirdPackage/lwip220/core/udp.c ****  * @param old_addr IP address of the netif before change
1283:ThirdPackage/lwip220/core/udp.c ****  * @param new_addr IP address of the netif after change
1284:ThirdPackage/lwip220/core/udp.c ****  */
1285:ThirdPackage/lwip220/core/udp.c **** void udp_netif_ip_addr_changed(const ip_addr_t *old_addr, const ip_addr_t *new_addr)
1286:ThirdPackage/lwip220/core/udp.c **** {
 2011              		.loc 1 1286 1 is_stmt 1 view -0
 2012              		.cfi_startproc
 2013              		@ args = 0, pretend = 0, frame = 0
 2014              		@ frame_needed = 0, uses_anonymous_args = 0
 2015              		@ link register save eliminated.
1287:ThirdPackage/lwip220/core/udp.c ****   struct udp_pcb *upcb;
 2016              		.loc 1 1287 3 view .LVU638
1288:ThirdPackage/lwip220/core/udp.c **** 
1289:ThirdPackage/lwip220/core/udp.c ****   if (!ip_addr_isany(old_addr) && !ip_addr_isany(new_addr)) {
 2017              		.loc 1 1289 3 view .LVU639
 2018              		.loc 1 1289 6 is_stmt 0 view .LVU640
 2019 0000 B8B1     		cbz	r0, .L196
 2020 0002 0246     		mov	r2, r0
 2021              		.loc 1 1289 8 discriminator 1 view .LVU641
 2022 0004 0368     		ldr	r3, [r0]
 2023              		.loc 1 1289 7 discriminator 1 view .LVU642
 2024 0006 A3B1     		cbz	r3, .L196
 2025              		.loc 1 1289 32 discriminator 2 view .LVU643
 2026 0008 99B1     		cbz	r1, .L196
 2027              		.loc 1 1289 36 discriminator 3 view .LVU644
 2028 000a 0B68     		ldr	r3, [r1]
 2029              		.loc 1 1289 35 discriminator 3 view .LVU645
 2030 000c 8BB1     		cbz	r3, .L196
1290:ThirdPackage/lwip220/core/udp.c ****     for (upcb = udp_pcbs; upcb != NULL; upcb = upcb->next) {
ARM GAS  C:\Users\86188\AppData\Local\Temp\ccxMyyYF.s 			page 66


 2031              		.loc 1 1290 5 is_stmt 1 view .LVU646
 2032              		.loc 1 1290 15 is_stmt 0 view .LVU647
 2033 000e 094B     		ldr	r3, .L202
 2034 0010 1B68     		ldr	r3, [r3]
 2035              	.LVL175:
 2036              		.loc 1 1290 27 is_stmt 1 view .LVU648
 2037              		.loc 1 1290 5 is_stmt 0 view .LVU649
 2038 0012 6BB1     		cbz	r3, .L200
1286:ThirdPackage/lwip220/core/udp.c ****   struct udp_pcb *upcb;
 2039              		.loc 1 1286 1 view .LVU650
 2040 0014 10B4     		push	{r4}
 2041              	.LCFI30:
 2042              		.cfi_def_cfa_offset 4
 2043              		.cfi_offset 4, -4
 2044 0016 01E0     		b	.L194
 2045              	.LVL176:
 2046              	.L193:
 2047              		.loc 1 1290 41 is_stmt 1 discriminator 2 view .LVU651
 2048              		.loc 1 1290 46 is_stmt 0 discriminator 2 view .LVU652
 2049 0018 DB68     		ldr	r3, [r3, #12]
 2050              	.LVL177:
 2051              		.loc 1 1290 27 is_stmt 1 discriminator 2 view .LVU653
 2052              		.loc 1 1290 5 is_stmt 0 discriminator 2 view .LVU654
 2053 001a 33B1     		cbz	r3, .L201
 2054              	.L194:
1291:ThirdPackage/lwip220/core/udp.c ****       /* PCB bound to current local interface address? */
1292:ThirdPackage/lwip220/core/udp.c ****       if (ip_addr_eq(&upcb->local_ip, old_addr)) {
 2055              		.loc 1 1292 7 is_stmt 1 view .LVU655
 2056              		.loc 1 1292 11 is_stmt 0 view .LVU656
 2057 001c 1068     		ldr	r0, [r2]
 2058              		.loc 1 1292 10 view .LVU657
 2059 001e 1C68     		ldr	r4, [r3]
 2060 0020 8442     		cmp	r4, r0
 2061 0022 F9D1     		bne	.L193
1293:ThirdPackage/lwip220/core/udp.c ****         /* The PCB is bound to the old ipaddr and
1294:ThirdPackage/lwip220/core/udp.c ****          * is set to bound to the new one instead */
1295:ThirdPackage/lwip220/core/udp.c ****         ip_addr_copy(upcb->local_ip, *new_addr);
 2062              		.loc 1 1295 9 is_stmt 1 view .LVU658
 2063 0024 0868     		ldr	r0, [r1]
 2064 0026 1860     		str	r0, [r3]
 2065 0028 F6E7     		b	.L193
 2066              	.L201:
1296:ThirdPackage/lwip220/core/udp.c ****       }
1297:ThirdPackage/lwip220/core/udp.c ****     }
1298:ThirdPackage/lwip220/core/udp.c ****   }
1299:ThirdPackage/lwip220/core/udp.c **** }
 2067              		.loc 1 1299 1 is_stmt 0 view .LVU659
 2068 002a 5DF8044B 		ldr	r4, [sp], #4
 2069              	.LCFI31:
 2070              		.cfi_restore 4
 2071              		.cfi_def_cfa_offset 0
 2072 002e 7047     		bx	lr
 2073              	.LVL178:
 2074              	.L200:
 2075              		.loc 1 1299 1 view .LVU660
 2076 0030 7047     		bx	lr
 2077              	.LVL179:
ARM GAS  C:\Users\86188\AppData\Local\Temp\ccxMyyYF.s 			page 67


 2078              	.L196:
 2079              		.loc 1 1299 1 view .LVU661
 2080 0032 7047     		bx	lr
 2081              	.L203:
 2082              		.align	2
 2083              	.L202:
 2084 0034 00000000 		.word	.LANCHOR1
 2085              		.cfi_endproc
 2086              	.LFE176:
 2088              		.global	udp_pcbs
 2089              		.section	.bss.udp_pcbs,"aw",%nobits
 2090              		.align	2
 2091              		.set	.LANCHOR1,. + 0
 2094              	udp_pcbs:
 2095 0000 00000000 		.space	4
 2096              		.section	.data.udp_port,"aw"
 2097              		.align	1
 2098              		.set	.LANCHOR0,. + 0
 2101              	udp_port:
 2102 0000 00C0     		.short	-16384
 2103              		.text
 2104              	.Letext0:
 2105              		.file 2 "k:\\program files (x86)\\gnu arm embedded toolchain\\10 2021.10\\arm-none-eabi\\include\\
 2106              		.file 3 "k:\\program files (x86)\\gnu arm embedded toolchain\\10 2021.10\\arm-none-eabi\\include\\
 2107              		.file 4 "ThirdPackage/lwip220/include/lwip/arch.h"
 2108              		.file 5 "ThirdPackage/lwip220/include/lwip/err.h"
 2109              		.file 6 "ThirdPackage/lwip220/include/lwip/pbuf.h"
 2110              		.file 7 "ThirdPackage/lwip220/include/lwip/ip4_addr.h"
 2111              		.file 8 "ThirdPackage/lwip220/include/lwip/ip_addr.h"
 2112              		.file 9 "ThirdPackage/lwip220/include/lwip/memp.h"
 2113              		.file 10 "ThirdPackage/lwip220/include/lwip/netif.h"
 2114              		.file 11 "ThirdPackage/lwip220/include/lwip/prot/ip4.h"
 2115              		.file 12 "ThirdPackage/lwip220/include/lwip/ip.h"
 2116              		.file 13 "ThirdPackage/lwip220/include/lwip/prot/udp.h"
 2117              		.file 14 "ThirdPackage/lwip220/include/lwip/udp.h"
 2118              		.file 15 "ThirdPackage/lwip220/include/lwip/icmp.h"
 2119              		.file 16 "ThirdPackage/lwip220/include/lwip/def.h"
 2120              		.file 17 "ThirdPackage/lwip220/include/lwip/ip4.h"
 2121              		.file 18 "k:\\program files (x86)\\gnu arm embedded toolchain\\10 2021.10\\arm-none-eabi\\include\
 2122              		.file 19 "k:\\program files (x86)\\gnu arm embedded toolchain\\10 2021.10\\arm-none-eabi\\include\
 2123              		.file 20 "<built-in>"
ARM GAS  C:\Users\86188\AppData\Local\Temp\ccxMyyYF.s 			page 68

